
z:/Personal/Electronics/particle/Full_project/target/2.2.0/boron/Full_project.elf:     file format elf32-littlearm

Sections:
Idx Name          Size      VMA       LMA       File off  Algn
  0 .module_info  00000018  000d4000  000d4000  00004000  2**0
                  CONTENTS, ALLOC, LOAD, READONLY, DATA
  1 .dynalib      00000004  000d4018  000d4018  00004018  2**2
                  CONTENTS, ALLOC, LOAD, READONLY, DATA
  2 .text         00007270  000d4020  000d4020  00004020  2**3
                  CONTENTS, ALLOC, LOAD, READONLY, CODE
  3 .ARM.exidx    00000008  000db290  000db290  0000b290  2**2
                  CONTENTS, ALLOC, LOAD, READONLY, DATA
  4 .backup       00000004  2003f400  000db298  0000f400  2**2
                  CONTENTS, ALLOC, LOAD, DATA
  5 .data         00000070  2003e44c  000db29c  0001e44c  2**2
                  CONTENTS, ALLOC, LOAD, DATA
  6 .bss          00000334  2003e4bc  2003e4bc  0002e4bc  2**2
                  ALLOC
  7 .module_info_suffix 00000028  000db30c  000db30c  0002b30c  2**0
                  CONTENTS, ALLOC, LOAD, READONLY, DATA
  8 .module_info_crc 00000004  000db334  000db334  0002b334  2**0
                  CONTENTS, ALLOC, LOAD, READONLY, DATA
  9 .debug_info   001c726a  00000000  00000000  0002b338  2**0
                  CONTENTS, READONLY, DEBUGGING
 10 .debug_abbrev 0001b2f7  00000000  00000000  001f25a2  2**0
                  CONTENTS, READONLY, DEBUGGING
 11 .debug_loc    0002ff19  00000000  00000000  0020d899  2**0
                  CONTENTS, READONLY, DEBUGGING
 12 .debug_aranges 00002978  00000000  00000000  0023d7b2  2**0
                  CONTENTS, READONLY, DEBUGGING
 13 .debug_ranges 000072c8  00000000  00000000  0024012a  2**0
                  CONTENTS, READONLY, DEBUGGING
 14 .debug_macro  00040cd3  00000000  00000000  002473f2  2**0
                  CONTENTS, READONLY, DEBUGGING
 15 .debug_line   00047493  00000000  00000000  002880c5  2**0
                  CONTENTS, READONLY, DEBUGGING
 16 .debug_str    0010b810  00000000  00000000  002cf558  2**0
                  CONTENTS, READONLY, DEBUGGING
 17 .debug_frame  00007a90  00000000  00000000  003dad68  2**2
                  CONTENTS, READONLY, DEBUGGING

Disassembly of section .text:

000d4020 <module_user_pre_init>:
/**
 * Initializes this user module. Returns the start of the heap.
 */
void* module_user_pre_init() {

    if ( (&link_global_data_start!=&link_global_data_initial_values) && (link_global_data_size != 0))
   d4020:	4809      	ldr	r0, [pc, #36]	; (d4048 <module_user_pre_init+0x28>)
   d4022:	490a      	ldr	r1, [pc, #40]	; (d404c <module_user_pre_init+0x2c>)
   d4024:	4288      	cmp	r0, r1
void* module_user_pre_init() {
   d4026:	b508      	push	{r3, lr}
    if ( (&link_global_data_start!=&link_global_data_initial_values) && (link_global_data_size != 0))
   d4028:	d005      	beq.n	d4036 <module_user_pre_init+0x16>
   d402a:	4a09      	ldr	r2, [pc, #36]	; (d4050 <module_user_pre_init+0x30>)
   d402c:	4282      	cmp	r2, r0
   d402e:	d002      	beq.n	d4036 <module_user_pre_init+0x16>
    {
        memcpy(&link_global_data_start, &link_global_data_initial_values, link_global_data_size);
   d4030:	1a12      	subs	r2, r2, r0
   d4032:	f006 f90f 	bl	da254 <memcpy>
    }

    memset(&link_bss_location, 0, link_bss_size );
   d4036:	4807      	ldr	r0, [pc, #28]	; (d4054 <module_user_pre_init+0x34>)
   d4038:	4a07      	ldr	r2, [pc, #28]	; (d4058 <module_user_pre_init+0x38>)
   d403a:	2100      	movs	r1, #0
   d403c:	1a12      	subs	r2, r2, r0
   d403e:	f006 f917 	bl	da270 <memset>
    return &link_global_data_start;
}
   d4042:	4801      	ldr	r0, [pc, #4]	; (d4048 <module_user_pre_init+0x28>)
   d4044:	bd08      	pop	{r3, pc}
   d4046:	bf00      	nop
   d4048:	2003e44c 	.word	0x2003e44c
   d404c:	000db29c 	.word	0x000db29c
   d4050:	2003e4bc 	.word	0x2003e4bc
   d4054:	2003e4bc 	.word	0x2003e4bc
   d4058:	2003e7ed 	.word	0x2003e7ed

000d405c <module_user_init>:
extern constructor_ptr_t link_constructors_location[];
extern constructor_ptr_t link_constructors_end;
#define link_constructors_size   ((unsigned long)&link_constructors_end  -  (unsigned long)&link_constructors_location )

void module_user_init()
{
   d405c:	b570      	push	{r4, r5, r6, lr}
    module_user_init_hook();

    // invoke constructors
    int ctor_num;
    for (ctor_num=0; ctor_num < link_constructors_size/sizeof(constructor_ptr_t); ctor_num++ )
   d405e:	4e07      	ldr	r6, [pc, #28]	; (d407c <module_user_init+0x20>)
   d4060:	4c07      	ldr	r4, [pc, #28]	; (d4080 <module_user_init+0x24>)
    module_user_init_hook();
   d4062:	f003 fbaf 	bl	d77c4 <module_user_init_hook>
    for (ctor_num=0; ctor_num < link_constructors_size/sizeof(constructor_ptr_t); ctor_num++ )
   d4066:	1ba4      	subs	r4, r4, r6
   d4068:	08a4      	lsrs	r4, r4, #2
   d406a:	2500      	movs	r5, #0
   d406c:	42a5      	cmp	r5, r4
   d406e:	d100      	bne.n	d4072 <module_user_init+0x16>
    {
        link_constructors_location[ctor_num]();
    }
}
   d4070:	bd70      	pop	{r4, r5, r6, pc}
        link_constructors_location[ctor_num]();
   d4072:	f856 3b04 	ldr.w	r3, [r6], #4
   d4076:	4798      	blx	r3
    for (ctor_num=0; ctor_num < link_constructors_size/sizeof(constructor_ptr_t); ctor_num++ )
   d4078:	3501      	adds	r5, #1
   d407a:	e7f7      	b.n	d406c <module_user_init+0x10>
   d407c:	000db260 	.word	0x000db260
   d4080:	000db284 	.word	0x000db284

000d4084 <module_user_setup>:

/**
 * Export these functions with a fuller name so they don't clash with the setup/loop wrappers in the system module.
 */
void module_user_setup() {
    setup();
   d4084:	f000 bc54 	b.w	d4930 <setup>

000d4088 <module_user_loop>:
}

void module_user_loop() {
   d4088:	b508      	push	{r3, lr}
    loop();
   d408a:	f000 fac9 	bl	d4620 <loop>
    _post_loop();
}
   d408e:	e8bd 4008 	ldmia.w	sp!, {r3, lr}
    _post_loop();
   d4092:	f003 bb4f 	b.w	d7734 <_post_loop>

000d4096 <_Znwj>:
 * Implement C++ new/delete operators using the heap
 */

void *operator new(size_t size)
{
	return malloc(size);
   d4096:	f003 b857 	b.w	d7148 <malloc>

000d409a <_Znaj>:
   d409a:	f003 b855 	b.w	d7148 <malloc>

000d409e <_ZdlPv>:
	return malloc(size);
}

void operator delete(void *p)
{
	free(p);
   d409e:	f003 b85b 	b.w	d7158 <free>
	...

000d40a4 <__cxa_pure_virtual>:
char* strerror(int errnum) {
    return (char*)"";
}

/* Default implementation for call made to pure virtual function. */
void __cxa_pure_virtual() {
   d40a4:	b508      	push	{r3, lr}
  PANIC(PureVirtualCall,"Call on pure virtual");
   d40a6:	4a03      	ldr	r2, [pc, #12]	; (d40b4 <__cxa_pure_virtual+0x10>)
   d40a8:	2100      	movs	r1, #0
   d40aa:	200c      	movs	r0, #12
   d40ac:	f002 ffb8 	bl	d7020 <panic_>
  while (1);
   d40b0:	e7fe      	b.n	d40b0 <__cxa_pure_virtual+0xc>
   d40b2:	bf00      	nop
   d40b4:	000d6d71 	.word	0x000d6d71

000d40b8 <__cxa_guard_acquire>:

/* Provide default implemenation for __cxa_guard_acquire() and
 * __cxa_guard_release(). Note: these must be revisited if a multitasking
 * OS is ported to this platform. */
__extension__ typedef int __guard __attribute__((mode (__DI__)));
int __cxa_guard_acquire(__guard *g) {return !*(char *)(g);};
   d40b8:	7800      	ldrb	r0, [r0, #0]
   d40ba:	fab0 f080 	clz	r0, r0
   d40be:	0940      	lsrs	r0, r0, #5
   d40c0:	4770      	bx	lr

000d40c2 <__cxa_guard_release>:
void __cxa_guard_release (__guard *g) {*(char *)g = 1;};
   d40c2:	2301      	movs	r3, #1
   d40c4:	7003      	strb	r3, [r0, #0]
   d40c6:	4770      	bx	lr

000d40c8 <_ZN5Print5printIsLi0EEEjT_i.part.0>:
    size_t vprintf(bool newline, const char* format, va_list args) __attribute__ ((format(printf, 3, 0)));
};

template <typename T, std::enable_if_t<!std::is_base_of<Printable, T>::value && (std::is_integral<T>::value || std::is_convertible<T, unsigned long long>::value ||
    std::is_convertible<T, long long>::value), int>>
size_t Print::print(T n, int base)
   d40c8:	b5f8      	push	{r3, r4, r5, r6, r7, lr}
// FIXME: avoids 'comparison of constant '0' with boolean expression is always false'
#if __GNUC__ >= 9
#pragma GCC diagnostic push
#pragma GCC diagnostic ignored "-Wbool-compare"
#endif // __GNUC__ >= 9
        if (n < 0 && base == 10) {
   d40ca:	1e0c      	subs	r4, r1, #0
size_t Print::print(T n, int base)
   d40cc:	4607      	mov	r7, r0
   d40ce:	4616      	mov	r6, r2
        if (n < 0 && base == 10) {
   d40d0:	da0c      	bge.n	d40ec <_ZN5Print5printIsLi0EEEjT_i.part.0+0x24>
   d40d2:	2a0a      	cmp	r2, #10
   d40d4:	d10a      	bne.n	d40ec <_ZN5Print5printIsLi0EEEjT_i.part.0+0x24>
            t = print('-');
   d40d6:	212d      	movs	r1, #45	; 0x2d
   d40d8:	f003 f9a4 	bl	d7424 <_ZN5Print5printEc>
            val = -n;
   d40dc:	4261      	negs	r1, r4
            t = print('-');
   d40de:	4605      	mov	r5, r0
            val = n;
        }
#if __GNUC__ >= 9
#pragma GCC diagnostic pop
#endif // __GNUC__ >= 9
        return printNumber(val, base) + t;
   d40e0:	b2f2      	uxtb	r2, r6
   d40e2:	4638      	mov	r0, r7
   d40e4:	f003 f9bd 	bl	d7462 <_ZN5Print11printNumberEmh>
    }
}
   d40e8:	4428      	add	r0, r5
   d40ea:	bdf8      	pop	{r3, r4, r5, r6, r7, pc}
            val = n;
   d40ec:	4621      	mov	r1, r4
        size_t t = 0;
   d40ee:	2500      	movs	r5, #0
   d40f0:	e7f6      	b.n	d40e0 <_ZN5Print5printIsLi0EEEjT_i.part.0+0x18>
	...

000d40f4 <_Z20displaySensorOffsetsRK25adafruit_bno055_offsets_t>:

  delay(BNO055_SAMPLERATE_DELAY_MS);
}

void displaySensorOffsets(const adafruit_bno055_offsets_t &calibData)
{
   d40f4:	b538      	push	{r3, r4, r5, lr}
   d40f6:	4604      	mov	r4, r0
    Serial.print("Accelerometer: ");
    Serial.print(calibData.accel_offset_x); Serial.print(" ");
   d40f8:	4d4a      	ldr	r5, [pc, #296]	; (d4224 <_Z20displaySensorOffsetsRK25adafruit_bno055_offsets_t+0x130>)
    Serial.print("Accelerometer: ");
   d40fa:	f003 fc6b 	bl	d79d4 <_Z16_fetch_usbserialv>
   d40fe:	494a      	ldr	r1, [pc, #296]	; (d4228 <_Z20displaySensorOffsetsRK25adafruit_bno055_offsets_t+0x134>)
   d4100:	f003 f98c 	bl	d741c <_ZN5Print5printEPKc>
    Serial.print(calibData.accel_offset_x); Serial.print(" ");
   d4104:	f003 fc66 	bl	d79d4 <_Z16_fetch_usbserialv>
size_t Print::print(T n, int base)
   d4108:	220a      	movs	r2, #10
   d410a:	f9b4 1000 	ldrsh.w	r1, [r4]
   d410e:	f7ff ffdb 	bl	d40c8 <_ZN5Print5printIsLi0EEEjT_i.part.0>
   d4112:	f003 fc5f 	bl	d79d4 <_Z16_fetch_usbserialv>
   d4116:	4629      	mov	r1, r5
   d4118:	f003 f980 	bl	d741c <_ZN5Print5printEPKc>
    Serial.print(calibData.accel_offset_y); Serial.print(" ");
   d411c:	f003 fc5a 	bl	d79d4 <_Z16_fetch_usbserialv>
   d4120:	220a      	movs	r2, #10
   d4122:	f9b4 1002 	ldrsh.w	r1, [r4, #2]
   d4126:	f7ff ffcf 	bl	d40c8 <_ZN5Print5printIsLi0EEEjT_i.part.0>
   d412a:	f003 fc53 	bl	d79d4 <_Z16_fetch_usbserialv>
   d412e:	4629      	mov	r1, r5
   d4130:	f003 f974 	bl	d741c <_ZN5Print5printEPKc>
    Serial.print(calibData.accel_offset_z); Serial.print(" ");
   d4134:	f003 fc4e 	bl	d79d4 <_Z16_fetch_usbserialv>
   d4138:	220a      	movs	r2, #10
   d413a:	f9b4 1004 	ldrsh.w	r1, [r4, #4]
   d413e:	f7ff ffc3 	bl	d40c8 <_ZN5Print5printIsLi0EEEjT_i.part.0>
   d4142:	f003 fc47 	bl	d79d4 <_Z16_fetch_usbserialv>
   d4146:	4629      	mov	r1, r5
   d4148:	f003 f968 	bl	d741c <_ZN5Print5printEPKc>

    Serial.print("\nGyro: ");
   d414c:	f003 fc42 	bl	d79d4 <_Z16_fetch_usbserialv>
   d4150:	4936      	ldr	r1, [pc, #216]	; (d422c <_Z20displaySensorOffsetsRK25adafruit_bno055_offsets_t+0x138>)
   d4152:	f003 f963 	bl	d741c <_ZN5Print5printEPKc>
    Serial.print(calibData.gyro_offset_x); Serial.print(" ");
   d4156:	f003 fc3d 	bl	d79d4 <_Z16_fetch_usbserialv>
   d415a:	220a      	movs	r2, #10
   d415c:	f9b4 100c 	ldrsh.w	r1, [r4, #12]
   d4160:	f7ff ffb2 	bl	d40c8 <_ZN5Print5printIsLi0EEEjT_i.part.0>
   d4164:	f003 fc36 	bl	d79d4 <_Z16_fetch_usbserialv>
   d4168:	4629      	mov	r1, r5
   d416a:	f003 f957 	bl	d741c <_ZN5Print5printEPKc>
    Serial.print(calibData.gyro_offset_y); Serial.print(" ");
   d416e:	f003 fc31 	bl	d79d4 <_Z16_fetch_usbserialv>
   d4172:	220a      	movs	r2, #10
   d4174:	f9b4 100e 	ldrsh.w	r1, [r4, #14]
   d4178:	f7ff ffa6 	bl	d40c8 <_ZN5Print5printIsLi0EEEjT_i.part.0>
   d417c:	f003 fc2a 	bl	d79d4 <_Z16_fetch_usbserialv>
   d4180:	4629      	mov	r1, r5
   d4182:	f003 f94b 	bl	d741c <_ZN5Print5printEPKc>
    Serial.print(calibData.gyro_offset_z); Serial.print(" ");
   d4186:	f003 fc25 	bl	d79d4 <_Z16_fetch_usbserialv>
   d418a:	220a      	movs	r2, #10
   d418c:	f9b4 1010 	ldrsh.w	r1, [r4, #16]
   d4190:	f7ff ff9a 	bl	d40c8 <_ZN5Print5printIsLi0EEEjT_i.part.0>
   d4194:	f003 fc1e 	bl	d79d4 <_Z16_fetch_usbserialv>
   d4198:	4629      	mov	r1, r5
   d419a:	f003 f93f 	bl	d741c <_ZN5Print5printEPKc>

    Serial.print("\nMag: ");
   d419e:	f003 fc19 	bl	d79d4 <_Z16_fetch_usbserialv>
   d41a2:	4923      	ldr	r1, [pc, #140]	; (d4230 <_Z20displaySensorOffsetsRK25adafruit_bno055_offsets_t+0x13c>)
   d41a4:	f003 f93a 	bl	d741c <_ZN5Print5printEPKc>
    Serial.print(calibData.mag_offset_x); Serial.print(" ");
   d41a8:	f003 fc14 	bl	d79d4 <_Z16_fetch_usbserialv>
   d41ac:	220a      	movs	r2, #10
   d41ae:	f9b4 1006 	ldrsh.w	r1, [r4, #6]
   d41b2:	f7ff ff89 	bl	d40c8 <_ZN5Print5printIsLi0EEEjT_i.part.0>
   d41b6:	f003 fc0d 	bl	d79d4 <_Z16_fetch_usbserialv>
   d41ba:	4629      	mov	r1, r5
   d41bc:	f003 f92e 	bl	d741c <_ZN5Print5printEPKc>
    Serial.print(calibData.mag_offset_y); Serial.print(" ");
   d41c0:	f003 fc08 	bl	d79d4 <_Z16_fetch_usbserialv>
   d41c4:	220a      	movs	r2, #10
   d41c6:	f9b4 1008 	ldrsh.w	r1, [r4, #8]
   d41ca:	f7ff ff7d 	bl	d40c8 <_ZN5Print5printIsLi0EEEjT_i.part.0>
   d41ce:	f003 fc01 	bl	d79d4 <_Z16_fetch_usbserialv>
   d41d2:	4629      	mov	r1, r5
   d41d4:	f003 f922 	bl	d741c <_ZN5Print5printEPKc>
    Serial.print(calibData.mag_offset_z); Serial.print(" ");
   d41d8:	f003 fbfc 	bl	d79d4 <_Z16_fetch_usbserialv>
   d41dc:	220a      	movs	r2, #10
   d41de:	f9b4 100a 	ldrsh.w	r1, [r4, #10]
   d41e2:	f7ff ff71 	bl	d40c8 <_ZN5Print5printIsLi0EEEjT_i.part.0>
   d41e6:	f003 fbf5 	bl	d79d4 <_Z16_fetch_usbserialv>
   d41ea:	4629      	mov	r1, r5
   d41ec:	f003 f916 	bl	d741c <_ZN5Print5printEPKc>

    Serial.print("\nAccel Radius: ");
   d41f0:	f003 fbf0 	bl	d79d4 <_Z16_fetch_usbserialv>
   d41f4:	490f      	ldr	r1, [pc, #60]	; (d4234 <_Z20displaySensorOffsetsRK25adafruit_bno055_offsets_t+0x140>)
   d41f6:	f003 f911 	bl	d741c <_ZN5Print5printEPKc>
    Serial.print(calibData.accel_radius);
   d41fa:	f003 fbeb 	bl	d79d4 <_Z16_fetch_usbserialv>
   d41fe:	220a      	movs	r2, #10
   d4200:	f9b4 1012 	ldrsh.w	r1, [r4, #18]
   d4204:	f7ff ff60 	bl	d40c8 <_ZN5Print5printIsLi0EEEjT_i.part.0>

    Serial.print("\nMag Radius: ");
   d4208:	f003 fbe4 	bl	d79d4 <_Z16_fetch_usbserialv>
   d420c:	490a      	ldr	r1, [pc, #40]	; (d4238 <_Z20displaySensorOffsetsRK25adafruit_bno055_offsets_t+0x144>)
   d420e:	f003 f905 	bl	d741c <_ZN5Print5printEPKc>
    Serial.print(calibData.mag_radius);
   d4212:	f003 fbdf 	bl	d79d4 <_Z16_fetch_usbserialv>
   d4216:	f9b4 1014 	ldrsh.w	r1, [r4, #20]
   d421a:	220a      	movs	r2, #10
}
   d421c:	e8bd 4038 	ldmia.w	sp!, {r3, r4, r5, lr}
   d4220:	f7ff bf52 	b.w	d40c8 <_ZN5Print5printIsLi0EEEjT_i.part.0>
   d4224:	000da499 	.word	0x000da499
   d4228:	000da3e0 	.word	0x000da3e0
   d422c:	000da3f0 	.word	0x000da3f0
   d4230:	000da3f8 	.word	0x000da3f8
   d4234:	000da3ff 	.word	0x000da3ff
   d4238:	000da40f 	.word	0x000da40f

000d423c <_Z11printValuesv>:

void printValues() {
   d423c:	b538      	push	{r3, r4, r5, lr}
    Serial.print("Temperature = ");
   d423e:	f003 fbc9 	bl	d79d4 <_Z16_fetch_usbserialv>
   d4242:	4936      	ldr	r1, [pc, #216]	; (d431c <_Z11printValuesv+0xe0>)
    Serial.print(bme.readTemperature()*1.8F + 32.);
   d4244:	4c36      	ldr	r4, [pc, #216]	; (d4320 <_Z11printValuesv+0xe4>)
    Serial.print("Temperature = ");
   d4246:	f003 f8e9 	bl	d741c <_ZN5Print5printEPKc>
    Serial.print(bme.readTemperature()*1.8F + 32.);
   d424a:	f003 fbc3 	bl	d79d4 <_Z16_fetch_usbserialv>
   d424e:	4605      	mov	r5, r0
   d4250:	4620      	mov	r0, r4
   d4252:	f000 fdd9 	bl	d4e08 <_ZN15Adafruit_BME28015readTemperatureEv>
   d4256:	eddf 7a33 	vldr	s15, [pc, #204]	; d4324 <_Z11printValuesv+0xe8>
   d425a:	ee60 7a27 	vmul.f32	s15, s0, s15
   d425e:	ee17 0a90 	vmov	r0, s15
   d4262:	f005 f98f 	bl	d9584 <__aeabi_f2d>
   d4266:	4b30      	ldr	r3, [pc, #192]	; (d4328 <_Z11printValuesv+0xec>)
   d4268:	2200      	movs	r2, #0
   d426a:	f005 f82d 	bl	d92c8 <__adddf3>
   d426e:	ec41 0b10 	vmov	d0, r0, r1
   d4272:	2102      	movs	r1, #2
   d4274:	4628      	mov	r0, r5
   d4276:	f003 f9ea 	bl	d764e <_ZN5Print5printEdi>
    Serial.println(" F");
   d427a:	f003 fbab 	bl	d79d4 <_Z16_fetch_usbserialv>
   d427e:	492b      	ldr	r1, [pc, #172]	; (d432c <_Z11printValuesv+0xf0>)
   d4280:	f003 f8e3 	bl	d744a <_ZN5Print7printlnEPKc>

    Serial.print("Pressure = ");
   d4284:	f003 fba6 	bl	d79d4 <_Z16_fetch_usbserialv>
   d4288:	4929      	ldr	r1, [pc, #164]	; (d4330 <_Z11printValuesv+0xf4>)
   d428a:	f003 f8c7 	bl	d741c <_ZN5Print5printEPKc>

    Serial.print(bme.readPressure() / 101325.0F * 760.0F);
   d428e:	f003 fba1 	bl	d79d4 <_Z16_fetch_usbserialv>
   d4292:	4605      	mov	r5, r0
   d4294:	4620      	mov	r0, r4
   d4296:	f000 fde5 	bl	d4e64 <_ZN15Adafruit_BME28012readPressureEv>
   d429a:	eddf 7a26 	vldr	s15, [pc, #152]	; d4334 <_Z11printValuesv+0xf8>
   d429e:	ee80 7a27 	vdiv.f32	s14, s0, s15
   d42a2:	2102      	movs	r1, #2
   d42a4:	4628      	mov	r0, r5
   d42a6:	ed9f 0a24 	vldr	s0, [pc, #144]	; d4338 <_Z11printValuesv+0xfc>
   d42aa:	ee27 0a00 	vmul.f32	s0, s14, s0
   d42ae:	f003 f9bf 	bl	d7630 <_ZN5Print5printEfi>
    Serial.println(" mmHg");
   d42b2:	f003 fb8f 	bl	d79d4 <_Z16_fetch_usbserialv>
   d42b6:	4921      	ldr	r1, [pc, #132]	; (d433c <_Z11printValuesv+0x100>)
   d42b8:	f003 f8c7 	bl	d744a <_ZN5Print7printlnEPKc>

    Serial.print("Approx. Altitude = ");
   d42bc:	f003 fb8a 	bl	d79d4 <_Z16_fetch_usbserialv>
   d42c0:	491f      	ldr	r1, [pc, #124]	; (d4340 <_Z11printValuesv+0x104>)
   d42c2:	f003 f8ab 	bl	d741c <_ZN5Print5printEPKc>
    Serial.print(bme.readAltitude(SEALEVELPRESSURE_HPA));
   d42c6:	f003 fb85 	bl	d79d4 <_Z16_fetch_usbserialv>
   d42ca:	ed9f 0a1e 	vldr	s0, [pc, #120]	; d4344 <_Z11printValuesv+0x108>
   d42ce:	4605      	mov	r5, r0
   d42d0:	4620      	mov	r0, r4
   d42d2:	f000 fea1 	bl	d5018 <_ZN15Adafruit_BME28012readAltitudeEf>
   d42d6:	2102      	movs	r1, #2
   d42d8:	4628      	mov	r0, r5
   d42da:	f003 f9a9 	bl	d7630 <_ZN5Print5printEfi>
    Serial.println(" m");
   d42de:	f003 fb79 	bl	d79d4 <_Z16_fetch_usbserialv>
   d42e2:	4919      	ldr	r1, [pc, #100]	; (d4348 <_Z11printValuesv+0x10c>)
   d42e4:	f003 f8b1 	bl	d744a <_ZN5Print7printlnEPKc>

    Serial.print("Humidity = ");
   d42e8:	f003 fb74 	bl	d79d4 <_Z16_fetch_usbserialv>
   d42ec:	4917      	ldr	r1, [pc, #92]	; (d434c <_Z11printValuesv+0x110>)
   d42ee:	f003 f895 	bl	d741c <_ZN5Print5printEPKc>

    Serial.print(bme.readHumidity());
   d42f2:	f003 fb6f 	bl	d79d4 <_Z16_fetch_usbserialv>
   d42f6:	4605      	mov	r5, r0
   d42f8:	4620      	mov	r0, r4
   d42fa:	f000 ff2d 	bl	d5158 <_ZN15Adafruit_BME28012readHumidityEv>
   d42fe:	2102      	movs	r1, #2
   d4300:	4628      	mov	r0, r5
   d4302:	f003 f995 	bl	d7630 <_ZN5Print5printEfi>
    Serial.println(" %");
   d4306:	f003 fb65 	bl	d79d4 <_Z16_fetch_usbserialv>
   d430a:	4911      	ldr	r1, [pc, #68]	; (d4350 <_Z11printValuesv+0x114>)
   d430c:	f003 f89d 	bl	d744a <_ZN5Print7printlnEPKc>

    Serial.println();
   d4310:	f003 fb60 	bl	d79d4 <_Z16_fetch_usbserialv>
}
   d4314:	e8bd 4038 	ldmia.w	sp!, {r3, r4, r5, lr}
    Serial.println();
   d4318:	f003 b88b 	b.w	d7432 <_ZN5Print7printlnEv>
   d431c:	000da41d 	.word	0x000da41d
   d4320:	2003e4c0 	.word	0x2003e4c0
   d4324:	3fe66666 	.word	0x3fe66666
   d4328:	40400000 	.word	0x40400000
   d432c:	000da42c 	.word	0x000da42c
   d4330:	000da42f 	.word	0x000da42f
   d4334:	47c5e680 	.word	0x47c5e680
   d4338:	443e0000 	.word	0x443e0000
   d433c:	000da43b 	.word	0x000da43b
   d4340:	000da441 	.word	0x000da441
   d4344:	447d5000 	.word	0x447d5000
   d4348:	000da455 	.word	0x000da455
   d434c:	000da458 	.word	0x000da458
   d4350:	000da464 	.word	0x000da464

000d4354 <_Z20displaySensorDetailsv>:
    Displays some basic information on this sensor from the unified
    sensor API sensor_t type (see Adafruit_Sensor for more information)
*/
/**************************************************************************/
void displaySensorDetails(void)
{
   d4354:	b530      	push	{r4, r5, lr}
   d4356:	b08b      	sub	sp, #44	; 0x2c
  sensor_t sensor;
  bno.getSensor(&sensor);
   d4358:	4669      	mov	r1, sp
   d435a:	4842      	ldr	r0, [pc, #264]	; (d4464 <_Z20displaySensorDetailsv+0x110>)
   d435c:	f001 fafa 	bl	d5954 <_ZN15Adafruit_BNO0559getSensorEP8sensor_t>
  Serial.println("------------------------------------");
   d4360:	f003 fb38 	bl	d79d4 <_Z16_fetch_usbserialv>
   d4364:	4940      	ldr	r1, [pc, #256]	; (d4468 <_Z20displaySensorDetailsv+0x114>)
   d4366:	f003 f870 	bl	d744a <_ZN5Print7printlnEPKc>
  Serial.print  ("Sensor:       "); Serial.println(sensor.name);
   d436a:	f003 fb33 	bl	d79d4 <_Z16_fetch_usbserialv>
   d436e:	493f      	ldr	r1, [pc, #252]	; (d446c <_Z20displaySensorDetailsv+0x118>)
   d4370:	f003 f854 	bl	d741c <_ZN5Print5printEPKc>
   d4374:	f003 fb2e 	bl	d79d4 <_Z16_fetch_usbserialv>
   d4378:	4669      	mov	r1, sp
   d437a:	f003 f866 	bl	d744a <_ZN5Print7printlnEPKc>
  Serial.print  ("Driver Ver:   "); Serial.println(sensor.version);
   d437e:	f003 fb29 	bl	d79d4 <_Z16_fetch_usbserialv>
   d4382:	493b      	ldr	r1, [pc, #236]	; (d4470 <_Z20displaySensorDetailsv+0x11c>)
   d4384:	f003 f84a 	bl	d741c <_ZN5Print5printEPKc>
   d4388:	f003 fb24 	bl	d79d4 <_Z16_fetch_usbserialv>
   d438c:	9c03      	ldr	r4, [sp, #12]
        if (n < 0 && base == 10) {
   d438e:	2c00      	cmp	r4, #0
   d4390:	4605      	mov	r5, r0
   d4392:	da63      	bge.n	d445c <_Z20displaySensorDetailsv+0x108>
            t = print('-');
   d4394:	212d      	movs	r1, #45	; 0x2d
   d4396:	f003 f845 	bl	d7424 <_ZN5Print5printEc>
            val = -n;
   d439a:	4261      	negs	r1, r4
        return printNumber(val, base) + t;
   d439c:	220a      	movs	r2, #10
   d439e:	4628      	mov	r0, r5
   d43a0:	f003 f85f 	bl	d7462 <_ZN5Print11printNumberEmh>
        n += println();
   d43a4:	4628      	mov	r0, r5
   d43a6:	f003 f844 	bl	d7432 <_ZN5Print7printlnEv>
  Serial.print  ("Unique ID:    "); Serial.println(sensor.sensor_id);
   d43aa:	f003 fb13 	bl	d79d4 <_Z16_fetch_usbserialv>
   d43ae:	4931      	ldr	r1, [pc, #196]	; (d4474 <_Z20displaySensorDetailsv+0x120>)
   d43b0:	f003 f834 	bl	d741c <_ZN5Print5printEPKc>
   d43b4:	f003 fb0e 	bl	d79d4 <_Z16_fetch_usbserialv>
   d43b8:	9c04      	ldr	r4, [sp, #16]
        if (n < 0 && base == 10) {
   d43ba:	2c00      	cmp	r4, #0
   d43bc:	4605      	mov	r5, r0
   d43be:	da4f      	bge.n	d4460 <_Z20displaySensorDetailsv+0x10c>
            t = print('-');
   d43c0:	212d      	movs	r1, #45	; 0x2d
   d43c2:	f003 f82f 	bl	d7424 <_ZN5Print5printEc>
            val = -n;
   d43c6:	4261      	negs	r1, r4
        return printNumber(val, base) + t;
   d43c8:	220a      	movs	r2, #10
   d43ca:	4628      	mov	r0, r5
   d43cc:	f003 f849 	bl	d7462 <_ZN5Print11printNumberEmh>
        n += println();
   d43d0:	4628      	mov	r0, r5
   d43d2:	f003 f82e 	bl	d7432 <_ZN5Print7printlnEv>
  Serial.print  ("Max Value:    "); Serial.print(sensor.max_value); Serial.println(" xxx");
   d43d6:	f003 fafd 	bl	d79d4 <_Z16_fetch_usbserialv>
   d43da:	4927      	ldr	r1, [pc, #156]	; (d4478 <_Z20displaySensorDetailsv+0x124>)
   d43dc:	f003 f81e 	bl	d741c <_ZN5Print5printEPKc>
   d43e0:	f003 faf8 	bl	d79d4 <_Z16_fetch_usbserialv>
   d43e4:	ed9d 0a06 	vldr	s0, [sp, #24]
   d43e8:	2102      	movs	r1, #2
   d43ea:	f003 f921 	bl	d7630 <_ZN5Print5printEfi>
   d43ee:	f003 faf1 	bl	d79d4 <_Z16_fetch_usbserialv>
   d43f2:	4922      	ldr	r1, [pc, #136]	; (d447c <_Z20displaySensorDetailsv+0x128>)
   d43f4:	f003 f829 	bl	d744a <_ZN5Print7printlnEPKc>
  Serial.print  ("Min Value:    "); Serial.print(sensor.min_value); Serial.println(" xxx");
   d43f8:	f003 faec 	bl	d79d4 <_Z16_fetch_usbserialv>
   d43fc:	4920      	ldr	r1, [pc, #128]	; (d4480 <_Z20displaySensorDetailsv+0x12c>)
   d43fe:	f003 f80d 	bl	d741c <_ZN5Print5printEPKc>
   d4402:	f003 fae7 	bl	d79d4 <_Z16_fetch_usbserialv>
   d4406:	ed9d 0a07 	vldr	s0, [sp, #28]
   d440a:	2102      	movs	r1, #2
   d440c:	f003 f910 	bl	d7630 <_ZN5Print5printEfi>
   d4410:	f003 fae0 	bl	d79d4 <_Z16_fetch_usbserialv>
   d4414:	4919      	ldr	r1, [pc, #100]	; (d447c <_Z20displaySensorDetailsv+0x128>)
   d4416:	f003 f818 	bl	d744a <_ZN5Print7printlnEPKc>
  Serial.print  ("Resolution:   "); Serial.print(sensor.resolution); Serial.println(" xxx");
   d441a:	f003 fadb 	bl	d79d4 <_Z16_fetch_usbserialv>
   d441e:	4919      	ldr	r1, [pc, #100]	; (d4484 <_Z20displaySensorDetailsv+0x130>)
   d4420:	f002 fffc 	bl	d741c <_ZN5Print5printEPKc>
   d4424:	f003 fad6 	bl	d79d4 <_Z16_fetch_usbserialv>
   d4428:	ed9d 0a08 	vldr	s0, [sp, #32]
   d442c:	2102      	movs	r1, #2
   d442e:	f003 f8ff 	bl	d7630 <_ZN5Print5printEfi>
   d4432:	f003 facf 	bl	d79d4 <_Z16_fetch_usbserialv>
   d4436:	4911      	ldr	r1, [pc, #68]	; (d447c <_Z20displaySensorDetailsv+0x128>)
   d4438:	f003 f807 	bl	d744a <_ZN5Print7printlnEPKc>
  Serial.println("------------------------------------");
   d443c:	f003 faca 	bl	d79d4 <_Z16_fetch_usbserialv>
   d4440:	4909      	ldr	r1, [pc, #36]	; (d4468 <_Z20displaySensorDetailsv+0x114>)
   d4442:	f003 f802 	bl	d744a <_ZN5Print7printlnEPKc>
  Serial.println("");
   d4446:	f003 fac5 	bl	d79d4 <_Z16_fetch_usbserialv>
   d444a:	490f      	ldr	r1, [pc, #60]	; (d4488 <_Z20displaySensorDetailsv+0x134>)
   d444c:	f002 fffd 	bl	d744a <_ZN5Print7printlnEPKc>
  delay(500);
   d4450:	f44f 70fa 	mov.w	r0, #500	; 0x1f4
   d4454:	f003 f942 	bl	d76dc <delay>
   d4458:	b00b      	add	sp, #44	; 0x2c
   d445a:	bd30      	pop	{r4, r5, pc}
            val = n;
   d445c:	4621      	mov	r1, r4
   d445e:	e79d      	b.n	d439c <_Z20displaySensorDetailsv+0x48>
   d4460:	4621      	mov	r1, r4
   d4462:	e7b1      	b.n	d43c8 <_Z20displaySensorDetailsv+0x74>
   d4464:	2003e504 	.word	0x2003e504
   d4468:	000da467 	.word	0x000da467
   d446c:	000da48c 	.word	0x000da48c
   d4470:	000da49b 	.word	0x000da49b
   d4474:	000da4aa 	.word	0x000da4aa
   d4478:	000da4b9 	.word	0x000da4b9
   d447c:	000da4c8 	.word	0x000da4c8
   d4480:	000da4cd 	.word	0x000da4cd
   d4484:	000da4dc 	.word	0x000da4dc
   d4488:	000da556 	.word	0x000da556

000d448c <_GLOBAL__sub_I_bme>:
   d448c:	b51f      	push	{r0, r1, r2, r3, r4, lr}
Adafruit_BME280 bme; // I2C
   d448e:	480e      	ldr	r0, [pc, #56]	; (d44c8 <_GLOBAL__sub_I_bme+0x3c>)
   d4490:	f000 fbe6 	bl	d4c60 <_ZN15Adafruit_BME280C1Ev>
Adafruit_SH1107 display = Adafruit_SH1107(64, 128, &Wire);
   d4494:	f003 fd4c 	bl	d7f30 <_Z19__fetch_global_Wirev>
   d4498:	4a0c      	ldr	r2, [pc, #48]	; (d44cc <_GLOBAL__sub_I_bme+0x40>)
   d449a:	490d      	ldr	r1, [pc, #52]	; (d44d0 <_GLOBAL__sub_I_bme+0x44>)
   d449c:	e9cd 2101 	strd	r2, r1, [sp, #4]
   d44a0:	f04f 32ff 	mov.w	r2, #4294967295
   d44a4:	4603      	mov	r3, r0
   d44a6:	9200      	str	r2, [sp, #0]
   d44a8:	2140      	movs	r1, #64	; 0x40
   d44aa:	2280      	movs	r2, #128	; 0x80
   d44ac:	4809      	ldr	r0, [pc, #36]	; (d44d4 <_GLOBAL__sub_I_bme+0x48>)
   d44ae:	f002 fba1 	bl	d6bf4 <_ZN15Adafruit_SH1107C1EttP7TwoWireamm>
Adafruit_BNO055 bno = Adafruit_BNO055(55, 0x28);
   d44b2:	f003 fd3d 	bl	d7f30 <_Z19__fetch_global_Wirev>
   d44b6:	4603      	mov	r3, r0
   d44b8:	4807      	ldr	r0, [pc, #28]	; (d44d8 <_GLOBAL__sub_I_bme+0x4c>)
   d44ba:	2228      	movs	r2, #40	; 0x28
   d44bc:	2137      	movs	r1, #55	; 0x37
   d44be:	b005      	add	sp, #20
   d44c0:	f85d eb04 	ldr.w	lr, [sp], #4
Adafruit_BNO055 bno = Adafruit_BNO055(55, 0x28);
   d44c4:	f001 ba6e 	b.w	d59a4 <_ZN15Adafruit_BNO055C1ElhP7TwoWire>
   d44c8:	2003e4c0 	.word	0x2003e4c0
   d44cc:	00061a80 	.word	0x00061a80
   d44d0:	000186a0 	.word	0x000186a0
   d44d4:	2003e520 	.word	0x2003e520
   d44d8:	2003e504 	.word	0x2003e504

000d44dc <_Z13displayValuesv>:
void displayValues() {
   d44dc:	b538      	push	{r3, r4, r5, lr}
    display.clearDisplay();
   d44de:	4c3d      	ldr	r4, [pc, #244]	; (d45d4 <_Z13displayValuesv+0xf8>)
    display.print(bme.readTemperature()*1.8F + 32.);
   d44e0:	4d3d      	ldr	r5, [pc, #244]	; (d45d8 <_Z13displayValuesv+0xfc>)
    display.clearDisplay();
   d44e2:	4620      	mov	r0, r4
   d44e4:	f001 fe30 	bl	d6148 <_ZN17Adafruit_GrayOLED12clearDisplayEv>
  display.display();
   d44e8:	4620      	mov	r0, r4
   d44ea:	f002 faa0 	bl	d6a2e <_ZN15Adafruit_SH110X7displayEv>
    @param  x    X coordinate in pixels
    @param  y    Y coordinate in pixels
  */
  /**********************************************************************/
  void setCursor(int16_t x, int16_t y) {
    cursor_x = x;
   d44ee:	2300      	movs	r3, #0
    display.print("Temp. = ");
   d44f0:	493a      	ldr	r1, [pc, #232]	; (d45dc <_Z13displayValuesv+0x100>)
   d44f2:	6123      	str	r3, [r4, #16]
   d44f4:	4620      	mov	r0, r4
   d44f6:	f002 ff91 	bl	d741c <_ZN5Print5printEPKc>
    display.print(bme.readTemperature()*1.8F + 32.);
   d44fa:	4628      	mov	r0, r5
   d44fc:	f000 fc84 	bl	d4e08 <_ZN15Adafruit_BME28015readTemperatureEv>
   d4500:	eddf 7a37 	vldr	s15, [pc, #220]	; d45e0 <_Z13displayValuesv+0x104>
   d4504:	ee60 7a27 	vmul.f32	s15, s0, s15
   d4508:	ee17 0a90 	vmov	r0, s15
   d450c:	f005 f83a 	bl	d9584 <__aeabi_f2d>
   d4510:	4b34      	ldr	r3, [pc, #208]	; (d45e4 <_Z13displayValuesv+0x108>)
   d4512:	2200      	movs	r2, #0
   d4514:	f004 fed8 	bl	d92c8 <__adddf3>
   d4518:	ec41 0b10 	vmov	d0, r0, r1
   d451c:	2102      	movs	r1, #2
   d451e:	4620      	mov	r0, r4
   d4520:	f003 f895 	bl	d764e <_ZN5Print5printEdi>
    display.println(" °F");
   d4524:	4930      	ldr	r1, [pc, #192]	; (d45e8 <_Z13displayValuesv+0x10c>)
   d4526:	4620      	mov	r0, r4
   d4528:	f002 ff8f 	bl	d744a <_ZN5Print7printlnEPKc>
    display.print("Press. = ");
   d452c:	492f      	ldr	r1, [pc, #188]	; (d45ec <_Z13displayValuesv+0x110>)
   d452e:	4620      	mov	r0, r4
   d4530:	f002 ff74 	bl	d741c <_ZN5Print5printEPKc>
    display.print(bme.readPressure() / 101325.0F * 760.0F);
   d4534:	4628      	mov	r0, r5
   d4536:	f000 fc95 	bl	d4e64 <_ZN15Adafruit_BME28012readPressureEv>
   d453a:	eddf 7a2d 	vldr	s15, [pc, #180]	; d45f0 <_Z13displayValuesv+0x114>
   d453e:	ee80 7a27 	vdiv.f32	s14, s0, s15
   d4542:	2102      	movs	r1, #2
   d4544:	4620      	mov	r0, r4
   d4546:	ed9f 0a2b 	vldr	s0, [pc, #172]	; d45f4 <_Z13displayValuesv+0x118>
   d454a:	ee27 0a00 	vmul.f32	s0, s14, s0
   d454e:	f003 f86f 	bl	d7630 <_ZN5Print5printEfi>
    display.println(" mmHg");
   d4552:	4929      	ldr	r1, [pc, #164]	; (d45f8 <_Z13displayValuesv+0x11c>)
   d4554:	4620      	mov	r0, r4
   d4556:	f002 ff78 	bl	d744a <_ZN5Print7printlnEPKc>
    display.print("Altitude = ");
   d455a:	4928      	ldr	r1, [pc, #160]	; (d45fc <_Z13displayValuesv+0x120>)
   d455c:	4620      	mov	r0, r4
   d455e:	f002 ff5d 	bl	d741c <_ZN5Print5printEPKc>
    display.print(bme.readAltitude(SEALEVELPRESSURE_HPA));
   d4562:	4628      	mov	r0, r5
   d4564:	ed9f 0a26 	vldr	s0, [pc, #152]	; d4600 <_Z13displayValuesv+0x124>
   d4568:	f000 fd56 	bl	d5018 <_ZN15Adafruit_BME28012readAltitudeEf>
   d456c:	2102      	movs	r1, #2
   d456e:	4620      	mov	r0, r4
   d4570:	f003 f85e 	bl	d7630 <_ZN5Print5printEfi>
    display.println(" m");
   d4574:	4923      	ldr	r1, [pc, #140]	; (d4604 <_Z13displayValuesv+0x128>)
   d4576:	4620      	mov	r0, r4
   d4578:	f002 ff67 	bl	d744a <_ZN5Print7printlnEPKc>
    display.print("Humidity = ");
   d457c:	4922      	ldr	r1, [pc, #136]	; (d4608 <_Z13displayValuesv+0x12c>)
   d457e:	4620      	mov	r0, r4
   d4580:	f002 ff4c 	bl	d741c <_ZN5Print5printEPKc>
    display.print(bme.readHumidity());
   d4584:	4628      	mov	r0, r5
   d4586:	f000 fde7 	bl	d5158 <_ZN15Adafruit_BME28012readHumidityEv>
   d458a:	2102      	movs	r1, #2
   d458c:	4620      	mov	r0, r4
   d458e:	f003 f84f 	bl	d7630 <_ZN5Print5printEfi>
    display.println(" %");
   d4592:	491e      	ldr	r1, [pc, #120]	; (d460c <_Z13displayValuesv+0x130>)
   d4594:	4620      	mov	r0, r4
   d4596:	f002 ff58 	bl	d744a <_ZN5Print7printlnEPKc>
    Serial.println();
   d459a:	f003 fa1b 	bl	d79d4 <_Z16_fetch_usbserialv>
   d459e:	f002 ff48 	bl	d7432 <_ZN5Print7printlnEv>
    display.println("Marrie is great!");
   d45a2:	491b      	ldr	r1, [pc, #108]	; (d4610 <_Z13displayValuesv+0x134>)
   d45a4:	4620      	mov	r0, r4
   d45a6:	f002 ff50 	bl	d744a <_ZN5Print7printlnEPKc>
    Serial.println();
   d45aa:	f003 fa13 	bl	d79d4 <_Z16_fetch_usbserialv>
   d45ae:	f002 ff40 	bl	d7432 <_ZN5Print7printlnEv>
    display.print("Compass heading");
   d45b2:	4918      	ldr	r1, [pc, #96]	; (d4614 <_Z13displayValuesv+0x138>)
   d45b4:	4620      	mov	r0, r4
   d45b6:	f002 ff31 	bl	d741c <_ZN5Print5printEPKc>
    display.print(compass_heading);
   d45ba:	4b17      	ldr	r3, [pc, #92]	; (d4618 <_Z13displayValuesv+0x13c>)
   d45bc:	4620      	mov	r0, r4
   d45be:	ed93 0a00 	vldr	s0, [r3]
   d45c2:	2102      	movs	r1, #2
   d45c4:	f003 f834 	bl	d7630 <_ZN5Print5printEfi>
  display.display(); // actually display all of the above
   d45c8:	4620      	mov	r0, r4
  }
   d45ca:	e8bd 4038 	ldmia.w	sp!, {r3, r4, r5, lr}
  display.display(); // actually display all of the above
   d45ce:	f002 ba2e 	b.w	d6a2e <_ZN15Adafruit_SH110X7displayEv>
   d45d2:	bf00      	nop
   d45d4:	2003e520 	.word	0x2003e520
   d45d8:	2003e4c0 	.word	0x2003e4c0
   d45dc:	000da4eb 	.word	0x000da4eb
   d45e0:	3fe66666 	.word	0x3fe66666
   d45e4:	40400000 	.word	0x40400000
   d45e8:	000da4f4 	.word	0x000da4f4
   d45ec:	000da4f9 	.word	0x000da4f9
   d45f0:	47c5e680 	.word	0x47c5e680
   d45f4:	443e0000 	.word	0x443e0000
   d45f8:	000da43b 	.word	0x000da43b
   d45fc:	000da449 	.word	0x000da449
   d4600:	447d5000 	.word	0x447d5000
   d4604:	000da455 	.word	0x000da455
   d4608:	000da458 	.word	0x000da458
   d460c:	000da464 	.word	0x000da464
   d4610:	000da503 	.word	0x000da503
   d4614:	000da514 	.word	0x000da514
   d4618:	2003e518 	.word	0x2003e518
   d461c:	00000000 	.word	0x00000000

000d4620 <loop>:
void loop(void) {
   d4620:	b510      	push	{r4, lr}
   d4622:	ed2d 8b02 	vpush	{d8}
   d4626:	b09c      	sub	sp, #112	; 0x70
  bno.getEvent(&event);
   d4628:	a913      	add	r1, sp, #76	; 0x4c
   d462a:	48af      	ldr	r0, [pc, #700]	; (d48e8 <loop+0x2c8>)
   d462c:	f001 fc3e 	bl	d5eac <_ZN15Adafruit_BNO0558getEventEP15sensors_event_t>
printValues();
   d4630:	f7ff fe04 	bl	d423c <_Z11printValuesv>
  displayValues();
   d4634:	f7ff ff52 	bl	d44dc <_Z13displayValuesv>
  delay(delayTime);
   d4638:	4bac      	ldr	r3, [pc, #688]	; (d48ec <loop+0x2cc>)
   d463a:	6818      	ldr	r0, [r3, #0]
   d463c:	f003 f84e 	bl	d76dc <delay>
  if(!digitalRead(BUTTON_A)) display.print("A");
   d4640:	2004      	movs	r0, #4
   d4642:	f003 fc49 	bl	d7ed8 <digitalRead>
   d4646:	b918      	cbnz	r0, d4650 <loop+0x30>
   d4648:	49a9      	ldr	r1, [pc, #676]	; (d48f0 <loop+0x2d0>)
   d464a:	48aa      	ldr	r0, [pc, #680]	; (d48f4 <loop+0x2d4>)
   d464c:	f002 fee6 	bl	d741c <_ZN5Print5printEPKc>
  if(!digitalRead(BUTTON_B)) display.print("B");
   d4650:	2003      	movs	r0, #3
   d4652:	f003 fc41 	bl	d7ed8 <digitalRead>
   d4656:	b918      	cbnz	r0, d4660 <loop+0x40>
   d4658:	49a7      	ldr	r1, [pc, #668]	; (d48f8 <loop+0x2d8>)
   d465a:	48a6      	ldr	r0, [pc, #664]	; (d48f4 <loop+0x2d4>)
   d465c:	f002 fede 	bl	d741c <_ZN5Print5printEPKc>
  if(!digitalRead(BUTTON_C)) display.print("C");
   d4660:	2002      	movs	r0, #2
   d4662:	f003 fc39 	bl	d7ed8 <digitalRead>
   d4666:	b918      	cbnz	r0, d4670 <loop+0x50>
   d4668:	49a4      	ldr	r1, [pc, #656]	; (d48fc <loop+0x2dc>)
   d466a:	48a2      	ldr	r0, [pc, #648]	; (d48f4 <loop+0x2d4>)
   d466c:	f002 fed6 	bl	d741c <_ZN5Print5printEPKc>
  delay(10);
   d4670:	200a      	movs	r0, #10
   d4672:	f003 f833 	bl	d76dc <delay>
#define digitalPinToInterrupt(P)      (P)
#endif

inline void yield() {
#if PLATFORM_THREADING
  os_thread_yield();
   d4676:	f002 fb8b 	bl	d6d90 <os_thread_yield>
  display.display();
   d467a:	489e      	ldr	r0, [pc, #632]	; (d48f4 <loop+0x2d4>)
  Serial.print(360 - (float)event.orientation.x);
   d467c:	ed9f 8aa0 	vldr	s16, [pc, #640]	; d4900 <loop+0x2e0>
  display.display();
   d4680:	f002 f9d5 	bl	d6a2e <_ZN15Adafruit_SH110X7displayEv>
  Serial.print(F("Orientation: "));
   d4684:	f003 f9a6 	bl	d79d4 <_Z16_fetch_usbserialv>
   d4688:	499e      	ldr	r1, [pc, #632]	; (d4904 <loop+0x2e4>)
   d468a:	f002 fece 	bl	d742a <_ZN5Print5printEPK19__FlashStringHelper>
  Serial.print(360 - (float)event.orientation.x);
   d468e:	f003 f9a1 	bl	d79d4 <_Z16_fetch_usbserialv>
   d4692:	ed9d 0a18 	vldr	s0, [sp, #96]	; 0x60
   d4696:	2102      	movs	r1, #2
   d4698:	ee38 0a40 	vsub.f32	s0, s16, s0
   d469c:	f002 ffc8 	bl	d7630 <_ZN5Print5printEfi>
  Serial.print(F(", "));
   d46a0:	f003 f998 	bl	d79d4 <_Z16_fetch_usbserialv>
   d46a4:	4998      	ldr	r1, [pc, #608]	; (d4908 <loop+0x2e8>)
   d46a6:	f002 fec0 	bl	d742a <_ZN5Print5printEPK19__FlashStringHelper>
  Serial.print((float)event.orientation.y);
   d46aa:	f003 f993 	bl	d79d4 <_Z16_fetch_usbserialv>
   d46ae:	ed9d 0a19 	vldr	s0, [sp, #100]	; 0x64
   d46b2:	2102      	movs	r1, #2
   d46b4:	f002 ffbc 	bl	d7630 <_ZN5Print5printEfi>
  Serial.print(F(", "));
   d46b8:	f003 f98c 	bl	d79d4 <_Z16_fetch_usbserialv>
   d46bc:	4992      	ldr	r1, [pc, #584]	; (d4908 <loop+0x2e8>)
   d46be:	f002 feb4 	bl	d742a <_ZN5Print5printEPK19__FlashStringHelper>
  Serial.print((float)event.orientation.z);
   d46c2:	f003 f987 	bl	d79d4 <_Z16_fetch_usbserialv>
   d46c6:	ed9d 0a1a 	vldr	s0, [sp, #104]	; 0x68
   d46ca:	2102      	movs	r1, #2
   d46cc:	f002 ffb0 	bl	d7630 <_ZN5Print5printEfi>
  Serial.println(F(""));
   d46d0:	f003 f980 	bl	d79d4 <_Z16_fetch_usbserialv>
   d46d4:	498d      	ldr	r1, [pc, #564]	; (d490c <loop+0x2ec>)
   d46d6:	f002 fec2 	bl	d745e <_ZN5Print7printlnEPK19__FlashStringHelper>
  imu::Quaternion quat = bno.getQuat();
   d46da:	4883      	ldr	r0, [pc, #524]	; (d48e8 <loop+0x2c8>)
   d46dc:	f001 fb1a 	bl	d5d14 <_ZN15Adafruit_BNO0557getQuatEv>
   d46e0:	ed8d 0b0a 	vstr	d0, [sp, #40]	; 0x28
   d46e4:	ed8d 1b0c 	vstr	d1, [sp, #48]	; 0x30
   d46e8:	ed8d 2b0e 	vstr	d2, [sp, #56]	; 0x38
   d46ec:	ed8d 3b10 	vstr	d3, [sp, #64]	; 0x40
  Serial.print(F("Quaternion: "));
   d46f0:	f003 f970 	bl	d79d4 <_Z16_fetch_usbserialv>
   d46f4:	4986      	ldr	r1, [pc, #536]	; (d4910 <loop+0x2f0>)
   d46f6:	f002 fe98 	bl	d742a <_ZN5Print5printEPK19__FlashStringHelper>
  Serial.print((float)quat.w());
   d46fa:	f003 f96b 	bl	d79d4 <_Z16_fetch_usbserialv>
   d46fe:	4604      	mov	r4, r0
   d4700:	e9dd 010a 	ldrd	r0, r1, [sp, #40]	; 0x28
   d4704:	f005 fa8e 	bl	d9c24 <__aeabi_d2f>
   d4708:	2102      	movs	r1, #2
   d470a:	ee00 0a10 	vmov	s0, r0
   d470e:	4620      	mov	r0, r4
   d4710:	f002 ff8e 	bl	d7630 <_ZN5Print5printEfi>
  Serial.print(F(", "));
   d4714:	f003 f95e 	bl	d79d4 <_Z16_fetch_usbserialv>
   d4718:	497b      	ldr	r1, [pc, #492]	; (d4908 <loop+0x2e8>)
   d471a:	f002 fe86 	bl	d742a <_ZN5Print5printEPK19__FlashStringHelper>
  Serial.print((float)quat.x());
   d471e:	f003 f959 	bl	d79d4 <_Z16_fetch_usbserialv>
   d4722:	4604      	mov	r4, r0
   d4724:	e9dd 010c 	ldrd	r0, r1, [sp, #48]	; 0x30
   d4728:	f005 fa7c 	bl	d9c24 <__aeabi_d2f>
   d472c:	2102      	movs	r1, #2
   d472e:	ee00 0a10 	vmov	s0, r0
   d4732:	4620      	mov	r0, r4
   d4734:	f002 ff7c 	bl	d7630 <_ZN5Print5printEfi>
  Serial.print(F(", "));
   d4738:	f003 f94c 	bl	d79d4 <_Z16_fetch_usbserialv>
   d473c:	4972      	ldr	r1, [pc, #456]	; (d4908 <loop+0x2e8>)
   d473e:	f002 fe74 	bl	d742a <_ZN5Print5printEPK19__FlashStringHelper>
  Serial.print((float)quat.y());
   d4742:	f003 f947 	bl	d79d4 <_Z16_fetch_usbserialv>
   d4746:	4604      	mov	r4, r0
   d4748:	e9dd 010e 	ldrd	r0, r1, [sp, #56]	; 0x38
   d474c:	f005 fa6a 	bl	d9c24 <__aeabi_d2f>
   d4750:	2102      	movs	r1, #2
   d4752:	ee00 0a10 	vmov	s0, r0
   d4756:	4620      	mov	r0, r4
   d4758:	f002 ff6a 	bl	d7630 <_ZN5Print5printEfi>
  Serial.print(F(", "));
   d475c:	f003 f93a 	bl	d79d4 <_Z16_fetch_usbserialv>
   d4760:	4969      	ldr	r1, [pc, #420]	; (d4908 <loop+0x2e8>)
   d4762:	f002 fe62 	bl	d742a <_ZN5Print5printEPK19__FlashStringHelper>
  Serial.print((float)quat.z());
   d4766:	f003 f935 	bl	d79d4 <_Z16_fetch_usbserialv>
   d476a:	4604      	mov	r4, r0
   d476c:	e9dd 0110 	ldrd	r0, r1, [sp, #64]	; 0x40
   d4770:	f005 fa58 	bl	d9c24 <__aeabi_d2f>
   d4774:	2102      	movs	r1, #2
   d4776:	ee00 0a10 	vmov	s0, r0
   d477a:	4620      	mov	r0, r4
   d477c:	f002 ff58 	bl	d7630 <_ZN5Print5printEfi>
  Serial.println(F(""));
   d4780:	f003 f928 	bl	d79d4 <_Z16_fetch_usbserialv>
   d4784:	4961      	ldr	r1, [pc, #388]	; (d490c <loop+0x2ec>)
   d4786:	4c63      	ldr	r4, [pc, #396]	; (d4914 <loop+0x2f4>)
   d4788:	f002 fe69 	bl	d745e <_ZN5Print7printlnEPK19__FlashStringHelper>
  uint8_t sys, gyro, accel, mag = 0;
   d478c:	2300      	movs	r3, #0
   d478e:	f88d 300f 	strb.w	r3, [sp, #15]
  bno.getCalibration(&sys, &gyro, &accel, &mag);
   d4792:	f10d 030f 	add.w	r3, sp, #15
   d4796:	f10d 020d 	add.w	r2, sp, #13
   d479a:	a903      	add	r1, sp, #12
   d479c:	9300      	str	r3, [sp, #0]
   d479e:	4852      	ldr	r0, [pc, #328]	; (d48e8 <loop+0x2c8>)
   d47a0:	f10d 030e 	add.w	r3, sp, #14
   d47a4:	f001 f9b7 	bl	d5b16 <_ZN15Adafruit_BNO05514getCalibrationEPhS0_S0_S0_>
  Serial.print(F("Calibration: "));
   d47a8:	f003 f914 	bl	d79d4 <_Z16_fetch_usbserialv>
   d47ac:	495a      	ldr	r1, [pc, #360]	; (d4918 <loop+0x2f8>)
   d47ae:	f002 fe3c 	bl	d742a <_ZN5Print5printEPK19__FlashStringHelper>
  Serial.print(sys, DEC);
   d47b2:	f003 f90f 	bl	d79d4 <_Z16_fetch_usbserialv>
        return printNumber(val, base) + t;
   d47b6:	220a      	movs	r2, #10
   d47b8:	f89d 100c 	ldrb.w	r1, [sp, #12]
   d47bc:	f002 fe51 	bl	d7462 <_ZN5Print11printNumberEmh>
  Serial.print(F(", "));
   d47c0:	f003 f908 	bl	d79d4 <_Z16_fetch_usbserialv>
   d47c4:	4950      	ldr	r1, [pc, #320]	; (d4908 <loop+0x2e8>)
   d47c6:	f002 fe30 	bl	d742a <_ZN5Print5printEPK19__FlashStringHelper>
  Serial.print(gyro, DEC);
   d47ca:	f003 f903 	bl	d79d4 <_Z16_fetch_usbserialv>
   d47ce:	220a      	movs	r2, #10
   d47d0:	f89d 100d 	ldrb.w	r1, [sp, #13]
   d47d4:	f002 fe45 	bl	d7462 <_ZN5Print11printNumberEmh>
  Serial.print(F(", "));
   d47d8:	f003 f8fc 	bl	d79d4 <_Z16_fetch_usbserialv>
   d47dc:	494a      	ldr	r1, [pc, #296]	; (d4908 <loop+0x2e8>)
   d47de:	f002 fe24 	bl	d742a <_ZN5Print5printEPK19__FlashStringHelper>
  Serial.print(accel, DEC);
   d47e2:	f003 f8f7 	bl	d79d4 <_Z16_fetch_usbserialv>
   d47e6:	220a      	movs	r2, #10
   d47e8:	f89d 100e 	ldrb.w	r1, [sp, #14]
   d47ec:	f002 fe39 	bl	d7462 <_ZN5Print11printNumberEmh>
  Serial.print(F(", "));
   d47f0:	f003 f8f0 	bl	d79d4 <_Z16_fetch_usbserialv>
   d47f4:	4944      	ldr	r1, [pc, #272]	; (d4908 <loop+0x2e8>)
   d47f6:	f002 fe18 	bl	d742a <_ZN5Print5printEPK19__FlashStringHelper>
  Serial.print(mag, DEC);
   d47fa:	f003 f8eb 	bl	d79d4 <_Z16_fetch_usbserialv>
   d47fe:	220a      	movs	r2, #10
   d4800:	f89d 100f 	ldrb.w	r1, [sp, #15]
   d4804:	f002 fe2d 	bl	d7462 <_ZN5Print11printNumberEmh>
  Serial.println(F(""));
   d4808:	f003 f8e4 	bl	d79d4 <_Z16_fetch_usbserialv>
   d480c:	493f      	ldr	r1, [pc, #252]	; (d490c <loop+0x2ec>)
   d480e:	f002 fe26 	bl	d745e <_ZN5Print7printlnEPK19__FlashStringHelper>
  Serial.println("\n\n");
   d4812:	f003 f8df 	bl	d79d4 <_Z16_fetch_usbserialv>
   d4816:	4941      	ldr	r1, [pc, #260]	; (d491c <loop+0x2fc>)
   d4818:	f002 fe17 	bl	d744a <_ZN5Print7printlnEPKc>
  bno.getEvent(&event);
   d481c:	a913      	add	r1, sp, #76	; 0x4c
   d481e:	4832      	ldr	r0, [pc, #200]	; (d48e8 <loop+0x2c8>)
   d4820:	f001 fb44 	bl	d5eac <_ZN15Adafruit_BNO0558getEventEP15sensors_event_t>
  Serial.print("X: ");
   d4824:	f003 f8d6 	bl	d79d4 <_Z16_fetch_usbserialv>
   d4828:	493d      	ldr	r1, [pc, #244]	; (d4920 <loop+0x300>)
   d482a:	f002 fdf7 	bl	d741c <_ZN5Print5printEPKc>
  Serial.print(event.orientation.x, 4);
   d482e:	f003 f8d1 	bl	d79d4 <_Z16_fetch_usbserialv>
   d4832:	ed9d 0a18 	vldr	s0, [sp, #96]	; 0x60
   d4836:	2104      	movs	r1, #4
   d4838:	f002 fefa 	bl	d7630 <_ZN5Print5printEfi>
  Serial.print("\tY: ");
   d483c:	f003 f8ca 	bl	d79d4 <_Z16_fetch_usbserialv>
   d4840:	4938      	ldr	r1, [pc, #224]	; (d4924 <loop+0x304>)
   d4842:	f002 fdeb 	bl	d741c <_ZN5Print5printEPKc>
  Serial.print(event.orientation.y, 4);
   d4846:	f003 f8c5 	bl	d79d4 <_Z16_fetch_usbserialv>
   d484a:	ed9d 0a19 	vldr	s0, [sp, #100]	; 0x64
   d484e:	2104      	movs	r1, #4
   d4850:	f002 feee 	bl	d7630 <_ZN5Print5printEfi>
  Serial.print("\tZ: ");
   d4854:	f003 f8be 	bl	d79d4 <_Z16_fetch_usbserialv>
   d4858:	4933      	ldr	r1, [pc, #204]	; (d4928 <loop+0x308>)
   d485a:	f002 fddf 	bl	d741c <_ZN5Print5printEPKc>
  Serial.print(event.orientation.z, 4);
   d485e:	f003 f8b9 	bl	d79d4 <_Z16_fetch_usbserialv>
   d4862:	ed9d 0a1a 	vldr	s0, [sp, #104]	; 0x68
   d4866:	2104      	movs	r1, #4
   d4868:	f002 fee2 	bl	d7630 <_ZN5Print5printEfi>
  Serial.println("");
   d486c:	f003 f8b2 	bl	d79d4 <_Z16_fetch_usbserialv>
   d4870:	4926      	ldr	r1, [pc, #152]	; (d490c <loop+0x2ec>)
   d4872:	f002 fdea 	bl	d744a <_ZN5Print7printlnEPKc>
  Serial.println("\n\n");
   d4876:	f003 f8ad 	bl	d79d4 <_Z16_fetch_usbserialv>
   d487a:	4928      	ldr	r1, [pc, #160]	; (d491c <loop+0x2fc>)
   d487c:	f002 fde5 	bl	d744a <_ZN5Print7printlnEPKc>
  compass_heading = event.orientation.x + 51.6;
   d4880:	9818      	ldr	r0, [sp, #96]	; 0x60
   d4882:	f004 fe7f 	bl	d9584 <__aeabi_f2d>
   d4886:	a316      	add	r3, pc, #88	; (adr r3, d48e0 <loop+0x2c0>)
   d4888:	e9d3 2300 	ldrd	r2, r3, [r3]
   d488c:	f004 fd1c 	bl	d92c8 <__adddf3>
   d4890:	f005 f9c8 	bl	d9c24 <__aeabi_d2f>
   d4894:	ee07 0a90 	vmov	s15, r0
  if(compass_heading > 360) {
   d4898:	eef4 7ac8 	vcmpe.f32	s15, s16
   d489c:	eef1 fa10 	vmrs	APSR_nzcv, fpscr
    compass_heading = compass_heading - 360;
   d48a0:	bfc8      	it	gt
   d48a2:	ee77 7ac8 	vsubgt.f32	s15, s15, s16
   d48a6:	edc4 7a00 	vstr	s15, [r4]
  Serial.print("compass heading:  ");
   d48aa:	f003 f893 	bl	d79d4 <_Z16_fetch_usbserialv>
   d48ae:	491f      	ldr	r1, [pc, #124]	; (d492c <loop+0x30c>)
   d48b0:	f002 fdb4 	bl	d741c <_ZN5Print5printEPKc>
  Serial.print(compass_heading, 4);
   d48b4:	f003 f88e 	bl	d79d4 <_Z16_fetch_usbserialv>
   d48b8:	ed94 0a00 	vldr	s0, [r4]
   d48bc:	2104      	movs	r1, #4
   d48be:	f002 feb7 	bl	d7630 <_ZN5Print5printEfi>
    bno.getSensorOffsets(newCalib);
   d48c2:	a904      	add	r1, sp, #16
   d48c4:	4808      	ldr	r0, [pc, #32]	; (d48e8 <loop+0x2c8>)
   d48c6:	f001 f977 	bl	d5bb8 <_ZN15Adafruit_BNO05516getSensorOffsetsER25adafruit_bno055_offsets_t>
    displaySensorOffsets(newCalib);
   d48ca:	a804      	add	r0, sp, #16
   d48cc:	f7ff fc12 	bl	d40f4 <_Z20displaySensorOffsetsRK25adafruit_bno055_offsets_t>
  delay(BNO055_SAMPLERATE_DELAY_MS);
   d48d0:	f44f 707a 	mov.w	r0, #1000	; 0x3e8
   d48d4:	f002 ff02 	bl	d76dc <delay>
}
   d48d8:	b01c      	add	sp, #112	; 0x70
   d48da:	ecbd 8b02 	vpop	{d8}
   d48de:	bd10      	pop	{r4, pc}
   d48e0:	cccccccd 	.word	0xcccccccd
   d48e4:	4049cccc 	.word	0x4049cccc
   d48e8:	2003e504 	.word	0x2003e504
   d48ec:	2003e51c 	.word	0x2003e51c
   d48f0:	000da524 	.word	0x000da524
   d48f4:	2003e520 	.word	0x2003e520
   d48f8:	000da7e6 	.word	0x000da7e6
   d48fc:	000da526 	.word	0x000da526
   d4900:	43b40000 	.word	0x43b40000
   d4904:	000da528 	.word	0x000da528
   d4908:	000da536 	.word	0x000da536
   d490c:	000da556 	.word	0x000da556
   d4910:	000da539 	.word	0x000da539
   d4914:	2003e518 	.word	0x2003e518
   d4918:	000da546 	.word	0x000da546
   d491c:	000da554 	.word	0x000da554
   d4920:	000da557 	.word	0x000da557
   d4924:	000da55b 	.word	0x000da55b
   d4928:	000da560 	.word	0x000da560
   d492c:	000da565 	.word	0x000da565

000d4930 <setup>:
void setup(void) {
   d4930:	e92d 43f8 	stmdb	sp!, {r3, r4, r5, r6, r7, r8, r9, lr}
  Serial.begin(115200);
   d4934:	f003 f84e 	bl	d79d4 <_Z16_fetch_usbserialv>
   d4938:	f44f 31e1 	mov.w	r1, #115200	; 0x1c200
   d493c:	f003 f838 	bl	d79b0 <_ZN9USBSerial5beginEl>
    while(!Serial);    // time to get serial running
   d4940:	f003 f848 	bl	d79d4 <_Z16_fetch_usbserialv>
   d4944:	f003 f83b 	bl	d79be <_ZN9USBSerialcvbEv>
   d4948:	2800      	cmp	r0, #0
   d494a:	d0f9      	beq.n	d4940 <setup+0x10>
  display.begin(0x3C, true); // Address 0x3C default
   d494c:	4c86      	ldr	r4, [pc, #536]	; (d4b68 <setup+0x238>)
    Serial.println(F("BME280 test"));
   d494e:	f003 f841 	bl	d79d4 <_Z16_fetch_usbserialv>
   d4952:	4986      	ldr	r1, [pc, #536]	; (d4b6c <setup+0x23c>)
   d4954:	f002 fd83 	bl	d745e <_ZN5Print7printlnEPK19__FlashStringHelper>
  Serial.println("128x64 OLED FeatherWing test");
   d4958:	f003 f83c 	bl	d79d4 <_Z16_fetch_usbserialv>
   d495c:	4984      	ldr	r1, [pc, #528]	; (d4b70 <setup+0x240>)
   d495e:	f002 fd74 	bl	d744a <_ZN5Print7printlnEPKc>
  display.begin(0x3C, true); // Address 0x3C default
   d4962:	2201      	movs	r2, #1
   d4964:	213c      	movs	r1, #60	; 0x3c
   d4966:	4620      	mov	r0, r4
   d4968:	f002 f958 	bl	d6c1c <_ZN15Adafruit_SH11075beginEhb>
  Serial.println("OLED begun");
   d496c:	f003 f832 	bl	d79d4 <_Z16_fetch_usbserialv>
   d4970:	4980      	ldr	r1, [pc, #512]	; (d4b74 <setup+0x244>)
   d4972:	f002 fd6a 	bl	d744a <_ZN5Print7printlnEPKc>
  display.display();
   d4976:	4620      	mov	r0, r4
   d4978:	f002 f859 	bl	d6a2e <_ZN15Adafruit_SH110X7displayEv>
  delay(1000);
   d497c:	f44f 707a 	mov.w	r0, #1000	; 0x3e8
   d4980:	f002 feac 	bl	d76dc <delay>
  display.clearDisplay();
   d4984:	4620      	mov	r0, r4
   d4986:	f001 fbdf 	bl	d6148 <_ZN17Adafruit_GrayOLED12clearDisplayEv>
  display.display();
   d498a:	4620      	mov	r0, r4
   d498c:	f002 f84f 	bl	d6a2e <_ZN15Adafruit_SH110X7displayEv>
  display.setRotation(1);
   d4990:	2101      	movs	r1, #1
   d4992:	4620      	mov	r0, r4
   d4994:	f001 fdde 	bl	d6554 <_ZN12Adafruit_GFX11setRotationEh>
  Serial.println("Button test");
   d4998:	f003 f81c 	bl	d79d4 <_Z16_fetch_usbserialv>
   d499c:	4976      	ldr	r1, [pc, #472]	; (d4b78 <setup+0x248>)
   d499e:	f002 fd54 	bl	d744a <_ZN5Print7printlnEPKc>
  pinMode(BUTTON_A, INPUT_PULLUP);
   d49a2:	2102      	movs	r1, #2
   d49a4:	2004      	movs	r0, #4
   d49a6:	f003 fa6d 	bl	d7e84 <pinMode>
  pinMode(BUTTON_B, INPUT_PULLUP);
   d49aa:	2102      	movs	r1, #2
   d49ac:	2003      	movs	r0, #3
   d49ae:	f003 fa69 	bl	d7e84 <pinMode>
  pinMode(BUTTON_C, INPUT_PULLUP);
   d49b2:	2102      	movs	r1, #2
   d49b4:	4608      	mov	r0, r1
   d49b6:	f003 fa65 	bl	d7e84 <pinMode>
  display.setTextSize(1);
   d49ba:	2101      	movs	r1, #1
   d49bc:	4620      	mov	r0, r4
   d49be:	f002 f830 	bl	d6a22 <_ZN12Adafruit_GFX11setTextSizeEh>
    @param   c   16-bit 5-6-5 Color to draw text with
    @note    For 'transparent' background, background and foreground
             are set to same color rather than using a separate flag.
  */
  /**********************************************************************/
  void setTextColor(uint16_t c) { textcolor = textbgcolor = c; }
   d49c2:	2600      	movs	r6, #0
   d49c4:	f04f 1301 	mov.w	r3, #65537	; 0x10001
   d49c8:	e9c4 6304 	strd	r6, r3, [r4, #16]
  display.print("Connecting to SSID\n'adafruit':");
   d49cc:	496b      	ldr	r1, [pc, #428]	; (d4b7c <setup+0x24c>)
   d49ce:	4620      	mov	r0, r4
   d49d0:	f002 fd24 	bl	d741c <_ZN5Print5printEPKc>
  display.print("connected!");
   d49d4:	496a      	ldr	r1, [pc, #424]	; (d4b80 <setup+0x250>)
   d49d6:	4620      	mov	r0, r4
   d49d8:	f002 fd20 	bl	d741c <_ZN5Print5printEPKc>
  display.println("IP: 10.0.1.23");
   d49dc:	4969      	ldr	r1, [pc, #420]	; (d4b84 <setup+0x254>)
   d49de:	4620      	mov	r0, r4
   d49e0:	f002 fd33 	bl	d744a <_ZN5Print7printlnEPKc>
  display.println("Sending val #0");
   d49e4:	4968      	ldr	r1, [pc, #416]	; (d4b88 <setup+0x258>)
   d49e6:	4620      	mov	r0, r4
   d49e8:	f002 fd2f 	bl	d744a <_ZN5Print7printlnEPKc>
  display.display(); // actually display all of the above
   d49ec:	4620      	mov	r0, r4
   d49ee:	f002 f81e 	bl	d6a2e <_ZN15Adafruit_SH110X7displayEv>
    status = bme.begin();  
   d49f2:	4866      	ldr	r0, [pc, #408]	; (d4b8c <setup+0x25c>)
   d49f4:	f000 fdb5 	bl	d5562 <_ZN15Adafruit_BME2805beginEv>
    if (!status) {
   d49f8:	bb78      	cbnz	r0, d4a5a <setup+0x12a>
        Serial.println("Could not find a valid BME280 sensor, check wiring, address, sensor ID!");
   d49fa:	f002 ffeb 	bl	d79d4 <_Z16_fetch_usbserialv>
   d49fe:	4964      	ldr	r1, [pc, #400]	; (d4b90 <setup+0x260>)
   d4a00:	f002 fd23 	bl	d744a <_ZN5Print7printlnEPKc>
        Serial.print("SensorID was: 0x"); Serial.println(bme.sensorID(),16);
   d4a04:	f002 ffe6 	bl	d79d4 <_Z16_fetch_usbserialv>
   d4a08:	4962      	ldr	r1, [pc, #392]	; (d4b94 <setup+0x264>)
   d4a0a:	f002 fd07 	bl	d741c <_ZN5Print5printEPKc>
   d4a0e:	f002 ffe1 	bl	d79d4 <_Z16_fetch_usbserialv>
   d4a12:	4604      	mov	r4, r0
   d4a14:	485d      	ldr	r0, [pc, #372]	; (d4b8c <setup+0x25c>)
   d4a16:	f000 f927 	bl	d4c68 <_ZN15Adafruit_BME2808sensorIDEv>
   d4a1a:	2210      	movs	r2, #16
   d4a1c:	4601      	mov	r1, r0
   d4a1e:	4620      	mov	r0, r4
   d4a20:	f002 fd1f 	bl	d7462 <_ZN5Print11printNumberEmh>
        n += println();
   d4a24:	4620      	mov	r0, r4
   d4a26:	f002 fd04 	bl	d7432 <_ZN5Print7printlnEv>
        Serial.print("        ID of 0xFF probably means a bad address, a BMP 180 or BMP 085\n");
   d4a2a:	f002 ffd3 	bl	d79d4 <_Z16_fetch_usbserialv>
   d4a2e:	495a      	ldr	r1, [pc, #360]	; (d4b98 <setup+0x268>)
   d4a30:	f002 fcf4 	bl	d741c <_ZN5Print5printEPKc>
        Serial.print("   ID of 0x56-0x58 represents a BMP 280,\n");
   d4a34:	f002 ffce 	bl	d79d4 <_Z16_fetch_usbserialv>
   d4a38:	4958      	ldr	r1, [pc, #352]	; (d4b9c <setup+0x26c>)
   d4a3a:	f002 fcef 	bl	d741c <_ZN5Print5printEPKc>
        Serial.print("        ID of 0x60 represents a BME 280.\n");
   d4a3e:	f002 ffc9 	bl	d79d4 <_Z16_fetch_usbserialv>
   d4a42:	4957      	ldr	r1, [pc, #348]	; (d4ba0 <setup+0x270>)
   d4a44:	f002 fcea 	bl	d741c <_ZN5Print5printEPKc>
        Serial.print("        ID of 0x61 represents a BME 680.\n");
   d4a48:	f002 ffc4 	bl	d79d4 <_Z16_fetch_usbserialv>
   d4a4c:	4955      	ldr	r1, [pc, #340]	; (d4ba4 <setup+0x274>)
   d4a4e:	f002 fce5 	bl	d741c <_ZN5Print5printEPKc>
        while (1) delay(10);
   d4a52:	200a      	movs	r0, #10
   d4a54:	f002 fe42 	bl	d76dc <delay>
   d4a58:	e7fb      	b.n	d4a52 <setup+0x122>
  Serial.begin(9600);
   d4a5a:	f002 ffbb 	bl	d79d4 <_Z16_fetch_usbserialv>
   d4a5e:	f44f 5116 	mov.w	r1, #9600	; 0x2580
   d4a62:	f002 ffa5 	bl	d79b0 <_ZN9USBSerial5beginEl>
  Serial.println("WebSerial 3D Firmware"); Serial.println("");
   d4a66:	f002 ffb5 	bl	d79d4 <_Z16_fetch_usbserialv>
   d4a6a:	494f      	ldr	r1, [pc, #316]	; (d4ba8 <setup+0x278>)
   d4a6c:	f002 fced 	bl	d744a <_ZN5Print7printlnEPKc>
   d4a70:	f002 ffb0 	bl	d79d4 <_Z16_fetch_usbserialv>
   d4a74:	494d      	ldr	r1, [pc, #308]	; (d4bac <setup+0x27c>)
   d4a76:	f002 fce8 	bl	d744a <_ZN5Print7printlnEPKc>
  if(!bno.begin())
   d4a7a:	484d      	ldr	r0, [pc, #308]	; (d4bb0 <setup+0x280>)
   d4a7c:	210c      	movs	r1, #12
   d4a7e:	f000 fff9 	bl	d5a74 <_ZN15Adafruit_BNO0555beginENS_24adafruit_bno055_opmode_tE>
   d4a82:	b928      	cbnz	r0, d4a90 <setup+0x160>
    Serial.print("Ooops, no BNO055 detected ... Check your wiring or I2C ADDR!");
   d4a84:	f002 ffa6 	bl	d79d4 <_Z16_fetch_usbserialv>
   d4a88:	494a      	ldr	r1, [pc, #296]	; (d4bb4 <setup+0x284>)
   d4a8a:	f002 fcc7 	bl	d741c <_ZN5Print5printEPKc>
    while(1);
   d4a8e:	e7fe      	b.n	d4a8e <setup+0x15e>
  delay(1000);
   d4a90:	f44f 707a 	mov.w	r0, #1000	; 0x3e8
  nDevices = 0;
   d4a94:	4d48      	ldr	r5, [pc, #288]	; (d4bb8 <setup+0x288>)
  for (address = 1; address < 127; address++ )
   d4a96:	4c49      	ldr	r4, [pc, #292]	; (d4bbc <setup+0x28c>)
    error = Wire.endTransmission();
   d4a98:	4f49      	ldr	r7, [pc, #292]	; (d4bc0 <setup+0x290>)
      Serial.print("Unknown error at address 0x");
   d4a9a:	f8df 8140 	ldr.w	r8, [pc, #320]	; d4bdc <setup+0x2ac>
  delay(1000);
   d4a9e:	f002 fe1d 	bl	d76dc <delay>
  Serial.println("Scanning...");
   d4aa2:	f002 ff97 	bl	d79d4 <_Z16_fetch_usbserialv>
   d4aa6:	4947      	ldr	r1, [pc, #284]	; (d4bc4 <setup+0x294>)
   d4aa8:	f002 fccf 	bl	d744a <_ZN5Print7printlnEPKc>
  nDevices = 0;
   d4aac:	602e      	str	r6, [r5, #0]
  for (address = 1; address < 127; address++ )
   d4aae:	2301      	movs	r3, #1
        Serial.print("0");
   d4ab0:	4e45      	ldr	r6, [pc, #276]	; (d4bc8 <setup+0x298>)
  for (address = 1; address < 127; address++ )
   d4ab2:	7023      	strb	r3, [r4, #0]
    Wire.beginTransmission(address);
   d4ab4:	f003 fa3c 	bl	d7f30 <_Z19__fetch_global_Wirev>
   d4ab8:	7821      	ldrb	r1, [r4, #0]
   d4aba:	f003 f8eb 	bl	d7c94 <_ZN7TwoWire17beginTransmissionEh>
    error = Wire.endTransmission();
   d4abe:	f003 fa37 	bl	d7f30 <_Z19__fetch_global_Wirev>
   d4ac2:	f003 f8ef 	bl	d7ca4 <_ZN7TwoWire15endTransmissionEv>
   d4ac6:	7038      	strb	r0, [r7, #0]
    if (error == 0)
   d4ac8:	bb78      	cbnz	r0, d4b2a <setup+0x1fa>
      Serial.print("I2C device found at address 0x");
   d4aca:	f002 ff83 	bl	d79d4 <_Z16_fetch_usbserialv>
   d4ace:	493f      	ldr	r1, [pc, #252]	; (d4bcc <setup+0x29c>)
   d4ad0:	f002 fca4 	bl	d741c <_ZN5Print5printEPKc>
      if (address < 16)
   d4ad4:	7823      	ldrb	r3, [r4, #0]
   d4ad6:	2b0f      	cmp	r3, #15
   d4ad8:	d804      	bhi.n	d4ae4 <setup+0x1b4>
        Serial.print("0");
   d4ada:	f002 ff7b 	bl	d79d4 <_Z16_fetch_usbserialv>
   d4ade:	4631      	mov	r1, r6
   d4ae0:	f002 fc9c 	bl	d741c <_ZN5Print5printEPKc>
      Serial.print(address, HEX);
   d4ae4:	f002 ff76 	bl	d79d4 <_Z16_fetch_usbserialv>
        return printNumber(val, base) + t;
   d4ae8:	7821      	ldrb	r1, [r4, #0]
   d4aea:	2210      	movs	r2, #16
   d4aec:	f002 fcb9 	bl	d7462 <_ZN5Print11printNumberEmh>
      Serial.println("  !");
   d4af0:	f002 ff70 	bl	d79d4 <_Z16_fetch_usbserialv>
   d4af4:	4936      	ldr	r1, [pc, #216]	; (d4bd0 <setup+0x2a0>)
   d4af6:	f002 fca8 	bl	d744a <_ZN5Print7printlnEPKc>
      nDevices++;
   d4afa:	682b      	ldr	r3, [r5, #0]
   d4afc:	3301      	adds	r3, #1
   d4afe:	602b      	str	r3, [r5, #0]
  for (address = 1; address < 127; address++ )
   d4b00:	7823      	ldrb	r3, [r4, #0]
   d4b02:	3301      	adds	r3, #1
   d4b04:	b2db      	uxtb	r3, r3
   d4b06:	2b7e      	cmp	r3, #126	; 0x7e
   d4b08:	7023      	strb	r3, [r4, #0]
   d4b0a:	d9d3      	bls.n	d4ab4 <setup+0x184>
  if (nDevices == 0)
   d4b0c:	682b      	ldr	r3, [r5, #0]
   d4b0e:	bb33      	cbnz	r3, d4b5e <setup+0x22e>
    Serial.println("No I2C devices found\n");
   d4b10:	f002 ff60 	bl	d79d4 <_Z16_fetch_usbserialv>
   d4b14:	492f      	ldr	r1, [pc, #188]	; (d4bd4 <setup+0x2a4>)
    Serial.println("done\n");
   d4b16:	f002 fc98 	bl	d744a <_ZN5Print7printlnEPKc>
  bno.setExtCrystalUse(true);
   d4b1a:	4825      	ldr	r0, [pc, #148]	; (d4bb0 <setup+0x280>)
   d4b1c:	2101      	movs	r1, #1
   d4b1e:	f000 ff75 	bl	d5a0c <_ZN15Adafruit_BNO05516setExtCrystalUseEb>
}
   d4b22:	e8bd 43f8 	ldmia.w	sp!, {r3, r4, r5, r6, r7, r8, r9, lr}
  displaySensorDetails();
   d4b26:	f7ff bc15 	b.w	d4354 <_Z20displaySensorDetailsv>
    else if (error == 4)
   d4b2a:	2804      	cmp	r0, #4
   d4b2c:	d1e8      	bne.n	d4b00 <setup+0x1d0>
      Serial.print("Unknown error at address 0x");
   d4b2e:	f002 ff51 	bl	d79d4 <_Z16_fetch_usbserialv>
   d4b32:	4641      	mov	r1, r8
   d4b34:	f002 fc72 	bl	d741c <_ZN5Print5printEPKc>
      if (address < 16)
   d4b38:	7823      	ldrb	r3, [r4, #0]
   d4b3a:	2b0f      	cmp	r3, #15
   d4b3c:	d804      	bhi.n	d4b48 <setup+0x218>
        Serial.print("0");
   d4b3e:	f002 ff49 	bl	d79d4 <_Z16_fetch_usbserialv>
   d4b42:	4631      	mov	r1, r6
   d4b44:	f002 fc6a 	bl	d741c <_ZN5Print5printEPKc>
      Serial.println(address, HEX);
   d4b48:	f002 ff44 	bl	d79d4 <_Z16_fetch_usbserialv>
   d4b4c:	7821      	ldrb	r1, [r4, #0]
   d4b4e:	4681      	mov	r9, r0
   d4b50:	2210      	movs	r2, #16
   d4b52:	f002 fc86 	bl	d7462 <_ZN5Print11printNumberEmh>
        n += println();
   d4b56:	4648      	mov	r0, r9
   d4b58:	f002 fc6b 	bl	d7432 <_ZN5Print7printlnEv>
        return n;
   d4b5c:	e7d0      	b.n	d4b00 <setup+0x1d0>
    Serial.println("done\n");
   d4b5e:	f002 ff39 	bl	d79d4 <_Z16_fetch_usbserialv>
   d4b62:	491d      	ldr	r1, [pc, #116]	; (d4bd8 <setup+0x2a8>)
   d4b64:	e7d7      	b.n	d4b16 <setup+0x1e6>
   d4b66:	bf00      	nop
   d4b68:	2003e520 	.word	0x2003e520
   d4b6c:	000da578 	.word	0x000da578
   d4b70:	000da584 	.word	0x000da584
   d4b74:	000da5a1 	.word	0x000da5a1
   d4b78:	000da5ac 	.word	0x000da5ac
   d4b7c:	000da5b8 	.word	0x000da5b8
   d4b80:	000da5d7 	.word	0x000da5d7
   d4b84:	000da5e2 	.word	0x000da5e2
   d4b88:	000da5f0 	.word	0x000da5f0
   d4b8c:	2003e4c0 	.word	0x2003e4c0
   d4b90:	000da5ff 	.word	0x000da5ff
   d4b94:	000da647 	.word	0x000da647
   d4b98:	000da658 	.word	0x000da658
   d4b9c:	000da69f 	.word	0x000da69f
   d4ba0:	000da6c9 	.word	0x000da6c9
   d4ba4:	000da6f3 	.word	0x000da6f3
   d4ba8:	000da71d 	.word	0x000da71d
   d4bac:	000da556 	.word	0x000da556
   d4bb0:	2003e504 	.word	0x2003e504
   d4bb4:	000da733 	.word	0x000da733
   d4bb8:	2003e57c 	.word	0x2003e57c
   d4bbc:	2003e4bc 	.word	0x2003e4bc
   d4bc0:	2003e578 	.word	0x2003e578
   d4bc4:	000da770 	.word	0x000da770
   d4bc8:	000da5fd 	.word	0x000da5fd
   d4bcc:	000da77c 	.word	0x000da77c
   d4bd0:	000da79b 	.word	0x000da79b
   d4bd4:	000da7bb 	.word	0x000da7bb
   d4bd8:	000da7d1 	.word	0x000da7d1
   d4bdc:	000da79f 	.word	0x000da79f

000d4be0 <_ZN8particle11SPISettingsD1Ev>:
  SPISettings()
  {
  }

  virtual ~SPISettings() {
  }
   d4be0:	4770      	bx	lr

000d4be2 <_ZN8particle11SPISettingsD0Ev>:
  virtual ~SPISettings() {
   d4be2:	b510      	push	{r4, lr}
  }
   d4be4:	2110      	movs	r1, #16
  virtual ~SPISettings() {
   d4be6:	4604      	mov	r4, r0
  }
   d4be8:	f003 f9c6 	bl	d7f78 <_ZdlPvj>
   d4bec:	4620      	mov	r0, r4
   d4bee:	bd10      	pop	{r4, pc}

000d4bf0 <_ZN5Print6printfEPKcz>:
    size_t printf(const char* format, ...) __attribute__ ((format(printf, 2, 3)))
   d4bf0:	b40e      	push	{r1, r2, r3}
   d4bf2:	b503      	push	{r0, r1, lr}
   d4bf4:	ab03      	add	r3, sp, #12
        auto r = this->vprintf(false, format, args);
   d4bf6:	2100      	movs	r1, #0
    size_t printf(const char* format, ...) __attribute__ ((format(printf, 2, 3)))
   d4bf8:	f853 2b04 	ldr.w	r2, [r3], #4
        va_start(args, format);
   d4bfc:	9301      	str	r3, [sp, #4]
        auto r = this->vprintf(false, format, args);
   d4bfe:	f002 fd29 	bl	d7654 <_ZN5Print7vprintfEbPKcSt9__va_list>
    }
   d4c02:	b002      	add	sp, #8
   d4c04:	f85d eb04 	ldr.w	lr, [sp], #4
   d4c08:	b003      	add	sp, #12
   d4c0a:	4770      	bx	lr

000d4c0c <_ZNK8particle11SPISettings7printToER5Print>:
  bool operator!=(const SPISettings& other) const
  {
    return !(other == *this);
  }

  virtual size_t printTo(Print& p) const
   d4c0c:	b573      	push	{r0, r1, r4, r5, r6, lr}
   d4c0e:	4604      	mov	r4, r0
   d4c10:	4608      	mov	r0, r1
  {
    if (default_ && clock_ == 0)
   d4c12:	7922      	ldrb	r2, [r4, #4]
   d4c14:	68a3      	ldr	r3, [r4, #8]
   d4c16:	b132      	cbz	r2, d4c26 <_ZNK8particle11SPISettings7printToER5Print+0x1a>
   d4c18:	b9a3      	cbnz	r3, d4c44 <_ZNK8particle11SPISettings7printToER5Print+0x38>
      return p.print("<SPISettings default>");
   d4c1a:	490b      	ldr	r1, [pc, #44]	; (d4c48 <_ZNK8particle11SPISettings7printToER5Print+0x3c>)
    else
      return p.printf("<SPISettings %s%u %s MODE%u>", default_ ? "default " : "", (unsigned int)clock_,
          bitOrder_ == MSBFIRST ? "MSB" : "LSB", (unsigned int)dataMode_);
  }
   d4c1c:	b002      	add	sp, #8
   d4c1e:	e8bd 4070 	ldmia.w	sp!, {r4, r5, r6, lr}
      return p.print("<SPISettings default>");
   d4c22:	f002 bbfb 	b.w	d741c <_ZN5Print5printEPKc>
      return p.printf("<SPISettings %s%u %s MODE%u>", default_ ? "default " : "", (unsigned int)clock_,
   d4c26:	4a09      	ldr	r2, [pc, #36]	; (d4c4c <_ZNK8particle11SPISettings7printToER5Print+0x40>)
   d4c28:	7b26      	ldrb	r6, [r4, #12]
   d4c2a:	4d09      	ldr	r5, [pc, #36]	; (d4c50 <_ZNK8particle11SPISettings7printToER5Print+0x44>)
   d4c2c:	4909      	ldr	r1, [pc, #36]	; (d4c54 <_ZNK8particle11SPISettings7printToER5Print+0x48>)
   d4c2e:	7b64      	ldrb	r4, [r4, #13]
   d4c30:	2e01      	cmp	r6, #1
   d4c32:	bf18      	it	ne
   d4c34:	4629      	movne	r1, r5
   d4c36:	e9cd 1400 	strd	r1, r4, [sp]
   d4c3a:	4907      	ldr	r1, [pc, #28]	; (d4c58 <_ZNK8particle11SPISettings7printToER5Print+0x4c>)
   d4c3c:	f7ff ffd8 	bl	d4bf0 <_ZN5Print6printfEPKcz>
  }
   d4c40:	b002      	add	sp, #8
   d4c42:	bd70      	pop	{r4, r5, r6, pc}
      return p.printf("<SPISettings %s%u %s MODE%u>", default_ ? "default " : "", (unsigned int)clock_,
   d4c44:	4a05      	ldr	r2, [pc, #20]	; (d4c5c <_ZNK8particle11SPISettings7printToER5Print+0x50>)
   d4c46:	e7ef      	b.n	d4c28 <_ZNK8particle11SPISettings7printToER5Print+0x1c>
   d4c48:	000da7e8 	.word	0x000da7e8
   d4c4c:	000da556 	.word	0x000da556
   d4c50:	000da7e4 	.word	0x000da7e4
   d4c54:	000da7e0 	.word	0x000da7e0
   d4c58:	000da7fe 	.word	0x000da7fe
   d4c5c:	000da7d7 	.word	0x000da7d7

000d4c60 <_ZN15Adafruit_BME280C1Ev>:
/*! 
    @brief  class constructor
*/
/**************************************************************************/
Adafruit_BME280::Adafruit_BME280()
    : _cs(-1), _mosi(-1), _miso(-1), _sck(-1)
   d4c60:	f04f 33ff 	mov.w	r3, #4294967295
   d4c64:	6103      	str	r3, [r0, #16]
{ }
   d4c66:	4770      	bx	lr

000d4c68 <_ZN15Adafruit_BME2808sensorIDEv>:
*/
/**************************************************************************/
uint32_t Adafruit_BME280::sensorID(void)
{
	return _sensorID;
   d4c68:	6880      	ldr	r0, [r0, #8]
   d4c6a:	4770      	bx	lr

000d4c6c <_ZN8particle8SpiProxyIL19hal_spi_interface_t0EE8instanceEv>:
namespace particle {

template <hal_spi_interface_t Interface>
class SpiProxy {
public:
    static SPIClass& instance() {
   d4c6c:	b513      	push	{r0, r1, r4, lr}
        static SPIClass instance(Interface);
   d4c6e:	4c0b      	ldr	r4, [pc, #44]	; (d4c9c <_ZN8particle8SpiProxyIL19hal_spi_interface_t0EE8instanceEv+0x30>)
   d4c70:	7821      	ldrb	r1, [r4, #0]
   d4c72:	f3bf 8f5b 	dmb	ish
   d4c76:	f011 0101 	ands.w	r1, r1, #1
   d4c7a:	d10b      	bne.n	d4c94 <_ZN8particle8SpiProxyIL19hal_spi_interface_t0EE8instanceEv+0x28>
   d4c7c:	4620      	mov	r0, r4
   d4c7e:	9101      	str	r1, [sp, #4]
   d4c80:	f7ff fa1a 	bl	d40b8 <__cxa_guard_acquire>
   d4c84:	9901      	ldr	r1, [sp, #4]
   d4c86:	b128      	cbz	r0, d4c94 <_ZN8particle8SpiProxyIL19hal_spi_interface_t0EE8instanceEv+0x28>
   d4c88:	4805      	ldr	r0, [pc, #20]	; (d4ca0 <_ZN8particle8SpiProxyIL19hal_spi_interface_t0EE8instanceEv+0x34>)
   d4c8a:	f002 fac9 	bl	d7220 <_ZN8SPIClassC1E19hal_spi_interface_t>
   d4c8e:	4620      	mov	r0, r4
   d4c90:	f7ff fa17 	bl	d40c2 <__cxa_guard_release>
        return instance;
    }
   d4c94:	4802      	ldr	r0, [pc, #8]	; (d4ca0 <_ZN8particle8SpiProxyIL19hal_spi_interface_t0EE8instanceEv+0x34>)
   d4c96:	b002      	add	sp, #8
   d4c98:	bd10      	pop	{r4, pc}
   d4c9a:	bf00      	nop
   d4c9c:	2003e580 	.word	0x2003e580
   d4ca0:	2003e584 	.word	0x2003e584

000d4ca4 <_ZN15Adafruit_BME2807spixferEh>:
uint8_t Adafruit_BME280::spixfer(uint8_t x) {
   d4ca4:	e92d 41f0 	stmdb	sp!, {r4, r5, r6, r7, r8, lr}
    if (_sck == -1)
   d4ca8:	f990 3013 	ldrsb.w	r3, [r0, #19]
   d4cac:	3301      	adds	r3, #1
uint8_t Adafruit_BME280::spixfer(uint8_t x) {
   d4cae:	4605      	mov	r5, r0
   d4cb0:	460f      	mov	r7, r1
    if (_sck == -1)
   d4cb2:	d106      	bne.n	d4cc2 <_ZN15Adafruit_BME2807spixferEh+0x1e>
    }
    static void computeClockDivider(unsigned reference, unsigned targetSpeed, uint8_t& divider, unsigned& clock) {
        instance().computeClockDivider(reference, targetSpeed, divider, clock);
    }
    byte transfer(byte data) {
        return instance().transfer(data);
   d4cb4:	f7ff ffda 	bl	d4c6c <_ZN8particle8SpiProxyIL19hal_spi_interface_t0EE8instanceEv>
   d4cb8:	4639      	mov	r1, r7
}
   d4cba:	e8bd 41f0 	ldmia.w	sp!, {r4, r5, r6, r7, r8, lr}
   d4cbe:	f002 bb51 	b.w	d7364 <_ZN8SPIClass8transferEh>
    uint8_t reply = 0;
   d4cc2:	2400      	movs	r4, #0
    for (int i=7; i>=0; i--) {
   d4cc4:	2607      	movs	r6, #7
        digitalWrite(_mosi, x & (1<<i));
   d4cc6:	f04f 0801 	mov.w	r8, #1
        digitalWrite(_sck, LOW);
   d4cca:	f995 0013 	ldrsb.w	r0, [r5, #19]
   d4cce:	2100      	movs	r1, #0
   d4cd0:	b280      	uxth	r0, r0
   d4cd2:	f003 f8e8 	bl	d7ea6 <digitalWrite>
        digitalWrite(_mosi, x & (1<<i));
   d4cd6:	f995 0011 	ldrsb.w	r0, [r5, #17]
   d4cda:	fa08 f106 	lsl.w	r1, r8, r6
   d4cde:	4039      	ands	r1, r7
   d4ce0:	b280      	uxth	r0, r0
   d4ce2:	f003 f8e0 	bl	d7ea6 <digitalWrite>
        digitalWrite(_sck, HIGH);
   d4ce6:	f995 0013 	ldrsb.w	r0, [r5, #19]
   d4cea:	2101      	movs	r1, #1
   d4cec:	b280      	uxth	r0, r0
   d4cee:	f003 f8da 	bl	d7ea6 <digitalWrite>
        if (digitalRead(_miso))
   d4cf2:	f995 0012 	ldrsb.w	r0, [r5, #18]
        reply <<= 1;
   d4cf6:	0064      	lsls	r4, r4, #1
        if (digitalRead(_miso))
   d4cf8:	b280      	uxth	r0, r0
        reply <<= 1;
   d4cfa:	b2e4      	uxtb	r4, r4
        if (digitalRead(_miso))
   d4cfc:	f003 f8ec 	bl	d7ed8 <digitalRead>
   d4d00:	b108      	cbz	r0, d4d06 <_ZN15Adafruit_BME2807spixferEh+0x62>
            reply |= 1;
   d4d02:	f044 0401 	orr.w	r4, r4, #1
    for (int i=7; i>=0; i--) {
   d4d06:	3e01      	subs	r6, #1
   d4d08:	d2df      	bcs.n	d4cca <_ZN15Adafruit_BME2807spixferEh+0x26>
}
   d4d0a:	4620      	mov	r0, r4
   d4d0c:	e8bd 81f0 	ldmia.w	sp!, {r4, r5, r6, r7, r8, pc}

000d4d10 <_ZN8particle8SpiProxyIL19hal_spi_interface_t0EE14endTransactionEv.isra.0>:
    void endTransaction() {
   d4d10:	b508      	push	{r3, lr}
        instance().endTransaction();
   d4d12:	f7ff ffab 	bl	d4c6c <_ZN8particle8SpiProxyIL19hal_spi_interface_t0EE8instanceEv>
    }
   d4d16:	e8bd 4008 	ldmia.w	sp!, {r3, lr}
        instance().endTransaction();
   d4d1a:	f002 ba9c 	b.w	d7256 <_ZN8SPIClass14endTransactionEv>

000d4d1e <_ZN8particle8SpiProxyIL19hal_spi_interface_t0EE16beginTransactionERKNS_11SPISettingsE.isra.0.constprop.0>:
    int32_t beginTransaction(const particle::SPISettings& settings) {
   d4d1e:	b507      	push	{r0, r1, r2, lr}
   d4d20:	9001      	str	r0, [sp, #4]
        return instance().beginTransaction(settings);
   d4d22:	f7ff ffa3 	bl	d4c6c <_ZN8particle8SpiProxyIL19hal_spi_interface_t0EE8instanceEv>
   d4d26:	9901      	ldr	r1, [sp, #4]
    }
   d4d28:	b003      	add	sp, #12
   d4d2a:	f85d eb04 	ldr.w	lr, [sp], #4
        return instance().beginTransaction(settings);
   d4d2e:	f002 baab 	b.w	d7288 <_ZN8SPIClass16beginTransactionERKN8particle11SPISettingsE>
	...

000d4d34 <_ZN15Adafruit_BME2806read24Eh>:
{
   d4d34:	b530      	push	{r4, r5, lr}
    if (_cs == -1) {
   d4d36:	f990 3010 	ldrsb.w	r3, [r0, #16]
   d4d3a:	3301      	adds	r3, #1
{
   d4d3c:	b085      	sub	sp, #20
   d4d3e:	4604      	mov	r4, r0
   d4d40:	460d      	mov	r5, r1
    if (_cs == -1) {
   d4d42:	d123      	bne.n	d4d8c <_ZN15Adafruit_BME2806read24Eh+0x58>
        _wire -> beginTransmission((uint8_t)_i2caddr);
   d4d44:	7901      	ldrb	r1, [r0, #4]
   d4d46:	6800      	ldr	r0, [r0, #0]
   d4d48:	f002 ffa4 	bl	d7c94 <_ZN7TwoWire17beginTransmissionEh>
        _wire -> write((uint8_t)reg);
   d4d4c:	6820      	ldr	r0, [r4, #0]
   d4d4e:	6803      	ldr	r3, [r0, #0]
   d4d50:	4629      	mov	r1, r5
   d4d52:	689b      	ldr	r3, [r3, #8]
   d4d54:	4798      	blx	r3
        _wire -> endTransmission();
   d4d56:	6820      	ldr	r0, [r4, #0]
   d4d58:	f002 ffa4 	bl	d7ca4 <_ZN7TwoWire15endTransmissionEv>
        _wire -> requestFrom((uint8_t)_i2caddr, (byte)3);
   d4d5c:	7921      	ldrb	r1, [r4, #4]
   d4d5e:	6820      	ldr	r0, [r4, #0]
   d4d60:	2203      	movs	r2, #3
   d4d62:	f002 ff94 	bl	d7c8e <_ZN7TwoWire11requestFromEhj>
        value = _wire -> read();
   d4d66:	6820      	ldr	r0, [r4, #0]
   d4d68:	6803      	ldr	r3, [r0, #0]
   d4d6a:	695b      	ldr	r3, [r3, #20]
   d4d6c:	4798      	blx	r3
        value <<= 8;
   d4d6e:	0205      	lsls	r5, r0, #8
        value |= _wire -> read();
   d4d70:	6820      	ldr	r0, [r4, #0]
   d4d72:	6803      	ldr	r3, [r0, #0]
   d4d74:	695b      	ldr	r3, [r3, #20]
   d4d76:	4798      	blx	r3
   d4d78:	4328      	orrs	r0, r5
        value <<= 8;
   d4d7a:	0205      	lsls	r5, r0, #8
        value |= _wire -> read();
   d4d7c:	6820      	ldr	r0, [r4, #0]
   d4d7e:	6803      	ldr	r3, [r0, #0]
   d4d80:	695b      	ldr	r3, [r3, #20]
   d4d82:	4798      	blx	r3
   d4d84:	4305      	orrs	r5, r0
}
   d4d86:	4628      	mov	r0, r5
   d4d88:	b005      	add	sp, #20
   d4d8a:	bd30      	pop	{r4, r5, pc}
        if (_sck == -1)
   d4d8c:	f990 3013 	ldrsb.w	r3, [r0, #19]
   d4d90:	3301      	adds	r3, #1
   d4d92:	d10c      	bne.n	d4dae <_ZN15Adafruit_BME2806read24Eh+0x7a>
      dataMode_{dataMode}
   d4d94:	4b1a      	ldr	r3, [pc, #104]	; (d4e00 <_ZN15Adafruit_BME2806read24Eh+0xcc>)
   d4d96:	9300      	str	r3, [sp, #0]
   d4d98:	2300      	movs	r3, #0
   d4d9a:	f88d 3004 	strb.w	r3, [sp, #4]
   d4d9e:	4b19      	ldr	r3, [pc, #100]	; (d4e04 <_ZN15Adafruit_BME2806read24Eh+0xd0>)
   d4da0:	9302      	str	r3, [sp, #8]
            SPI.beginTransaction(SPISettings(500000, MSBFIRST, SPI_MODE0));
   d4da2:	4668      	mov	r0, sp
   d4da4:	2301      	movs	r3, #1
   d4da6:	f8ad 300c 	strh.w	r3, [sp, #12]
   d4daa:	f7ff ffb8 	bl	d4d1e <_ZN8particle8SpiProxyIL19hal_spi_interface_t0EE16beginTransactionERKNS_11SPISettingsE.isra.0.constprop.0>
        digitalWrite(_cs, LOW);
   d4dae:	f994 0010 	ldrsb.w	r0, [r4, #16]
   d4db2:	2100      	movs	r1, #0
   d4db4:	b280      	uxth	r0, r0
   d4db6:	f003 f876 	bl	d7ea6 <digitalWrite>
        spixfer(reg | 0x80); // read, bit 7 high
   d4dba:	f045 0180 	orr.w	r1, r5, #128	; 0x80
   d4dbe:	4620      	mov	r0, r4
   d4dc0:	f7ff ff70 	bl	d4ca4 <_ZN15Adafruit_BME2807spixferEh>
        value = spixfer(0);
   d4dc4:	2100      	movs	r1, #0
   d4dc6:	4620      	mov	r0, r4
   d4dc8:	f7ff ff6c 	bl	d4ca4 <_ZN15Adafruit_BME2807spixferEh>
        value |= spixfer(0);
   d4dcc:	2100      	movs	r1, #0
        value <<= 8;
   d4dce:	0205      	lsls	r5, r0, #8
        value |= spixfer(0);
   d4dd0:	4620      	mov	r0, r4
   d4dd2:	f7ff ff67 	bl	d4ca4 <_ZN15Adafruit_BME2807spixferEh>
   d4dd6:	4328      	orrs	r0, r5
        value <<= 8;
   d4dd8:	0205      	lsls	r5, r0, #8
        value |= spixfer(0);
   d4dda:	2100      	movs	r1, #0
   d4ddc:	4620      	mov	r0, r4
   d4dde:	f7ff ff61 	bl	d4ca4 <_ZN15Adafruit_BME2807spixferEh>
   d4de2:	4305      	orrs	r5, r0
        digitalWrite(_cs, HIGH);
   d4de4:	f994 0010 	ldrsb.w	r0, [r4, #16]
   d4de8:	2101      	movs	r1, #1
   d4dea:	b280      	uxth	r0, r0
   d4dec:	f003 f85b 	bl	d7ea6 <digitalWrite>
        if (_sck == -1)
   d4df0:	f994 3013 	ldrsb.w	r3, [r4, #19]
   d4df4:	3301      	adds	r3, #1
   d4df6:	d1c6      	bne.n	d4d86 <_ZN15Adafruit_BME2806read24Eh+0x52>
            SPI.endTransaction(); // release the SPI bus
   d4df8:	f7ff ff8a 	bl	d4d10 <_ZN8particle8SpiProxyIL19hal_spi_interface_t0EE14endTransactionEv.isra.0>
    return value;
   d4dfc:	e7c3      	b.n	d4d86 <_ZN15Adafruit_BME2806read24Eh+0x52>
   d4dfe:	bf00      	nop
   d4e00:	000da824 	.word	0x000da824
   d4e04:	0007a120 	.word	0x0007a120

000d4e08 <_ZN15Adafruit_BME28015readTemperatureEv>:
{
   d4e08:	b510      	push	{r4, lr}
    int32_t adc_T = read24(BME280_REGISTER_TEMPDATA);
   d4e0a:	21fa      	movs	r1, #250	; 0xfa
{
   d4e0c:	4604      	mov	r4, r0
    int32_t adc_T = read24(BME280_REGISTER_TEMPDATA);
   d4e0e:	f7ff ff91 	bl	d4d34 <_ZN15Adafruit_BME2806read24Eh>
    if (adc_T == 0x800000) // value in case temp measurement was disabled
   d4e12:	f5b0 0f00 	cmp.w	r0, #8388608	; 0x800000
   d4e16:	d01e      	beq.n	d4e56 <_ZN15Adafruit_BME28015readTemperatureEv+0x4e>
    var1 = ((((adc_T>>3) - ((int32_t)_bme280_calib.dig_T1 <<1))) *
   d4e18:	8aa1      	ldrh	r1, [r4, #20]
    return T/100;
   d4e1a:	ed9f 7a10 	vldr	s14, [pc, #64]	; d4e5c <_ZN15Adafruit_BME28015readTemperatureEv+0x54>
    var1 = ((((adc_T>>3) - ((int32_t)_bme280_calib.dig_T1 <<1))) *
   d4e1e:	004b      	lsls	r3, r1, #1
    var2 = (((((adc_T>>4) - ((int32_t)_bme280_calib.dig_T1)) *
   d4e20:	ebc1 2220 	rsb	r2, r1, r0, asr #8
    var1 = ((((adc_T>>3) - ((int32_t)_bme280_calib.dig_T1 <<1))) *
   d4e24:	ebc3 11e0 	rsb	r1, r3, r0, asr #7
            ((int32_t)_bme280_calib.dig_T2)) >> 11;
   d4e28:	f9b4 3016 	ldrsh.w	r3, [r4, #22]
    var2 = (((((adc_T>>4) - ((int32_t)_bme280_calib.dig_T1)) *
   d4e2c:	4352      	muls	r2, r2
    var1 = ((((adc_T>>3) - ((int32_t)_bme280_calib.dig_T1 <<1))) *
   d4e2e:	4359      	muls	r1, r3
            ((int32_t)_bme280_calib.dig_T3)) >> 14;
   d4e30:	f9b4 3018 	ldrsh.w	r3, [r4, #24]
              ((adc_T>>4) - ((int32_t)_bme280_calib.dig_T1))) >> 12) *
   d4e34:	1312      	asrs	r2, r2, #12
   d4e36:	4353      	muls	r3, r2
    var2 = (((((adc_T>>4) - ((int32_t)_bme280_calib.dig_T1)) *
   d4e38:	139b      	asrs	r3, r3, #14
    t_fine = var1 + var2;
   d4e3a:	eb03 23e1 	add.w	r3, r3, r1, asr #11
   d4e3e:	60e3      	str	r3, [r4, #12]
    float T = (t_fine * 5 + 128) >> 8;
   d4e40:	eb03 0383 	add.w	r3, r3, r3, lsl #2
   d4e44:	3380      	adds	r3, #128	; 0x80
   d4e46:	121b      	asrs	r3, r3, #8
   d4e48:	ee07 3a90 	vmov	s15, r3
   d4e4c:	eef8 7ae7 	vcvt.f32.s32	s15, s15
    return T/100;
   d4e50:	ee87 0a87 	vdiv.f32	s0, s15, s14
}
   d4e54:	bd10      	pop	{r4, pc}
        return NAN;
   d4e56:	ed9f 0a02 	vldr	s0, [pc, #8]	; d4e60 <_ZN15Adafruit_BME28015readTemperatureEv+0x58>
   d4e5a:	e7fb      	b.n	d4e54 <_ZN15Adafruit_BME28015readTemperatureEv+0x4c>
   d4e5c:	42c80000 	.word	0x42c80000
   d4e60:	7fc00000 	.word	0x7fc00000

000d4e64 <_ZN15Adafruit_BME28012readPressureEv>:
float Adafruit_BME280::readPressure(void) {
   d4e64:	e92d 43f8 	stmdb	sp!, {r3, r4, r5, r6, r7, r8, r9, lr}
   d4e68:	4604      	mov	r4, r0
    readTemperature(); // must be done first to get t_fine
   d4e6a:	f7ff ffcd 	bl	d4e08 <_ZN15Adafruit_BME28015readTemperatureEv>
    int32_t adc_P = read24(BME280_REGISTER_PRESSUREDATA);
   d4e6e:	21f7      	movs	r1, #247	; 0xf7
   d4e70:	4620      	mov	r0, r4
   d4e72:	f7ff ff5f 	bl	d4d34 <_ZN15Adafruit_BME2806read24Eh>
    if (adc_P == 0x800000) // value in case pressure measurement was disabled
   d4e76:	f5b0 0f00 	cmp.w	r0, #8388608	; 0x800000
    int32_t adc_P = read24(BME280_REGISTER_PRESSUREDATA);
   d4e7a:	4605      	mov	r5, r0
    if (adc_P == 0x800000) // value in case pressure measurement was disabled
   d4e7c:	f000 80bf 	beq.w	d4ffe <_ZN15Adafruit_BME28012readPressureEv+0x19a>
    var1 = ((int64_t)t_fine) - 128000;
   d4e80:	68e0      	ldr	r0, [r4, #12]
           ((var1 * (int64_t)_bme280_calib.dig_P2)<<12);
   d4e82:	f9b4 601c 	ldrsh.w	r6, [r4, #28]
    var1 = ((int64_t)t_fine) - 128000;
   d4e86:	f5b0 33fa 	subs.w	r3, r0, #128000	; 0x1f400
   d4e8a:	ea4f 71e0 	mov.w	r1, r0, asr #31
   d4e8e:	f141 32ff 	adc.w	r2, r1, #4294967295
    var2 = var1 * var1 * (int64_t)_bme280_calib.dig_P6;
   d4e92:	fba3 8903 	umull	r8, r9, r3, r3
   d4e96:	fb03 f102 	mul.w	r1, r3, r2
   d4e9a:	eb09 0941 	add.w	r9, r9, r1, lsl #1
           ((var1 * (int64_t)_bme280_calib.dig_P2)<<12);
   d4e9e:	17f7      	asrs	r7, r6, #31
   d4ea0:	fb06 f102 	mul.w	r1, r6, r2
   d4ea4:	fb03 1107 	mla	r1, r3, r7, r1
   d4ea8:	fba6 6703 	umull	r6, r7, r6, r3
   d4eac:	440f      	add	r7, r1
   d4eae:	0339      	lsls	r1, r7, #12
   d4eb0:	ea41 5116 	orr.w	r1, r1, r6, lsr #20
   d4eb4:	0330      	lsls	r0, r6, #12
    var1 = ((var1 * var1 * (int64_t)_bme280_calib.dig_P3)>>8) +
   d4eb6:	f9b4 601e 	ldrsh.w	r6, [r4, #30]
   d4eba:	17f7      	asrs	r7, r6, #31
   d4ebc:	fb06 fc09 	mul.w	ip, r6, r9
   d4ec0:	fb08 cc07 	mla	ip, r8, r7, ip
   d4ec4:	fba6 6708 	umull	r6, r7, r6, r8
   d4ec8:	4467      	add	r7, ip
   d4eca:	ea4f 2c16 	mov.w	ip, r6, lsr #8
   d4ece:	ea4c 6c07 	orr.w	ip, ip, r7, lsl #24
    var1 = (((((int64_t)1)<<47)+var1))*((int64_t)_bme280_calib.dig_P1)>>33;
   d4ed2:	8b66      	ldrh	r6, [r4, #26]
    var1 = ((var1 * var1 * (int64_t)_bme280_calib.dig_P3)>>8) +
   d4ed4:	ea4f 2e27 	mov.w	lr, r7, asr #8
   d4ed8:	eb1c 0000 	adds.w	r0, ip, r0
   d4edc:	eb4e 0e01 	adc.w	lr, lr, r1
    var1 = (((((int64_t)1)<<47)+var1))*((int64_t)_bme280_calib.dig_P1)>>33;
   d4ee0:	3000      	adds	r0, #0
   d4ee2:	f54e 4e00 	adc.w	lr, lr, #32768	; 0x8000
   d4ee6:	fba0 0106 	umull	r0, r1, r0, r6
   d4eea:	fb06 110e 	mla	r1, r6, lr, r1
   d4eee:	104e      	asrs	r6, r1, #1
   d4ef0:	17cf      	asrs	r7, r1, #31
    if (var1 == 0) {
   d4ef2:	ea56 0107 	orrs.w	r1, r6, r7
   d4ef6:	f000 8085 	beq.w	d5004 <_ZN15Adafruit_BME28012readPressureEv+0x1a0>
    var2 = var1 * var1 * (int64_t)_bme280_calib.dig_P6;
   d4efa:	f9b4 0024 	ldrsh.w	r0, [r4, #36]	; 0x24
   d4efe:	fb00 fc09 	mul.w	ip, r0, r9
   d4f02:	17c1      	asrs	r1, r0, #31
   d4f04:	fb08 cc01 	mla	ip, r8, r1, ip
   d4f08:	fba0 0108 	umull	r0, r1, r0, r8
    var2 = var2 + ((var1*(int64_t)_bme280_calib.dig_P5)<<17);
   d4f0c:	f9b4 8022 	ldrsh.w	r8, [r4, #34]	; 0x22
   d4f10:	ea4f 79e8 	mov.w	r9, r8, asr #31
   d4f14:	fb08 f202 	mul.w	r2, r8, r2
   d4f18:	fb03 2209 	mla	r2, r3, r9, r2
   d4f1c:	fba8 8903 	umull	r8, r9, r8, r3
   d4f20:	4491      	add	r9, r2
    var2 = var1 * var1 * (int64_t)_bme280_calib.dig_P6;
   d4f22:	4461      	add	r1, ip
    var2 = var2 + ((var1*(int64_t)_bme280_calib.dig_P5)<<17);
   d4f24:	ea4f 4248 	mov.w	r2, r8, lsl #17
   d4f28:	ea4f 4c49 	mov.w	ip, r9, lsl #17
    adc_P >>= 4;
   d4f2c:	112d      	asrs	r5, r5, #4
    var2 = var2 + ((var1*(int64_t)_bme280_calib.dig_P5)<<17);
   d4f2e:	1812      	adds	r2, r2, r0
    p = 1048576 - adc_P;
   d4f30:	f5c5 1580 	rsb	r5, r5, #1048576	; 0x100000
    var2 = var2 + ((var1*(int64_t)_bme280_calib.dig_P5)<<17);
   d4f34:	ea4c 3cd8 	orr.w	ip, ip, r8, lsr #15
    var2 = var2 + (((int64_t)_bme280_calib.dig_P4)<<35);
   d4f38:	f9b4 8020 	ldrsh.w	r8, [r4, #32]
    var2 = var2 + ((var1*(int64_t)_bme280_calib.dig_P5)<<17);
   d4f3c:	eb4c 0c01 	adc.w	ip, ip, r1
    var2 = var2 + (((int64_t)_bme280_calib.dig_P4)<<35);
   d4f40:	2300      	movs	r3, #0
    p = 1048576 - adc_P;
   d4f42:	17e9      	asrs	r1, r5, #31
    var2 = var2 + (((int64_t)_bme280_calib.dig_P4)<<35);
   d4f44:	189b      	adds	r3, r3, r2
    p = (((p<<31) - var2)*3125) / var1;
   d4f46:	ea4f 7ec1 	mov.w	lr, r1, lsl #31
   d4f4a:	ea4f 70c5 	mov.w	r0, r5, lsl #31
    var2 = var2 + (((int64_t)_bme280_calib.dig_P4)<<35);
   d4f4e:	ea4f 01c8 	mov.w	r1, r8, lsl #3
   d4f52:	eb41 0c0c 	adc.w	ip, r1, ip
    p = (((p<<31) - var2)*3125) / var1;
   d4f56:	ea4e 0e55 	orr.w	lr, lr, r5, lsr #1
   d4f5a:	1ac0      	subs	r0, r0, r3
   d4f5c:	f640 4335 	movw	r3, #3125	; 0xc35
   d4f60:	eb6e 0e0c 	sbc.w	lr, lr, ip
   d4f64:	fba0 0103 	umull	r0, r1, r0, r3
   d4f68:	fb03 110e 	mla	r1, r3, lr, r1
   d4f6c:	4632      	mov	r2, r6
   d4f6e:	463b      	mov	r3, r7
   d4f70:	f004 ffb6 	bl	d9ee0 <__aeabi_ldivmod>
    var1 = (((int64_t)_bme280_calib.dig_P9) * (p>>13) * (p>>13)) >> 25;
   d4f74:	f9b4 202a 	ldrsh.w	r2, [r4, #42]	; 0x2a
   d4f78:	134d      	asrs	r5, r1, #13
   d4f7a:	0b46      	lsrs	r6, r0, #13
   d4f7c:	ea46 46c1 	orr.w	r6, r6, r1, lsl #19
   d4f80:	fb02 f705 	mul.w	r7, r2, r5
   d4f84:	17d3      	asrs	r3, r2, #31
   d4f86:	fb06 7703 	mla	r7, r6, r3, r7
   d4f8a:	fba2 2306 	umull	r2, r3, r2, r6
   d4f8e:	443b      	add	r3, r7
   d4f90:	4355      	muls	r5, r2
   d4f92:	fb06 5503 	mla	r5, r6, r3, r5
   d4f96:	fba2 2306 	umull	r2, r3, r2, r6
   d4f9a:	442b      	add	r3, r5
   d4f9c:	0e55      	lsrs	r5, r2, #25
   d4f9e:	ea45 15c3 	orr.w	r5, r5, r3, lsl #7
    var2 = (((int64_t)_bme280_calib.dig_P8) * p) >> 19;
   d4fa2:	f9b4 2028 	ldrsh.w	r2, [r4, #40]	; 0x28
    p = ((p + var1 + var2) >> 8) + (((int64_t)_bme280_calib.dig_P7)<<4);
   d4fa6:	f9b4 4026 	ldrsh.w	r4, [r4, #38]	; 0x26
   d4faa:	182d      	adds	r5, r5, r0
    var1 = (((int64_t)_bme280_calib.dig_P9) * (p>>13) * (p>>13)) >> 25;
   d4fac:	ea4f 6663 	mov.w	r6, r3, asr #25
    p = ((p + var1 + var2) >> 8) + (((int64_t)_bme280_calib.dig_P7)<<4);
   d4fb0:	eb41 0606 	adc.w	r6, r1, r6
    var2 = (((int64_t)_bme280_calib.dig_P8) * p) >> 19;
   d4fb4:	17d3      	asrs	r3, r2, #31
   d4fb6:	4351      	muls	r1, r2
   d4fb8:	fb00 1103 	mla	r1, r0, r3, r1
   d4fbc:	fba2 2300 	umull	r2, r3, r2, r0
   d4fc0:	440b      	add	r3, r1
   d4fc2:	0cd1      	lsrs	r1, r2, #19
   d4fc4:	ea41 3143 	orr.w	r1, r1, r3, lsl #13
    p = ((p + var1 + var2) >> 8) + (((int64_t)_bme280_calib.dig_P7)<<4);
   d4fc8:	186d      	adds	r5, r5, r1
    var2 = (((int64_t)_bme280_calib.dig_P8) * p) >> 19;
   d4fca:	ea4f 40e3 	mov.w	r0, r3, asr #19
    p = ((p + var1 + var2) >> 8) + (((int64_t)_bme280_calib.dig_P7)<<4);
   d4fce:	eb46 0300 	adc.w	r3, r6, r0
   d4fd2:	0a2a      	lsrs	r2, r5, #8
   d4fd4:	17e5      	asrs	r5, r4, #31
   d4fd6:	ea42 6203 	orr.w	r2, r2, r3, lsl #24
   d4fda:	1219      	asrs	r1, r3, #8
   d4fdc:	0120      	lsls	r0, r4, #4
   d4fde:	012b      	lsls	r3, r5, #4
   d4fe0:	ea43 7314 	orr.w	r3, r3, r4, lsr #28
    return (float)p/256;
   d4fe4:	1880      	adds	r0, r0, r2
   d4fe6:	eb43 0101 	adc.w	r1, r3, r1
   d4fea:	f004 ff3b 	bl	d9e64 <__aeabi_l2f>
   d4fee:	ed9f 0a07 	vldr	s0, [pc, #28]	; d500c <_ZN15Adafruit_BME28012readPressureEv+0x1a8>
   d4ff2:	ee07 0a90 	vmov	s15, r0
   d4ff6:	ee27 0a80 	vmul.f32	s0, s15, s0
}
   d4ffa:	e8bd 83f8 	ldmia.w	sp!, {r3, r4, r5, r6, r7, r8, r9, pc}
        return NAN;
   d4ffe:	ed9f 0a04 	vldr	s0, [pc, #16]	; d5010 <_ZN15Adafruit_BME28012readPressureEv+0x1ac>
   d5002:	e7fa      	b.n	d4ffa <_ZN15Adafruit_BME28012readPressureEv+0x196>
        return 0; // avoid exception caused by division by zero
   d5004:	ed9f 0a03 	vldr	s0, [pc, #12]	; d5014 <_ZN15Adafruit_BME28012readPressureEv+0x1b0>
   d5008:	e7f7      	b.n	d4ffa <_ZN15Adafruit_BME28012readPressureEv+0x196>
   d500a:	bf00      	nop
   d500c:	3b800000 	.word	0x3b800000
   d5010:	7fc00000 	.word	0x7fc00000
   d5014:	00000000 	.word	0x00000000

000d5018 <_ZN15Adafruit_BME28012readAltitudeEf>:
{
   d5018:	b508      	push	{r3, lr}
   d501a:	ed2d 8b02 	vpush	{d8}
   d501e:	eeb0 8a40 	vmov.f32	s16, s0
    float atmospheric = readPressure() / 100.0F;
   d5022:	f7ff ff1f 	bl	d4e64 <_ZN15Adafruit_BME28012readPressureEv>
   d5026:	ed9f 7a16 	vldr	s14, [pc, #88]	; d5080 <_ZN15Adafruit_BME28012readAltitudeEf+0x68>
   d502a:	eec0 7a07 	vdiv.f32	s15, s0, s14
    inline _GLIBCXX_CONSTEXPR
    typename __gnu_cxx::__promote_2<_Tp, _Up>::__type
    pow(_Tp __x, _Up __y)
    {
      typedef typename __gnu_cxx::__promote_2<_Tp, _Up>::__type __type;
      return pow(__type(__x), __type(__y));
   d502e:	eec7 7a88 	vdiv.f32	s15, s15, s16
   d5032:	ee17 0a90 	vmov	r0, s15
   d5036:	f004 faa5 	bl	d9584 <__aeabi_f2d>
   d503a:	ed9f 1b0d 	vldr	d1, [pc, #52]	; d5070 <_ZN15Adafruit_BME28012readAltitudeEf+0x58>
   d503e:	ec41 0b10 	vmov	d0, r0, r1
   d5042:	f002 ff9d 	bl	d7f80 <pow>
    return 44330.0 * (1.0 - pow(atmospheric / seaLevel, 0.1903));
   d5046:	490f      	ldr	r1, [pc, #60]	; (d5084 <_ZN15Adafruit_BME28012readAltitudeEf+0x6c>)
   d5048:	ec53 2b10 	vmov	r2, r3, d0
   d504c:	2000      	movs	r0, #0
   d504e:	f004 f939 	bl	d92c4 <__aeabi_dsub>
   d5052:	a309      	add	r3, pc, #36	; (adr r3, d5078 <_ZN15Adafruit_BME28012readAltitudeEf+0x60>)
   d5054:	e9d3 2300 	ldrd	r2, r3, [r3]
   d5058:	f004 faec 	bl	d9634 <__aeabi_dmul>
   d505c:	f004 fde2 	bl	d9c24 <__aeabi_d2f>
}
   d5060:	ecbd 8b02 	vpop	{d8}
   d5064:	ee00 0a10 	vmov	s0, r0
   d5068:	bd08      	pop	{r3, pc}
   d506a:	bf00      	nop
   d506c:	f3af 8000 	nop.w
   d5070:	1a36e2eb 	.word	0x1a36e2eb
   d5074:	3fc85bc0 	.word	0x3fc85bc0
   d5078:	00000000 	.word	0x00000000
   d507c:	40e5a540 	.word	0x40e5a540
   d5080:	42c80000 	.word	0x42c80000
   d5084:	3ff00000 	.word	0x3ff00000

000d5088 <_ZN15Adafruit_BME2806read16Eh>:
{
   d5088:	b530      	push	{r4, r5, lr}
    if (_cs == -1) {
   d508a:	f990 3010 	ldrsb.w	r3, [r0, #16]
   d508e:	3301      	adds	r3, #1
{
   d5090:	b085      	sub	sp, #20
   d5092:	4604      	mov	r4, r0
   d5094:	460d      	mov	r5, r1
    if (_cs == -1) {
   d5096:	d11f      	bne.n	d50d8 <_ZN15Adafruit_BME2806read16Eh+0x50>
        _wire -> beginTransmission((uint8_t)_i2caddr);
   d5098:	7901      	ldrb	r1, [r0, #4]
   d509a:	6800      	ldr	r0, [r0, #0]
   d509c:	f002 fdfa 	bl	d7c94 <_ZN7TwoWire17beginTransmissionEh>
        _wire -> write((uint8_t)reg);
   d50a0:	6820      	ldr	r0, [r4, #0]
   d50a2:	6803      	ldr	r3, [r0, #0]
   d50a4:	4629      	mov	r1, r5
   d50a6:	689b      	ldr	r3, [r3, #8]
   d50a8:	4798      	blx	r3
        _wire -> endTransmission();
   d50aa:	6820      	ldr	r0, [r4, #0]
   d50ac:	f002 fdfa 	bl	d7ca4 <_ZN7TwoWire15endTransmissionEv>
        _wire -> requestFrom((uint8_t)_i2caddr, (byte)2);
   d50b0:	7921      	ldrb	r1, [r4, #4]
   d50b2:	6820      	ldr	r0, [r4, #0]
   d50b4:	2202      	movs	r2, #2
   d50b6:	f002 fdea 	bl	d7c8e <_ZN7TwoWire11requestFromEhj>
        value = (_wire -> read() << 8) | _wire -> read();
   d50ba:	6820      	ldr	r0, [r4, #0]
   d50bc:	6803      	ldr	r3, [r0, #0]
   d50be:	695b      	ldr	r3, [r3, #20]
   d50c0:	4798      	blx	r3
   d50c2:	4605      	mov	r5, r0
   d50c4:	6820      	ldr	r0, [r4, #0]
   d50c6:	6803      	ldr	r3, [r0, #0]
   d50c8:	695b      	ldr	r3, [r3, #20]
   d50ca:	4798      	blx	r3
   d50cc:	ea40 2005 	orr.w	r0, r0, r5, lsl #8
   d50d0:	b285      	uxth	r5, r0
}
   d50d2:	4628      	mov	r0, r5
   d50d4:	b005      	add	sp, #20
   d50d6:	bd30      	pop	{r4, r5, pc}
        if (_sck == -1)
   d50d8:	f990 3013 	ldrsb.w	r3, [r0, #19]
   d50dc:	3301      	adds	r3, #1
   d50de:	d10c      	bne.n	d50fa <_ZN15Adafruit_BME2806read16Eh+0x72>
   d50e0:	4b18      	ldr	r3, [pc, #96]	; (d5144 <_ZN15Adafruit_BME2806read16Eh+0xbc>)
   d50e2:	9300      	str	r3, [sp, #0]
   d50e4:	2300      	movs	r3, #0
   d50e6:	f88d 3004 	strb.w	r3, [sp, #4]
   d50ea:	4b17      	ldr	r3, [pc, #92]	; (d5148 <_ZN15Adafruit_BME2806read16Eh+0xc0>)
   d50ec:	9302      	str	r3, [sp, #8]
            SPI.beginTransaction(SPISettings(500000, MSBFIRST, SPI_MODE0));
   d50ee:	4668      	mov	r0, sp
   d50f0:	2301      	movs	r3, #1
   d50f2:	f8ad 300c 	strh.w	r3, [sp, #12]
   d50f6:	f7ff fe12 	bl	d4d1e <_ZN8particle8SpiProxyIL19hal_spi_interface_t0EE16beginTransactionERKNS_11SPISettingsE.isra.0.constprop.0>
        digitalWrite(_cs, LOW);
   d50fa:	f994 0010 	ldrsb.w	r0, [r4, #16]
   d50fe:	2100      	movs	r1, #0
   d5100:	b280      	uxth	r0, r0
   d5102:	f002 fed0 	bl	d7ea6 <digitalWrite>
        spixfer(reg | 0x80); // read, bit 7 high
   d5106:	f045 0180 	orr.w	r1, r5, #128	; 0x80
   d510a:	4620      	mov	r0, r4
   d510c:	f7ff fdca 	bl	d4ca4 <_ZN15Adafruit_BME2807spixferEh>
        value = (spixfer(0) << 8) | spixfer(0);
   d5110:	2100      	movs	r1, #0
   d5112:	4620      	mov	r0, r4
   d5114:	f7ff fdc6 	bl	d4ca4 <_ZN15Adafruit_BME2807spixferEh>
   d5118:	2100      	movs	r1, #0
   d511a:	4605      	mov	r5, r0
   d511c:	4620      	mov	r0, r4
   d511e:	f7ff fdc1 	bl	d4ca4 <_ZN15Adafruit_BME2807spixferEh>
   d5122:	ea40 2005 	orr.w	r0, r0, r5, lsl #8
   d5126:	b285      	uxth	r5, r0
        digitalWrite(_cs, HIGH);
   d5128:	f994 0010 	ldrsb.w	r0, [r4, #16]
   d512c:	2101      	movs	r1, #1
   d512e:	b280      	uxth	r0, r0
   d5130:	f002 feb9 	bl	d7ea6 <digitalWrite>
        if (_sck == -1)
   d5134:	f994 3013 	ldrsb.w	r3, [r4, #19]
   d5138:	3301      	adds	r3, #1
   d513a:	d1ca      	bne.n	d50d2 <_ZN15Adafruit_BME2806read16Eh+0x4a>
            SPI.endTransaction(); // release the SPI bus
   d513c:	f7ff fde8 	bl	d4d10 <_ZN8particle8SpiProxyIL19hal_spi_interface_t0EE14endTransactionEv.isra.0>
   d5140:	e7c7      	b.n	d50d2 <_ZN15Adafruit_BME2806read16Eh+0x4a>
   d5142:	bf00      	nop
   d5144:	000da824 	.word	0x000da824
   d5148:	0007a120 	.word	0x0007a120

000d514c <_ZN15Adafruit_BME2809read16_LEEh>:
uint16_t Adafruit_BME280::read16_LE(byte reg) {
   d514c:	b508      	push	{r3, lr}
    uint16_t temp = read16(reg);
   d514e:	f7ff ff9b 	bl	d5088 <_ZN15Adafruit_BME2806read16Eh>
    return (temp >> 8) | (temp << 8);
   d5152:	ba40      	rev16	r0, r0
}
   d5154:	b280      	uxth	r0, r0
   d5156:	bd08      	pop	{r3, pc}

000d5158 <_ZN15Adafruit_BME28012readHumidityEv>:
float Adafruit_BME280::readHumidity(void) {
   d5158:	b538      	push	{r3, r4, r5, lr}
   d515a:	4604      	mov	r4, r0
    readTemperature(); // must be done first to get t_fine
   d515c:	f7ff fe54 	bl	d4e08 <_ZN15Adafruit_BME28015readTemperatureEv>
    int32_t adc_H = read16(BME280_REGISTER_HUMIDDATA);
   d5160:	21fd      	movs	r1, #253	; 0xfd
   d5162:	4620      	mov	r0, r4
   d5164:	f7ff ff90 	bl	d5088 <_ZN15Adafruit_BME2806read16Eh>
    if (adc_H == 0x8000) // value in case humidity measurement was disabled
   d5168:	f5b0 4f00 	cmp.w	r0, #32768	; 0x8000
   d516c:	d038      	beq.n	d51e0 <_ZN15Adafruit_BME28012readHumidityEv+0x88>
    v_x1_u32r = (((((adc_H << 14) - (((int32_t)_bme280_calib.dig_H4) << 20) -
   d516e:	f9b4 5032 	ldrsh.w	r5, [r4, #50]	; 0x32
    v_x1_u32r = (t_fine - ((int32_t)76800));
   d5172:	68e2      	ldr	r2, [r4, #12]
                    (((int32_t)_bme280_calib.dig_H5) * v_x1_u32r)) + ((int32_t)16384)) >> 15) *
   d5174:	f9b4 3034 	ldrsh.w	r3, [r4, #52]	; 0x34
    v_x1_u32r = (((((adc_H << 14) - (((int32_t)_bme280_calib.dig_H4) << 20) -
   d5178:	052d      	lsls	r5, r5, #20
    v_x1_u32r = (t_fine - ((int32_t)76800));
   d517a:	f5a2 3296 	sub.w	r2, r2, #76800	; 0x12c00
    v_x1_u32r = (((((adc_H << 14) - (((int32_t)_bme280_calib.dig_H4) << 20) -
   d517e:	ebc5 3080 	rsb	r0, r5, r0, lsl #14
   d5182:	fb02 0313 	mls	r3, r2, r3, r0
                    (((int32_t)_bme280_calib.dig_H5) * v_x1_u32r)) + ((int32_t)16384)) >> 15) *
   d5186:	f503 4380 	add.w	r3, r3, #16384	; 0x4000
   d518a:	13d9      	asrs	r1, r3, #15
                      (((v_x1_u32r * ((int32_t)_bme280_calib.dig_H3)) >> 11) + ((int32_t)32768))) >> 10) +
   d518c:	f894 3030 	ldrb.w	r3, [r4, #48]	; 0x30
   d5190:	4353      	muls	r3, r2
   d5192:	12db      	asrs	r3, r3, #11
   d5194:	f503 4000 	add.w	r0, r3, #32768	; 0x8000
                 (((((((v_x1_u32r * ((int32_t)_bme280_calib.dig_H6)) >> 10) *
   d5198:	f994 3036 	ldrsb.w	r3, [r4, #54]	; 0x36
   d519c:	4353      	muls	r3, r2
   d519e:	129b      	asrs	r3, r3, #10
   d51a0:	4343      	muls	r3, r0
                      (((v_x1_u32r * ((int32_t)_bme280_calib.dig_H3)) >> 11) + ((int32_t)32768))) >> 10) +
   d51a2:	129b      	asrs	r3, r3, #10
   d51a4:	f503 1200 	add.w	r2, r3, #2097152	; 0x200000
                    ((int32_t)2097152)) * ((int32_t)_bme280_calib.dig_H2) + 8192) >> 14));
   d51a8:	f9b4 302e 	ldrsh.w	r3, [r4, #46]	; 0x2e
   d51ac:	4353      	muls	r3, r2
   d51ae:	f503 5300 	add.w	r3, r3, #8192	; 0x2000
   d51b2:	139b      	asrs	r3, r3, #14
    v_x1_u32r = (((((adc_H << 14) - (((int32_t)_bme280_calib.dig_H4) << 20) -
   d51b4:	434b      	muls	r3, r1
    v_x1_u32r = (v_x1_u32r - (((((v_x1_u32r >> 15) * (v_x1_u32r >> 15)) >> 7) *
   d51b6:	13da      	asrs	r2, r3, #15
                               ((int32_t)_bme280_calib.dig_H1)) >> 4));
   d51b8:	f894 102c 	ldrb.w	r1, [r4, #44]	; 0x2c
    v_x1_u32r = (v_x1_u32r - (((((v_x1_u32r >> 15) * (v_x1_u32r >> 15)) >> 7) *
   d51bc:	4352      	muls	r2, r2
   d51be:	11d2      	asrs	r2, r2, #7
   d51c0:	434a      	muls	r2, r1
   d51c2:	eba3 1322 	sub.w	r3, r3, r2, asr #4
    v_x1_u32r = (v_x1_u32r < 0) ? 0 : v_x1_u32r;
   d51c6:	ea23 73e3 	bic.w	r3, r3, r3, asr #31
    v_x1_u32r = (v_x1_u32r > 419430400) ? 419430400 : v_x1_u32r;
   d51ca:	f1b3 5fc8 	cmp.w	r3, #419430400	; 0x19000000
   d51ce:	bfa8      	it	ge
   d51d0:	f04f 53c8 	movge.w	r3, #419430400	; 0x19000000
    float h = (v_x1_u32r>>12);
   d51d4:	131b      	asrs	r3, r3, #12
   d51d6:	ee00 3a10 	vmov	s0, r3
    return  h / 1024.0;
   d51da:	eeba 0acb 	vcvt.f32.s32	s0, s0, #10
}
   d51de:	bd38      	pop	{r3, r4, r5, pc}
        return NAN;
   d51e0:	ed9f 0a01 	vldr	s0, [pc, #4]	; d51e8 <_ZN15Adafruit_BME28012readHumidityEv+0x90>
   d51e4:	e7fb      	b.n	d51de <_ZN15Adafruit_BME28012readHumidityEv+0x86>
   d51e6:	bf00      	nop
   d51e8:	7fc00000 	.word	0x7fc00000

000d51ec <_ZN15Adafruit_BME2805read8Eh>:
uint8_t Adafruit_BME280::read8(byte reg) {
   d51ec:	b530      	push	{r4, r5, lr}
    if (_cs == -1) {
   d51ee:	f990 3010 	ldrsb.w	r3, [r0, #16]
   d51f2:	3301      	adds	r3, #1
uint8_t Adafruit_BME280::read8(byte reg) {
   d51f4:	b085      	sub	sp, #20
   d51f6:	4604      	mov	r4, r0
   d51f8:	460d      	mov	r5, r1
    if (_cs == -1) {
   d51fa:	d118      	bne.n	d522e <_ZN15Adafruit_BME2805read8Eh+0x42>
        _wire -> beginTransmission((uint8_t)_i2caddr);
   d51fc:	7901      	ldrb	r1, [r0, #4]
   d51fe:	6800      	ldr	r0, [r0, #0]
   d5200:	f002 fd48 	bl	d7c94 <_ZN7TwoWire17beginTransmissionEh>
        _wire -> write((uint8_t)reg);
   d5204:	6820      	ldr	r0, [r4, #0]
   d5206:	6803      	ldr	r3, [r0, #0]
   d5208:	4629      	mov	r1, r5
   d520a:	689b      	ldr	r3, [r3, #8]
   d520c:	4798      	blx	r3
        _wire -> endTransmission();
   d520e:	6820      	ldr	r0, [r4, #0]
   d5210:	f002 fd48 	bl	d7ca4 <_ZN7TwoWire15endTransmissionEv>
        _wire -> requestFrom((uint8_t)_i2caddr, (byte)1);
   d5214:	7921      	ldrb	r1, [r4, #4]
   d5216:	6820      	ldr	r0, [r4, #0]
   d5218:	2201      	movs	r2, #1
   d521a:	f002 fd38 	bl	d7c8e <_ZN7TwoWire11requestFromEhj>
        value = _wire -> read();
   d521e:	6820      	ldr	r0, [r4, #0]
   d5220:	6803      	ldr	r3, [r0, #0]
   d5222:	695b      	ldr	r3, [r3, #20]
   d5224:	4798      	blx	r3
   d5226:	b2c5      	uxtb	r5, r0
}
   d5228:	4628      	mov	r0, r5
   d522a:	b005      	add	sp, #20
   d522c:	bd30      	pop	{r4, r5, pc}
        if (_sck == -1)
   d522e:	f990 3013 	ldrsb.w	r3, [r0, #19]
   d5232:	3301      	adds	r3, #1
   d5234:	d10c      	bne.n	d5250 <_ZN15Adafruit_BME2805read8Eh+0x64>
   d5236:	4b15      	ldr	r3, [pc, #84]	; (d528c <_ZN15Adafruit_BME2805read8Eh+0xa0>)
   d5238:	9300      	str	r3, [sp, #0]
   d523a:	2300      	movs	r3, #0
   d523c:	f88d 3004 	strb.w	r3, [sp, #4]
   d5240:	4b13      	ldr	r3, [pc, #76]	; (d5290 <_ZN15Adafruit_BME2805read8Eh+0xa4>)
   d5242:	9302      	str	r3, [sp, #8]
            SPI.beginTransaction(SPISettings(500000, MSBFIRST, SPI_MODE0));
   d5244:	4668      	mov	r0, sp
   d5246:	2301      	movs	r3, #1
   d5248:	f8ad 300c 	strh.w	r3, [sp, #12]
   d524c:	f7ff fd67 	bl	d4d1e <_ZN8particle8SpiProxyIL19hal_spi_interface_t0EE16beginTransactionERKNS_11SPISettingsE.isra.0.constprop.0>
        digitalWrite(_cs, LOW);
   d5250:	f994 0010 	ldrsb.w	r0, [r4, #16]
   d5254:	2100      	movs	r1, #0
   d5256:	b280      	uxth	r0, r0
   d5258:	f002 fe25 	bl	d7ea6 <digitalWrite>
        spixfer(reg | 0x80); // read, bit 7 high
   d525c:	f045 0180 	orr.w	r1, r5, #128	; 0x80
   d5260:	4620      	mov	r0, r4
   d5262:	f7ff fd1f 	bl	d4ca4 <_ZN15Adafruit_BME2807spixferEh>
        value = spixfer(0);
   d5266:	2100      	movs	r1, #0
   d5268:	4620      	mov	r0, r4
   d526a:	f7ff fd1b 	bl	d4ca4 <_ZN15Adafruit_BME2807spixferEh>
   d526e:	4605      	mov	r5, r0
        digitalWrite(_cs, HIGH);
   d5270:	f994 0010 	ldrsb.w	r0, [r4, #16]
   d5274:	2101      	movs	r1, #1
   d5276:	b280      	uxth	r0, r0
   d5278:	f002 fe15 	bl	d7ea6 <digitalWrite>
        if (_sck == -1)
   d527c:	f994 3013 	ldrsb.w	r3, [r4, #19]
   d5280:	3301      	adds	r3, #1
   d5282:	d1d1      	bne.n	d5228 <_ZN15Adafruit_BME2805read8Eh+0x3c>
            SPI.endTransaction(); // release the SPI bus
   d5284:	f7ff fd44 	bl	d4d10 <_ZN8particle8SpiProxyIL19hal_spi_interface_t0EE14endTransactionEv.isra.0>
   d5288:	e7ce      	b.n	d5228 <_ZN15Adafruit_BME2805read8Eh+0x3c>
   d528a:	bf00      	nop
   d528c:	000da824 	.word	0x000da824
   d5290:	0007a120 	.word	0x0007a120

000d5294 <_ZN15Adafruit_BME28020isReadingCalibrationEv>:
{
   d5294:	b508      	push	{r3, lr}
  uint8_t const rStatus = read8(BME280_REGISTER_STATUS);
   d5296:	21f3      	movs	r1, #243	; 0xf3
   d5298:	f7ff ffa8 	bl	d51ec <_ZN15Adafruit_BME2805read8Eh>
}
   d529c:	f000 0001 	and.w	r0, r0, #1
   d52a0:	bd08      	pop	{r3, pc}

000d52a2 <_ZN15Adafruit_BME28016readCoefficientsEv>:
{
   d52a2:	b538      	push	{r3, r4, r5, lr}
    _bme280_calib.dig_T1 = read16_LE(BME280_REGISTER_DIG_T1);
   d52a4:	2188      	movs	r1, #136	; 0x88
{
   d52a6:	4604      	mov	r4, r0
    _bme280_calib.dig_T1 = read16_LE(BME280_REGISTER_DIG_T1);
   d52a8:	f7ff ff50 	bl	d514c <_ZN15Adafruit_BME2809read16_LEEh>
    return (int16_t)read16_LE(reg);
   d52ac:	218a      	movs	r1, #138	; 0x8a
    _bme280_calib.dig_T1 = read16_LE(BME280_REGISTER_DIG_T1);
   d52ae:	82a0      	strh	r0, [r4, #20]
    return (int16_t)read16_LE(reg);
   d52b0:	4620      	mov	r0, r4
   d52b2:	f7ff ff4b 	bl	d514c <_ZN15Adafruit_BME2809read16_LEEh>
   d52b6:	218c      	movs	r1, #140	; 0x8c
    _bme280_calib.dig_T2 = readS16_LE(BME280_REGISTER_DIG_T2);
   d52b8:	82e0      	strh	r0, [r4, #22]
    return (int16_t)read16_LE(reg);
   d52ba:	4620      	mov	r0, r4
   d52bc:	f7ff ff46 	bl	d514c <_ZN15Adafruit_BME2809read16_LEEh>
    _bme280_calib.dig_P1 = read16_LE(BME280_REGISTER_DIG_P1);
   d52c0:	218e      	movs	r1, #142	; 0x8e
    _bme280_calib.dig_T3 = readS16_LE(BME280_REGISTER_DIG_T3);
   d52c2:	8320      	strh	r0, [r4, #24]
    _bme280_calib.dig_P1 = read16_LE(BME280_REGISTER_DIG_P1);
   d52c4:	4620      	mov	r0, r4
   d52c6:	f7ff ff41 	bl	d514c <_ZN15Adafruit_BME2809read16_LEEh>
    return (int16_t)read16_LE(reg);
   d52ca:	2190      	movs	r1, #144	; 0x90
    _bme280_calib.dig_P1 = read16_LE(BME280_REGISTER_DIG_P1);
   d52cc:	8360      	strh	r0, [r4, #26]
    return (int16_t)read16_LE(reg);
   d52ce:	4620      	mov	r0, r4
   d52d0:	f7ff ff3c 	bl	d514c <_ZN15Adafruit_BME2809read16_LEEh>
   d52d4:	2192      	movs	r1, #146	; 0x92
    _bme280_calib.dig_P2 = readS16_LE(BME280_REGISTER_DIG_P2);
   d52d6:	83a0      	strh	r0, [r4, #28]
    return (int16_t)read16_LE(reg);
   d52d8:	4620      	mov	r0, r4
   d52da:	f7ff ff37 	bl	d514c <_ZN15Adafruit_BME2809read16_LEEh>
   d52de:	2194      	movs	r1, #148	; 0x94
    _bme280_calib.dig_P3 = readS16_LE(BME280_REGISTER_DIG_P3);
   d52e0:	83e0      	strh	r0, [r4, #30]
    return (int16_t)read16_LE(reg);
   d52e2:	4620      	mov	r0, r4
   d52e4:	f7ff ff32 	bl	d514c <_ZN15Adafruit_BME2809read16_LEEh>
   d52e8:	2196      	movs	r1, #150	; 0x96
    _bme280_calib.dig_P4 = readS16_LE(BME280_REGISTER_DIG_P4);
   d52ea:	8420      	strh	r0, [r4, #32]
    return (int16_t)read16_LE(reg);
   d52ec:	4620      	mov	r0, r4
   d52ee:	f7ff ff2d 	bl	d514c <_ZN15Adafruit_BME2809read16_LEEh>
   d52f2:	2198      	movs	r1, #152	; 0x98
    _bme280_calib.dig_P5 = readS16_LE(BME280_REGISTER_DIG_P5);
   d52f4:	8460      	strh	r0, [r4, #34]	; 0x22
    return (int16_t)read16_LE(reg);
   d52f6:	4620      	mov	r0, r4
   d52f8:	f7ff ff28 	bl	d514c <_ZN15Adafruit_BME2809read16_LEEh>
   d52fc:	219a      	movs	r1, #154	; 0x9a
    _bme280_calib.dig_P6 = readS16_LE(BME280_REGISTER_DIG_P6);
   d52fe:	84a0      	strh	r0, [r4, #36]	; 0x24
    return (int16_t)read16_LE(reg);
   d5300:	4620      	mov	r0, r4
   d5302:	f7ff ff23 	bl	d514c <_ZN15Adafruit_BME2809read16_LEEh>
   d5306:	219c      	movs	r1, #156	; 0x9c
    _bme280_calib.dig_P7 = readS16_LE(BME280_REGISTER_DIG_P7);
   d5308:	84e0      	strh	r0, [r4, #38]	; 0x26
    return (int16_t)read16_LE(reg);
   d530a:	4620      	mov	r0, r4
   d530c:	f7ff ff1e 	bl	d514c <_ZN15Adafruit_BME2809read16_LEEh>
   d5310:	219e      	movs	r1, #158	; 0x9e
    _bme280_calib.dig_P8 = readS16_LE(BME280_REGISTER_DIG_P8);
   d5312:	8520      	strh	r0, [r4, #40]	; 0x28
    return (int16_t)read16_LE(reg);
   d5314:	4620      	mov	r0, r4
   d5316:	f7ff ff19 	bl	d514c <_ZN15Adafruit_BME2809read16_LEEh>
    _bme280_calib.dig_H1 = read8(BME280_REGISTER_DIG_H1);
   d531a:	21a1      	movs	r1, #161	; 0xa1
    _bme280_calib.dig_P9 = readS16_LE(BME280_REGISTER_DIG_P9);
   d531c:	8560      	strh	r0, [r4, #42]	; 0x2a
    _bme280_calib.dig_H1 = read8(BME280_REGISTER_DIG_H1);
   d531e:	4620      	mov	r0, r4
   d5320:	f7ff ff64 	bl	d51ec <_ZN15Adafruit_BME2805read8Eh>
    return (int16_t)read16_LE(reg);
   d5324:	21e1      	movs	r1, #225	; 0xe1
    _bme280_calib.dig_H1 = read8(BME280_REGISTER_DIG_H1);
   d5326:	f884 002c 	strb.w	r0, [r4, #44]	; 0x2c
    return (int16_t)read16_LE(reg);
   d532a:	4620      	mov	r0, r4
   d532c:	f7ff ff0e 	bl	d514c <_ZN15Adafruit_BME2809read16_LEEh>
    _bme280_calib.dig_H3 = read8(BME280_REGISTER_DIG_H3);
   d5330:	21e3      	movs	r1, #227	; 0xe3
    _bme280_calib.dig_H2 = readS16_LE(BME280_REGISTER_DIG_H2);
   d5332:	85e0      	strh	r0, [r4, #46]	; 0x2e
    _bme280_calib.dig_H3 = read8(BME280_REGISTER_DIG_H3);
   d5334:	4620      	mov	r0, r4
   d5336:	f7ff ff59 	bl	d51ec <_ZN15Adafruit_BME2805read8Eh>
    _bme280_calib.dig_H4 = (read8(BME280_REGISTER_DIG_H4) << 4) | (read8(BME280_REGISTER_DIG_H4+1) & 0xF);
   d533a:	21e4      	movs	r1, #228	; 0xe4
    _bme280_calib.dig_H3 = read8(BME280_REGISTER_DIG_H3);
   d533c:	f884 0030 	strb.w	r0, [r4, #48]	; 0x30
    _bme280_calib.dig_H4 = (read8(BME280_REGISTER_DIG_H4) << 4) | (read8(BME280_REGISTER_DIG_H4+1) & 0xF);
   d5340:	4620      	mov	r0, r4
   d5342:	f7ff ff53 	bl	d51ec <_ZN15Adafruit_BME2805read8Eh>
   d5346:	21e5      	movs	r1, #229	; 0xe5
   d5348:	4605      	mov	r5, r0
   d534a:	4620      	mov	r0, r4
   d534c:	f7ff ff4e 	bl	d51ec <_ZN15Adafruit_BME2805read8Eh>
   d5350:	f000 030f 	and.w	r3, r0, #15
   d5354:	ea43 1005 	orr.w	r0, r3, r5, lsl #4
   d5358:	8660      	strh	r0, [r4, #50]	; 0x32
    _bme280_calib.dig_H5 = (read8(BME280_REGISTER_DIG_H5+1) << 4) | (read8(BME280_REGISTER_DIG_H5) >> 4);
   d535a:	21e6      	movs	r1, #230	; 0xe6
   d535c:	4620      	mov	r0, r4
   d535e:	f7ff ff45 	bl	d51ec <_ZN15Adafruit_BME2805read8Eh>
   d5362:	21e5      	movs	r1, #229	; 0xe5
   d5364:	4605      	mov	r5, r0
   d5366:	4620      	mov	r0, r4
   d5368:	f7ff ff40 	bl	d51ec <_ZN15Adafruit_BME2805read8Eh>
   d536c:	1103      	asrs	r3, r0, #4
   d536e:	ea43 1005 	orr.w	r0, r3, r5, lsl #4
   d5372:	86a0      	strh	r0, [r4, #52]	; 0x34
    _bme280_calib.dig_H6 = (int8_t)read8(BME280_REGISTER_DIG_H6);
   d5374:	21e7      	movs	r1, #231	; 0xe7
   d5376:	4620      	mov	r0, r4
   d5378:	f7ff ff38 	bl	d51ec <_ZN15Adafruit_BME2805read8Eh>
   d537c:	f884 0036 	strb.w	r0, [r4, #54]	; 0x36
}
   d5380:	bd38      	pop	{r3, r4, r5, pc}
	...

000d5384 <_ZN15Adafruit_BME2806write8Ehh>:
void Adafruit_BME280::write8(byte reg, byte value) {
   d5384:	b57f      	push	{r0, r1, r2, r3, r4, r5, r6, lr}
    if (_cs == -1) {
   d5386:	f990 3010 	ldrsb.w	r3, [r0, #16]
   d538a:	3301      	adds	r3, #1
void Adafruit_BME280::write8(byte reg, byte value) {
   d538c:	4604      	mov	r4, r0
   d538e:	460e      	mov	r6, r1
   d5390:	4615      	mov	r5, r2
    if (_cs == -1) {
   d5392:	d112      	bne.n	d53ba <_ZN15Adafruit_BME2806write8Ehh+0x36>
        _wire -> beginTransmission((uint8_t)_i2caddr);
   d5394:	7901      	ldrb	r1, [r0, #4]
   d5396:	6800      	ldr	r0, [r0, #0]
   d5398:	f002 fc7c 	bl	d7c94 <_ZN7TwoWire17beginTransmissionEh>
        _wire -> write((uint8_t)reg);
   d539c:	6820      	ldr	r0, [r4, #0]
   d539e:	6803      	ldr	r3, [r0, #0]
   d53a0:	4631      	mov	r1, r6
   d53a2:	689b      	ldr	r3, [r3, #8]
   d53a4:	4798      	blx	r3
        _wire -> write((uint8_t)value);
   d53a6:	6820      	ldr	r0, [r4, #0]
   d53a8:	6803      	ldr	r3, [r0, #0]
   d53aa:	4629      	mov	r1, r5
   d53ac:	689b      	ldr	r3, [r3, #8]
   d53ae:	4798      	blx	r3
        _wire -> endTransmission();
   d53b0:	6820      	ldr	r0, [r4, #0]
   d53b2:	f002 fc77 	bl	d7ca4 <_ZN7TwoWire15endTransmissionEv>
}
   d53b6:	b004      	add	sp, #16
   d53b8:	bd70      	pop	{r4, r5, r6, pc}
        if (_sck == -1)
   d53ba:	f990 3013 	ldrsb.w	r3, [r0, #19]
   d53be:	3301      	adds	r3, #1
   d53c0:	d10c      	bne.n	d53dc <_ZN15Adafruit_BME2806write8Ehh+0x58>
   d53c2:	4b14      	ldr	r3, [pc, #80]	; (d5414 <_ZN15Adafruit_BME2806write8Ehh+0x90>)
   d53c4:	9300      	str	r3, [sp, #0]
   d53c6:	2300      	movs	r3, #0
   d53c8:	f88d 3004 	strb.w	r3, [sp, #4]
   d53cc:	4b12      	ldr	r3, [pc, #72]	; (d5418 <_ZN15Adafruit_BME2806write8Ehh+0x94>)
   d53ce:	9302      	str	r3, [sp, #8]
            SPI.beginTransaction(SPISettings(500000, MSBFIRST, SPI_MODE0));
   d53d0:	4668      	mov	r0, sp
   d53d2:	2301      	movs	r3, #1
   d53d4:	f8ad 300c 	strh.w	r3, [sp, #12]
   d53d8:	f7ff fca1 	bl	d4d1e <_ZN8particle8SpiProxyIL19hal_spi_interface_t0EE16beginTransactionERKNS_11SPISettingsE.isra.0.constprop.0>
        digitalWrite(_cs, LOW);
   d53dc:	f994 0010 	ldrsb.w	r0, [r4, #16]
   d53e0:	2100      	movs	r1, #0
   d53e2:	b280      	uxth	r0, r0
   d53e4:	f002 fd5f 	bl	d7ea6 <digitalWrite>
        spixfer(reg & ~0x80); // write, bit 7 low
   d53e8:	f006 017f 	and.w	r1, r6, #127	; 0x7f
   d53ec:	4620      	mov	r0, r4
   d53ee:	f7ff fc59 	bl	d4ca4 <_ZN15Adafruit_BME2807spixferEh>
        spixfer(value);
   d53f2:	4629      	mov	r1, r5
   d53f4:	4620      	mov	r0, r4
   d53f6:	f7ff fc55 	bl	d4ca4 <_ZN15Adafruit_BME2807spixferEh>
        digitalWrite(_cs, HIGH);
   d53fa:	f994 0010 	ldrsb.w	r0, [r4, #16]
   d53fe:	2101      	movs	r1, #1
   d5400:	b280      	uxth	r0, r0
   d5402:	f002 fd50 	bl	d7ea6 <digitalWrite>
    if (_sck == -1)
   d5406:	f994 3013 	ldrsb.w	r3, [r4, #19]
   d540a:	3301      	adds	r3, #1
   d540c:	d1d3      	bne.n	d53b6 <_ZN15Adafruit_BME2806write8Ehh+0x32>
        SPI.endTransaction(); // release the SPI bus
   d540e:	f7ff fc7f 	bl	d4d10 <_ZN8particle8SpiProxyIL19hal_spi_interface_t0EE14endTransactionEv.isra.0>
}
   d5412:	e7d0      	b.n	d53b6 <_ZN15Adafruit_BME2806write8Ehh+0x32>
   d5414:	000da824 	.word	0x000da824
   d5418:	0007a120 	.word	0x0007a120

000d541c <_ZN15Adafruit_BME28011setSamplingENS_11sensor_modeENS_15sensor_samplingES1_S1_NS_13sensor_filterENS_16standby_durationE>:
		 standby_duration  duration) {
   d541c:	b5f8      	push	{r3, r4, r5, r6, r7, lr}
    _measReg.osrs_t   = tempSampling;
   d541e:	00db      	lsls	r3, r3, #3
   d5420:	f002 0207 	and.w	r2, r2, #7
   d5424:	f003 0338 	and.w	r3, r3, #56	; 0x38
   d5428:	4313      	orrs	r3, r2
   d542a:	ea43 1381 	orr.w	r3, r3, r1, lsl #6
		 standby_duration  duration) {
   d542e:	f89d 6018 	ldrb.w	r6, [sp, #24]
    _measReg.osrs_t   = tempSampling;
   d5432:	f880 303c 	strb.w	r3, [r0, #60]	; 0x3c
    _humReg.osrs_h    = humSampling;
   d5436:	f890 3040 	ldrb.w	r3, [r0, #64]	; 0x40
		 standby_duration  duration) {
   d543a:	f89d 501c 	ldrb.w	r5, [sp, #28]
   d543e:	f89d 7020 	ldrb.w	r7, [sp, #32]
    _humReg.osrs_h    = humSampling;
   d5442:	f366 1347 	bfi	r3, r6, #5, #3
   d5446:	f880 3040 	strb.w	r3, [r0, #64]	; 0x40
    _configReg.t_sb   = duration;
   d544a:	00ed      	lsls	r5, r5, #3
   d544c:	f890 3038 	ldrb.w	r3, [r0, #56]	; 0x38
   d5450:	f007 0707 	and.w	r7, r7, #7
   d5454:	f005 0538 	and.w	r5, r5, #56	; 0x38
   d5458:	f023 033f 	bic.w	r3, r3, #63	; 0x3f
   d545c:	433d      	orrs	r5, r7
		 standby_duration  duration) {
   d545e:	4604      	mov	r4, r0
    _configReg.t_sb   = duration;
   d5460:	431d      	orrs	r5, r3
   d5462:	f880 5038 	strb.w	r5, [r0, #56]	; 0x38
    write8(BME280_REGISTER_CONTROLHUMID, _humReg.get());
   d5466:	f006 0207 	and.w	r2, r6, #7
   d546a:	21f2      	movs	r1, #242	; 0xf2
   d546c:	f7ff ff8a 	bl	d5384 <_ZN15Adafruit_BME2806write8Ehh>
            unsigned int none : 1;  ///< unused - don't set
            unsigned int spi3w_en : 1; ///< unused - don't set

            /// @return combined config register
            unsigned int get() {
                return (t_sb << 5) | (filter << 2) | spi3w_en;
   d5470:	f894 2038 	ldrb.w	r2, [r4, #56]	; 0x38
   d5474:	f3c2 03c2 	ubfx	r3, r2, #3, #3
   d5478:	f002 0107 	and.w	r1, r2, #7
   d547c:	009b      	lsls	r3, r3, #2
   d547e:	ea43 1341 	orr.w	r3, r3, r1, lsl #5
    write8(BME280_REGISTER_CONFIG, _configReg.get());
   d5482:	ea43 12d2 	orr.w	r2, r3, r2, lsr #7
   d5486:	4620      	mov	r0, r4
   d5488:	21f5      	movs	r1, #245	; 0xf5
   d548a:	f7ff ff7b 	bl	d5384 <_ZN15Adafruit_BME2806write8Ehh>
            // 11       = normal
            unsigned int mode : 2; ///< device mode

            /// @return combined ctrl register
            unsigned int get() {
                return (osrs_t << 5) | (osrs_p << 2) | mode;
   d548e:	f894 203c 	ldrb.w	r2, [r4, #60]	; 0x3c
   d5492:	f3c2 03c2 	ubfx	r3, r2, #3, #3
   d5496:	f002 0107 	and.w	r1, r2, #7
   d549a:	009b      	lsls	r3, r3, #2
   d549c:	ea43 1341 	orr.w	r3, r3, r1, lsl #5
    write8(BME280_REGISTER_CONTROL, _measReg.get());
   d54a0:	ea43 1292 	orr.w	r2, r3, r2, lsr #6
   d54a4:	4620      	mov	r0, r4
   d54a6:	21f4      	movs	r1, #244	; 0xf4
}
   d54a8:	e8bd 40f8 	ldmia.w	sp!, {r3, r4, r5, r6, r7, lr}
    write8(BME280_REGISTER_CONTROL, _measReg.get());
   d54ac:	f7ff bf6a 	b.w	d5384 <_ZN15Adafruit_BME2806write8Ehh>

000d54b0 <_ZN15Adafruit_BME2804initEv>:
{
   d54b0:	b530      	push	{r4, r5, lr}
   d54b2:	4604      	mov	r4, r0
    if (_cs == -1) {
   d54b4:	f990 0010 	ldrsb.w	r0, [r0, #16]
   d54b8:	1c42      	adds	r2, r0, #1
{
   d54ba:	b085      	sub	sp, #20
    if (_cs == -1) {
   d54bc:	d119      	bne.n	d54f2 <_ZN15Adafruit_BME2804initEv+0x42>
        _wire -> begin();
   d54be:	6820      	ldr	r0, [r4, #0]
   d54c0:	f002 fbb6 	bl	d7c30 <_ZN7TwoWire5beginEv>
    _sensorID = read8(BME280_REGISTER_CHIPID);
   d54c4:	21d0      	movs	r1, #208	; 0xd0
   d54c6:	4620      	mov	r0, r4
   d54c8:	f7ff fe90 	bl	d51ec <_ZN15Adafruit_BME2805read8Eh>
    if (_sensorID != 0x60)
   d54cc:	2860      	cmp	r0, #96	; 0x60
    _sensorID = read8(BME280_REGISTER_CHIPID);
   d54ce:	60a0      	str	r0, [r4, #8]
    if (_sensorID != 0x60)
   d54d0:	d145      	bne.n	d555e <_ZN15Adafruit_BME2804initEv+0xae>
    write8(BME280_REGISTER_SOFTRESET, 0xB6);
   d54d2:	4620      	mov	r0, r4
   d54d4:	22b6      	movs	r2, #182	; 0xb6
   d54d6:	21e0      	movs	r1, #224	; 0xe0
   d54d8:	f7ff ff54 	bl	d5384 <_ZN15Adafruit_BME2806write8Ehh>
    delay(300);
   d54dc:	f44f 7096 	mov.w	r0, #300	; 0x12c
   d54e0:	f002 f8fc 	bl	d76dc <delay>
    while (isReadingCalibration())
   d54e4:	4620      	mov	r0, r4
   d54e6:	f7ff fed5 	bl	d5294 <_ZN15Adafruit_BME28020isReadingCalibrationEv>
   d54ea:	4605      	mov	r5, r0
   d54ec:	b328      	cbz	r0, d553a <_ZN15Adafruit_BME2804initEv+0x8a>
          delay(100);
   d54ee:	2064      	movs	r0, #100	; 0x64
   d54f0:	e7f6      	b.n	d54e0 <_ZN15Adafruit_BME2804initEv+0x30>
        digitalWrite(_cs, HIGH);
   d54f2:	2101      	movs	r1, #1
   d54f4:	b280      	uxth	r0, r0
   d54f6:	f002 fcd6 	bl	d7ea6 <digitalWrite>
        pinMode(_cs, OUTPUT);
   d54fa:	f994 0010 	ldrsb.w	r0, [r4, #16]
   d54fe:	2101      	movs	r1, #1
   d5500:	b280      	uxth	r0, r0
   d5502:	f002 fcbf 	bl	d7e84 <pinMode>
        if (_sck == -1) {
   d5506:	f994 0013 	ldrsb.w	r0, [r4, #19]
   d550a:	1c43      	adds	r3, r0, #1
   d550c:	d104      	bne.n	d5518 <_ZN15Adafruit_BME2804initEv+0x68>
        instance().begin();
   d550e:	f7ff fbad 	bl	d4c6c <_ZN8particle8SpiProxyIL19hal_spi_interface_t0EE8instanceEv>
   d5512:	f001 fe8f 	bl	d7234 <_ZN8SPIClass5beginEv>
    }
   d5516:	e7d5      	b.n	d54c4 <_ZN15Adafruit_BME2804initEv+0x14>
            pinMode(_sck, OUTPUT);
   d5518:	2101      	movs	r1, #1
   d551a:	b280      	uxth	r0, r0
   d551c:	f002 fcb2 	bl	d7e84 <pinMode>
            pinMode(_mosi, OUTPUT);
   d5520:	f994 0011 	ldrsb.w	r0, [r4, #17]
   d5524:	2101      	movs	r1, #1
   d5526:	b280      	uxth	r0, r0
   d5528:	f002 fcac 	bl	d7e84 <pinMode>
            pinMode(_miso, INPUT);
   d552c:	f994 0012 	ldrsb.w	r0, [r4, #18]
   d5530:	2100      	movs	r1, #0
   d5532:	b280      	uxth	r0, r0
   d5534:	f002 fca6 	bl	d7e84 <pinMode>
   d5538:	e7c4      	b.n	d54c4 <_ZN15Adafruit_BME2804initEv+0x14>
    readCoefficients(); // read trimming parameters, see DS 4.2.2
   d553a:	4620      	mov	r0, r4
   d553c:	f7ff feb1 	bl	d52a2 <_ZN15Adafruit_BME28016readCoefficientsEv>
    setSampling(); // use defaults
   d5540:	2305      	movs	r3, #5
   d5542:	9300      	str	r3, [sp, #0]
   d5544:	461a      	mov	r2, r3
   d5546:	2103      	movs	r1, #3
   d5548:	4620      	mov	r0, r4
   d554a:	e9cd 5501 	strd	r5, r5, [sp, #4]
   d554e:	f7ff ff65 	bl	d541c <_ZN15Adafruit_BME28011setSamplingENS_11sensor_modeENS_15sensor_samplingES1_S1_NS_13sensor_filterENS_16standby_durationE>
    delay(100);
   d5552:	2064      	movs	r0, #100	; 0x64
   d5554:	f002 f8c2 	bl	d76dc <delay>
   d5558:	2001      	movs	r0, #1
}
   d555a:	b005      	add	sp, #20
   d555c:	bd30      	pop	{r4, r5, pc}
        return false;
   d555e:	2000      	movs	r0, #0
   d5560:	e7fb      	b.n	d555a <_ZN15Adafruit_BME2804initEv+0xaa>

000d5562 <_ZN15Adafruit_BME2805beginEv>:
    _i2caddr = BME280_ADDRESS;
   d5562:	2377      	movs	r3, #119	; 0x77
{
   d5564:	b510      	push	{r4, lr}
    _i2caddr = BME280_ADDRESS;
   d5566:	7103      	strb	r3, [r0, #4]
{
   d5568:	4604      	mov	r4, r0
	_wire = &Wire;
   d556a:	f002 fce1 	bl	d7f30 <_Z19__fetch_global_Wirev>
   d556e:	6020      	str	r0, [r4, #0]
	status = init();
   d5570:	4620      	mov	r0, r4
   d5572:	f7ff ff9d 	bl	d54b0 <_ZN15Adafruit_BME2804initEv>
 	if(!status){
   d5576:	b930      	cbnz	r0, d5586 <_ZN15Adafruit_BME2805beginEv+0x24>
 		_i2caddr = BME280_ADDRESS_ALTERNATE;
   d5578:	2376      	movs	r3, #118	; 0x76
   d557a:	7123      	strb	r3, [r4, #4]
 		status = init();
   d557c:	4620      	mov	r0, r4
}
   d557e:	e8bd 4010 	ldmia.w	sp!, {r4, lr}
 		status = init();
   d5582:	f7ff bf95 	b.w	d54b0 <_ZN15Adafruit_BME2804initEv>
}
   d5586:	bd10      	pop	{r4, pc}

000d5588 <_ZN18Adafruit_SPIDeviceD1Ev>:
}

/*!
 *    @brief  Release memory allocated in constructors
 */
Adafruit_SPIDevice::~Adafruit_SPIDevice() {
   d5588:	b510      	push	{r4, lr}
   d558a:	4604      	mov	r4, r0
  if (_spiSetting) {
   d558c:	6840      	ldr	r0, [r0, #4]
   d558e:	b110      	cbz	r0, d5596 <_ZN18Adafruit_SPIDeviceD1Ev+0xe>
    delete _spiSetting;
   d5590:	6803      	ldr	r3, [r0, #0]
   d5592:	689b      	ldr	r3, [r3, #8]
   d5594:	4798      	blx	r3
    _spiSetting = nullptr;
  }
}
   d5596:	4620      	mov	r0, r4
   d5598:	bd10      	pop	{r4, pc}

000d559a <_ZN18Adafruit_SPIDevice5beginEv>:
/*!
 *    @brief  Initializes SPI bus and sets CS pin high
 *    @return Always returns true because there's no way to test success of SPI
 * init
 */
bool Adafruit_SPIDevice::begin(void) {
   d559a:	b538      	push	{r3, r4, r5, lr}
   d559c:	4604      	mov	r4, r0
  pinMode(_cs, OUTPUT);
   d559e:	f990 000e 	ldrsb.w	r0, [r0, #14]
   d55a2:	2101      	movs	r1, #1
   d55a4:	b280      	uxth	r0, r0
   d55a6:	f002 fc6d 	bl	d7e84 <pinMode>
  digitalWrite(_cs, HIGH);
   d55aa:	f994 000e 	ldrsb.w	r0, [r4, #14]
   d55ae:	2101      	movs	r1, #1
   d55b0:	b280      	uxth	r0, r0
   d55b2:	f002 fc78 	bl	d7ea6 <digitalWrite>

  if (_spi) { // hardware SPI
   d55b6:	6825      	ldr	r5, [r4, #0]
   d55b8:	b135      	cbz	r5, d55c8 <_ZN18Adafruit_SPIDevice5beginEv+0x2e>
    _spi->begin();
   d55ba:	4628      	mov	r0, r5
   d55bc:	f001 fe3a 	bl	d7234 <_ZN8SPIClass5beginEv>
    if (_miso != -1) {
      pinMode(_miso, INPUT);
    }
  }

  _begun = true;
   d55c0:	2001      	movs	r0, #1
   d55c2:	f884 0034 	strb.w	r0, [r4, #52]	; 0x34
  return true;
}
   d55c6:	bd38      	pop	{r3, r4, r5, pc}
    pinMode(_sck, OUTPUT);
   d55c8:	f994 000f 	ldrsb.w	r0, [r4, #15]
   d55cc:	2101      	movs	r1, #1
   d55ce:	b280      	uxth	r0, r0
   d55d0:	f002 fc58 	bl	d7e84 <pinMode>
    if ((_dataMode == SPI_MODE0) || (_dataMode == SPI_MODE1)) {
   d55d4:	7b63      	ldrb	r3, [r4, #13]
   d55d6:	f994 000f 	ldrsb.w	r0, [r4, #15]
   d55da:	2b01      	cmp	r3, #1
      digitalWrite(_sck, LOW);
   d55dc:	bf94      	ite	ls
   d55de:	4629      	movls	r1, r5
      digitalWrite(_sck, HIGH);
   d55e0:	2101      	movhi	r1, #1
   d55e2:	b280      	uxth	r0, r0
   d55e4:	f002 fc5f 	bl	d7ea6 <digitalWrite>
    if (_mosi != -1) {
   d55e8:	f994 0010 	ldrsb.w	r0, [r4, #16]
   d55ec:	1c42      	adds	r2, r0, #1
   d55ee:	d009      	beq.n	d5604 <_ZN18Adafruit_SPIDevice5beginEv+0x6a>
      pinMode(_mosi, OUTPUT);
   d55f0:	2101      	movs	r1, #1
   d55f2:	b280      	uxth	r0, r0
   d55f4:	f002 fc46 	bl	d7e84 <pinMode>
      digitalWrite(_mosi, HIGH);
   d55f8:	f994 0010 	ldrsb.w	r0, [r4, #16]
   d55fc:	2101      	movs	r1, #1
   d55fe:	b280      	uxth	r0, r0
   d5600:	f002 fc51 	bl	d7ea6 <digitalWrite>
    if (_miso != -1) {
   d5604:	f994 0011 	ldrsb.w	r0, [r4, #17]
   d5608:	1c43      	adds	r3, r0, #1
   d560a:	d0d9      	beq.n	d55c0 <_ZN18Adafruit_SPIDevice5beginEv+0x26>
      pinMode(_miso, INPUT);
   d560c:	2100      	movs	r1, #0
   d560e:	b280      	uxth	r0, r0
   d5610:	f002 fc38 	bl	d7e84 <pinMode>
   d5614:	e7d4      	b.n	d55c0 <_ZN18Adafruit_SPIDevice5beginEv+0x26>
	...

000d5618 <_ZN18Adafruit_SPIDevice8transferEPhj>:
/*!
 *    @brief  Transfer (send/receive) one byte over hard/soft SPI
 *    @param  buffer The buffer to send and receive at the same time
 *    @param  len    The number of bytes to transfer
 */
void Adafruit_SPIDevice::transfer(uint8_t *buffer, size_t len) {
   d5618:	e92d 4ff0 	stmdb	sp!, {r4, r5, r6, r7, r8, r9, sl, fp, lr}
   d561c:	4604      	mov	r4, r0
  if (_spi) {
   d561e:	6800      	ldr	r0, [r0, #0]
void Adafruit_SPIDevice::transfer(uint8_t *buffer, size_t len) {
   d5620:	b085      	sub	sp, #20
   d5622:	460d      	mov	r5, r1
  if (_spi) {
   d5624:	b140      	cbz	r0, d5638 <_ZN18Adafruit_SPIDevice8transferEPhj+0x20>
    // hardware SPI is easy

#if defined(SPARK)
    _spi->transfer(buffer, buffer, len, NULL);
   d5626:	2300      	movs	r3, #0
   d5628:	9300      	str	r3, [sp, #0]
   d562a:	4613      	mov	r3, r2
   d562c:	460a      	mov	r2, r1
   d562e:	f001 fe9f 	bl	d7370 <_ZN8SPIClass8transferEPvS0_jPFvvE>
        buffer[i] = reply;
      }
    }
  }
  return;
}
   d5632:	b005      	add	sp, #20
   d5634:	e8bd 8ff0 	ldmia.w	sp!, {r4, r5, r6, r7, r8, r9, sl, fp, pc}
  if (_dataOrder == SPI_BITORDER_LSBFIRST) {
   d5638:	7b23      	ldrb	r3, [r4, #12]
  uint8_t bitdelay_us = (1000000 / _freq) / 2;
   d563a:	68a0      	ldr	r0, [r4, #8]
   d563c:	4f48      	ldr	r7, [pc, #288]	; (d5760 <_ZN18Adafruit_SPIDevice8transferEPhj+0x148>)
   d563e:	fbb7 f7f0 	udiv	r7, r7, r0
    startbit = 0x80;
   d5642:	2b00      	cmp	r3, #0
  bool towrite, lastmosi = !(buffer[0] & startbit);
   d5644:	780b      	ldrb	r3, [r1, #0]
    startbit = 0x80;
   d5646:	bf0c      	ite	eq
   d5648:	f04f 0b01 	moveq.w	fp, #1
   d564c:	f04f 0b80 	movne.w	fp, #128	; 0x80
  bool towrite, lastmosi = !(buffer[0] & startbit);
   d5650:	ea1b 0f03 	tst.w	fp, r3
   d5654:	eb01 0302 	add.w	r3, r1, r2
   d5658:	bf0c      	ite	eq
   d565a:	f04f 0901 	moveq.w	r9, #1
   d565e:	f04f 0900 	movne.w	r9, #0
  uint8_t bitdelay_us = (1000000 / _freq) / 2;
   d5662:	b2ff      	uxtb	r7, r7
  for (size_t i = 0; i < len; i++) {
   d5664:	9303      	str	r3, [sp, #12]
   d5666:	9b03      	ldr	r3, [sp, #12]
   d5668:	42ab      	cmp	r3, r5
   d566a:	d0e2      	beq.n	d5632 <_ZN18Adafruit_SPIDevice8transferEPhj+0x1a>
    uint8_t send = buffer[i];
   d566c:	f895 a000 	ldrb.w	sl, [r5]
    for (uint8_t b = startbit; b != 0;
   d5670:	465e      	mov	r6, fp
    uint8_t reply = 0;
   d5672:	f04f 0800 	mov.w	r8, #0
      if (bitdelay_us) {
   d5676:	b117      	cbz	r7, d567e <_ZN18Adafruit_SPIDevice8transferEPhj+0x66>
#endif

inline system_tick_t millis(void) { return HAL_Timer_Get_Milli_Seconds(); }
inline unsigned long micros(void) { return HAL_Timer_Get_Micro_Seconds(); }
void delay(unsigned long ms);
inline void delayMicroseconds(unsigned int us) { HAL_Delay_Microseconds(us); }
   d5678:	4638      	mov	r0, r7
   d567a:	f001 fb79 	bl	d6d70 <HAL_Delay_Microseconds>
      if (_dataMode == SPI_MODE0 || _dataMode == SPI_MODE2) {
   d567e:	7b63      	ldrb	r3, [r4, #13]
   d5680:	f013 0ffd 	tst.w	r3, #253	; 0xfd
   d5684:	d141      	bne.n	d570a <_ZN18Adafruit_SPIDevice8transferEPhj+0xf2>
        if ((_mosi != -1) && (lastmosi != towrite)) {
   d5686:	f994 3010 	ldrsb.w	r3, [r4, #16]
   d568a:	1c5a      	adds	r2, r3, #1
   d568c:	d00f      	beq.n	d56ae <_ZN18Adafruit_SPIDevice8transferEPhj+0x96>
        towrite = send & b;
   d568e:	ea1a 0106 	ands.w	r1, sl, r6
        if ((_mosi != -1) && (lastmosi != towrite)) {
   d5692:	bf14      	ite	ne
   d5694:	2301      	movne	r3, #1
   d5696:	2300      	moveq	r3, #0
   d5698:	454b      	cmp	r3, r9
   d569a:	d008      	beq.n	d56ae <_ZN18Adafruit_SPIDevice8transferEPhj+0x96>
          if (towrite)
   d569c:	6963      	ldr	r3, [r4, #20]
   d569e:	6a60      	ldr	r0, [r4, #36]	; 0x24
            *mosiPort |= mosiPinMask;
   d56a0:	681a      	ldr	r2, [r3, #0]
          if (towrite)
   d56a2:	2900      	cmp	r1, #0
   d56a4:	d02c      	beq.n	d5700 <_ZN18Adafruit_SPIDevice8transferEPhj+0xe8>
            *mosiPort |= mosiPinMask;
   d56a6:	4302      	orrs	r2, r0
   d56a8:	601a      	str	r2, [r3, #0]
   d56aa:	f04f 0901 	mov.w	r9, #1
        *clkPort |= clkPinMask; // Clock high
   d56ae:	69a1      	ldr	r1, [r4, #24]
   d56b0:	6ae3      	ldr	r3, [r4, #44]	; 0x2c
   d56b2:	680a      	ldr	r2, [r1, #0]
   d56b4:	4313      	orrs	r3, r2
   d56b6:	600b      	str	r3, [r1, #0]
        if (bitdelay_us) {
   d56b8:	b117      	cbz	r7, d56c0 <_ZN18Adafruit_SPIDevice8transferEPhj+0xa8>
   d56ba:	4638      	mov	r0, r7
   d56bc:	f001 fb58 	bl	d6d70 <HAL_Delay_Microseconds>
        if (_miso != -1) {
   d56c0:	f994 3011 	ldrsb.w	r3, [r4, #17]
   d56c4:	3301      	adds	r3, #1
   d56c6:	d006      	beq.n	d56d6 <_ZN18Adafruit_SPIDevice8transferEPhj+0xbe>
          if (*misoPort & misoPinMask) {
   d56c8:	69e3      	ldr	r3, [r4, #28]
   d56ca:	681a      	ldr	r2, [r3, #0]
   d56cc:	6aa3      	ldr	r3, [r4, #40]	; 0x28
   d56ce:	421a      	tst	r2, r3
            reply |= b;
   d56d0:	bf18      	it	ne
   d56d2:	ea46 0808 	orrne.w	r8, r6, r8
        *clkPort &= ~clkPinMask; // Clock low
   d56d6:	69a1      	ldr	r1, [r4, #24]
   d56d8:	6ae3      	ldr	r3, [r4, #44]	; 0x2c
   d56da:	680a      	ldr	r2, [r1, #0]
   d56dc:	ea22 0303 	bic.w	r3, r2, r3
   d56e0:	600b      	str	r3, [r1, #0]
      if (_miso != -1) {
   d56e2:	f994 3011 	ldrsb.w	r3, [r4, #17]
   d56e6:	3301      	adds	r3, #1
        buffer[i] = reply;
   d56e8:	bf18      	it	ne
   d56ea:	f885 8000 	strbne.w	r8, [r5]
    for (uint8_t b = startbit; b != 0;
   d56ee:	7b23      	ldrb	r3, [r4, #12]
   d56f0:	2b00      	cmp	r3, #0
   d56f2:	d132      	bne.n	d575a <_ZN18Adafruit_SPIDevice8transferEPhj+0x142>
   d56f4:	0076      	lsls	r6, r6, #1
   d56f6:	b2f6      	uxtb	r6, r6
   d56f8:	2e00      	cmp	r6, #0
   d56fa:	d1bc      	bne.n	d5676 <_ZN18Adafruit_SPIDevice8transferEPhj+0x5e>
  for (size_t i = 0; i < len; i++) {
   d56fc:	3501      	adds	r5, #1
   d56fe:	e7b2      	b.n	d5666 <_ZN18Adafruit_SPIDevice8transferEPhj+0x4e>
            *mosiPort &= ~mosiPinMask;
   d5700:	ea22 0200 	bic.w	r2, r2, r0
   d5704:	601a      	str	r2, [r3, #0]
   d5706:	4689      	mov	r9, r1
   d5708:	e7d1      	b.n	d56ae <_ZN18Adafruit_SPIDevice8transferEPhj+0x96>
        *clkPort |= clkPinMask; // Clock high
   d570a:	69a1      	ldr	r1, [r4, #24]
   d570c:	6ae3      	ldr	r3, [r4, #44]	; 0x2c
   d570e:	680a      	ldr	r2, [r1, #0]
   d5710:	4313      	orrs	r3, r2
   d5712:	600b      	str	r3, [r1, #0]
        if (bitdelay_us) {
   d5714:	b117      	cbz	r7, d571c <_ZN18Adafruit_SPIDevice8transferEPhj+0x104>
   d5716:	4638      	mov	r0, r7
   d5718:	f001 fb2a 	bl	d6d70 <HAL_Delay_Microseconds>
        if (_mosi != -1) {
   d571c:	f994 3010 	ldrsb.w	r3, [r4, #16]
   d5720:	3301      	adds	r3, #1
   d5722:	d008      	beq.n	d5736 <_ZN18Adafruit_SPIDevice8transferEPhj+0x11e>
          if (send & b)
   d5724:	6963      	ldr	r3, [r4, #20]
   d5726:	6a61      	ldr	r1, [r4, #36]	; 0x24
            *mosiPort |= mosiPinMask;
   d5728:	681a      	ldr	r2, [r3, #0]
          if (send & b)
   d572a:	ea1a 0f06 	tst.w	sl, r6
            *mosiPort |= mosiPinMask;
   d572e:	bf14      	ite	ne
   d5730:	430a      	orrne	r2, r1
            *mosiPort &= ~mosiPinMask;
   d5732:	438a      	biceq	r2, r1
   d5734:	601a      	str	r2, [r3, #0]
        *clkPort &= ~clkPinMask; // Clock low
   d5736:	69a1      	ldr	r1, [r4, #24]
   d5738:	6ae3      	ldr	r3, [r4, #44]	; 0x2c
   d573a:	680a      	ldr	r2, [r1, #0]
   d573c:	ea22 0303 	bic.w	r3, r2, r3
   d5740:	600b      	str	r3, [r1, #0]
        if (_miso != -1) {
   d5742:	f994 3011 	ldrsb.w	r3, [r4, #17]
   d5746:	3301      	adds	r3, #1
   d5748:	d0cb      	beq.n	d56e2 <_ZN18Adafruit_SPIDevice8transferEPhj+0xca>
          if (*misoPort & misoPinMask) {
   d574a:	69e3      	ldr	r3, [r4, #28]
   d574c:	681a      	ldr	r2, [r3, #0]
   d574e:	6aa3      	ldr	r3, [r4, #40]	; 0x28
   d5750:	421a      	tst	r2, r3
            reply |= b;
   d5752:	bf18      	it	ne
   d5754:	ea46 0808 	orrne.w	r8, r6, r8
   d5758:	e7c3      	b.n	d56e2 <_ZN18Adafruit_SPIDevice8transferEPhj+0xca>
    for (uint8_t b = startbit; b != 0;
   d575a:	0876      	lsrs	r6, r6, #1
   d575c:	e7cc      	b.n	d56f8 <_ZN18Adafruit_SPIDevice8transferEPhj+0xe0>
   d575e:	bf00      	nop
   d5760:	0007a120 	.word	0x0007a120

000d5764 <_ZN18Adafruit_SPIDevice8transferEh>:
/*!
 *    @brief  Transfer (send/receive) one byte over hard/soft SPI
 *    @param  send The byte to send
 *    @return The byte received while transmitting
 */
uint8_t Adafruit_SPIDevice::transfer(uint8_t send) {
   d5764:	b507      	push	{r0, r1, r2, lr}
  uint8_t data = send;
  transfer(&data, 1);
   d5766:	2201      	movs	r2, #1
  uint8_t data = send;
   d5768:	f88d 1007 	strb.w	r1, [sp, #7]
  transfer(&data, 1);
   d576c:	f10d 0107 	add.w	r1, sp, #7
   d5770:	f7ff ff52 	bl	d5618 <_ZN18Adafruit_SPIDevice8transferEPhj>
  return data;
}
   d5774:	f89d 0007 	ldrb.w	r0, [sp, #7]
   d5778:	b003      	add	sp, #12
   d577a:	f85d fb04 	ldr.w	pc, [sp], #4

000d577e <_ZN18Adafruit_SPIDevice5writeEPhjS0_j>:
 *    @param  prefix_len Number of bytes from prefix buffer to write
 *    @return Always returns true because there's no way to test success of SPI
 * writes
 */
bool Adafruit_SPIDevice::write(uint8_t *buffer, size_t len,
                               uint8_t *prefix_buffer, size_t prefix_len) {
   d577e:	e92d 41f0 	stmdb	sp!, {r4, r5, r6, r7, r8, lr}
   d5782:	4604      	mov	r4, r0
  if (_spi) {
   d5784:	6800      	ldr	r0, [r0, #0]
                               uint8_t *prefix_buffer, size_t prefix_len) {
   d5786:	460e      	mov	r6, r1
   d5788:	4617      	mov	r7, r2
   d578a:	461d      	mov	r5, r3
  if (_spi) {
   d578c:	b110      	cbz	r0, d5794 <_ZN18Adafruit_SPIDevice5writeEPhjS0_j+0x16>
    _spi->beginTransaction(*_spiSetting);
   d578e:	6861      	ldr	r1, [r4, #4]
   d5790:	f001 fd7a 	bl	d7288 <_ZN8SPIClass16beginTransactionERKN8particle11SPISettingsE>
  }

  digitalWrite(_cs, LOW);
   d5794:	f994 000e 	ldrsb.w	r0, [r4, #14]
   d5798:	2100      	movs	r1, #0
   d579a:	b280      	uxth	r0, r0
   d579c:	f002 fb83 	bl	d7ea6 <digitalWrite>
  // do the writing
  for (size_t i = 0; i < prefix_len; i++) {
   d57a0:	9b06      	ldr	r3, [sp, #24]
   d57a2:	eb05 0803 	add.w	r8, r5, r3
   d57a6:	4545      	cmp	r5, r8
   d57a8:	d108      	bne.n	d57bc <_ZN18Adafruit_SPIDevice5writeEPhjS0_j+0x3e>
   d57aa:	4437      	add	r7, r6
    transfer(prefix_buffer[i]);
  }
  for (size_t i = 0; i < len; i++) {
   d57ac:	42b7      	cmp	r7, r6
   d57ae:	d00b      	beq.n	d57c8 <_ZN18Adafruit_SPIDevice5writeEPhjS0_j+0x4a>
    transfer(buffer[i]);
   d57b0:	f816 1b01 	ldrb.w	r1, [r6], #1
   d57b4:	4620      	mov	r0, r4
   d57b6:	f7ff ffd5 	bl	d5764 <_ZN18Adafruit_SPIDevice8transferEh>
  for (size_t i = 0; i < len; i++) {
   d57ba:	e7f7      	b.n	d57ac <_ZN18Adafruit_SPIDevice5writeEPhjS0_j+0x2e>
    transfer(prefix_buffer[i]);
   d57bc:	f815 1b01 	ldrb.w	r1, [r5], #1
   d57c0:	4620      	mov	r0, r4
   d57c2:	f7ff ffcf 	bl	d5764 <_ZN18Adafruit_SPIDevice8transferEh>
  for (size_t i = 0; i < prefix_len; i++) {
   d57c6:	e7ee      	b.n	d57a6 <_ZN18Adafruit_SPIDevice5writeEPhjS0_j+0x28>
  }
  digitalWrite(_cs, HIGH);
   d57c8:	f994 000e 	ldrsb.w	r0, [r4, #14]
   d57cc:	2101      	movs	r1, #1
   d57ce:	b280      	uxth	r0, r0
   d57d0:	f002 fb69 	bl	d7ea6 <digitalWrite>

  if (_spi) {
   d57d4:	6820      	ldr	r0, [r4, #0]
   d57d6:	b108      	cbz	r0, d57dc <_ZN18Adafruit_SPIDevice5writeEPhjS0_j+0x5e>
    _spi->endTransaction();
   d57d8:	f001 fd3d 	bl	d7256 <_ZN8SPIClass14endTransactionEv>
  }
  DEBUG_SERIAL.println();
#endif

  return true;
}
   d57dc:	2001      	movs	r0, #1
   d57de:	e8bd 81f0 	ldmia.w	sp!, {r4, r5, r6, r7, r8, pc}

000d57e2 <_ZN18Adafruit_I2CDeviceC1EhP7TwoWire>:
 *    @param  addr The 7-bit I2C address for the device
 *    @param  theWire The I2C bus to use, defaults to &Wire
 */
Adafruit_I2CDevice::Adafruit_I2CDevice(uint8_t addr, TwoWire *theWire) {
  _addr = addr;
  _wire = theWire;
   d57e2:	6042      	str	r2, [r0, #4]
  _begun = false;
   d57e4:	2200      	movs	r2, #0
   d57e6:	7202      	strb	r2, [r0, #8]
#ifdef ARDUINO_ARCH_SAMD
  _maxBufferSize = 250; // as defined in Wire.h's RingBuffer
#else
  _maxBufferSize = 32;
   d57e8:	2220      	movs	r2, #32
  _addr = addr;
   d57ea:	7001      	strb	r1, [r0, #0]
  _maxBufferSize = 32;
   d57ec:	60c2      	str	r2, [r0, #12]
#endif
}
   d57ee:	4770      	bx	lr

000d57f0 <_ZN18Adafruit_I2CDevice8detectedEv>:
/*!
 *    @brief  Scans I2C for the address - note will give a false-positive
 *    if there's no pullups on I2C
 *    @return True if I2C initialized and a device with the addr found
 */
bool Adafruit_I2CDevice::detected(void) {
   d57f0:	b510      	push	{r4, lr}
  // Init I2C if not done yet
  if (!_begun && !begin()) {
   d57f2:	7a03      	ldrb	r3, [r0, #8]
bool Adafruit_I2CDevice::detected(void) {
   d57f4:	4604      	mov	r4, r0
  if (!_begun && !begin()) {
   d57f6:	b153      	cbz	r3, d580e <_ZN18Adafruit_I2CDevice8detectedEv+0x1e>
    return false;
  }

  // A basic scanner, see if it ACK's
  _wire->beginTransmission(_addr);
   d57f8:	7821      	ldrb	r1, [r4, #0]
   d57fa:	6860      	ldr	r0, [r4, #4]
   d57fc:	f002 fa4a 	bl	d7c94 <_ZN7TwoWire17beginTransmissionEh>
  if (_wire->endTransmission() == 0) {
   d5800:	6860      	ldr	r0, [r4, #4]
   d5802:	f002 fa4f 	bl	d7ca4 <_ZN7TwoWire15endTransmissionEv>
   d5806:	fab0 f080 	clz	r0, r0
   d580a:	0940      	lsrs	r0, r0, #5
  }
#ifdef DEBUG_SERIAL
  DEBUG_SERIAL.println(F("Not detected"));
#endif
  return false;
}
   d580c:	bd10      	pop	{r4, pc}
  if (!_begun && !begin()) {
   d580e:	2101      	movs	r1, #1
   d5810:	f000 f803 	bl	d581a <_ZN18Adafruit_I2CDevice5beginEb>
   d5814:	2800      	cmp	r0, #0
   d5816:	d1ef      	bne.n	d57f8 <_ZN18Adafruit_I2CDevice8detectedEv+0x8>
   d5818:	e7f8      	b.n	d580c <_ZN18Adafruit_I2CDevice8detectedEv+0x1c>

000d581a <_ZN18Adafruit_I2CDevice5beginEb>:
bool Adafruit_I2CDevice::begin(bool addr_detect) {
   d581a:	b538      	push	{r3, r4, r5, lr}
   d581c:	4604      	mov	r4, r0
  _wire->begin();
   d581e:	6840      	ldr	r0, [r0, #4]
bool Adafruit_I2CDevice::begin(bool addr_detect) {
   d5820:	460d      	mov	r5, r1
  _wire->begin();
   d5822:	f002 fa05 	bl	d7c30 <_ZN7TwoWire5beginEv>
  _begun = true;
   d5826:	2001      	movs	r0, #1
   d5828:	7220      	strb	r0, [r4, #8]
  if (addr_detect) {
   d582a:	b125      	cbz	r5, d5836 <_ZN18Adafruit_I2CDevice5beginEb+0x1c>
    return detected();
   d582c:	4620      	mov	r0, r4
}
   d582e:	e8bd 4038 	ldmia.w	sp!, {r3, r4, r5, lr}
    return detected();
   d5832:	f7ff bfdd 	b.w	d57f0 <_ZN18Adafruit_I2CDevice8detectedEv>
}
   d5836:	bd38      	pop	{r3, r4, r5, pc}

000d5838 <_ZN18Adafruit_I2CDevice5writeEPKhjbS1_j>:
 *    @param  stop Whether to send an I2C STOP signal on write
 *    @return True if write was successful, otherwise false.
 */
bool Adafruit_I2CDevice::write(const uint8_t *buffer, size_t len, bool stop,
                               const uint8_t *prefix_buffer,
                               size_t prefix_len) {
   d5838:	e92d 43f8 	stmdb	sp!, {r3, r4, r5, r6, r7, r8, r9, lr}
   d583c:	e9dd 9608 	ldrd	r9, r6, [sp, #32]
   d5840:	461f      	mov	r7, r3
  if ((len + prefix_len) > maxBufferSize()) {
   d5842:	68c3      	ldr	r3, [r0, #12]
                               size_t prefix_len) {
   d5844:	4615      	mov	r5, r2
  if ((len + prefix_len) > maxBufferSize()) {
   d5846:	4432      	add	r2, r6
   d5848:	429a      	cmp	r2, r3
                               size_t prefix_len) {
   d584a:	4604      	mov	r4, r0
   d584c:	4688      	mov	r8, r1
  if ((len + prefix_len) > maxBufferSize()) {
   d584e:	d902      	bls.n	d5856 <_ZN18Adafruit_I2CDevice5writeEPKhjbS1_j+0x1e>
    // we will need to find out if some platforms have larger
    // I2C buffer sizes :/
#ifdef DEBUG_SERIAL
    DEBUG_SERIAL.println(F("\tI2CDevice could not write such a large buffer"));
#endif
    return false;
   d5850:	2000      	movs	r0, #0
#ifdef DEBUG_SERIAL
    DEBUG_SERIAL.println("Failed to send!");
#endif
    return false;
  }
}
   d5852:	e8bd 83f8 	ldmia.w	sp!, {r3, r4, r5, r6, r7, r8, r9, pc}
  _wire->beginTransmission(_addr);
   d5856:	7801      	ldrb	r1, [r0, #0]
   d5858:	6840      	ldr	r0, [r0, #4]
   d585a:	f002 fa1b 	bl	d7c94 <_ZN7TwoWire17beginTransmissionEh>
  if ((prefix_len != 0) && (prefix_buffer != NULL)) {
   d585e:	b97e      	cbnz	r6, d5880 <_ZN18Adafruit_I2CDevice5writeEPKhjbS1_j+0x48>
  if (_wire->write(buffer, len) != len) {
   d5860:	6860      	ldr	r0, [r4, #4]
   d5862:	6803      	ldr	r3, [r0, #0]
   d5864:	462a      	mov	r2, r5
   d5866:	68db      	ldr	r3, [r3, #12]
   d5868:	4641      	mov	r1, r8
   d586a:	4798      	blx	r3
   d586c:	4285      	cmp	r5, r0
   d586e:	d1ef      	bne.n	d5850 <_ZN18Adafruit_I2CDevice5writeEPKhjbS1_j+0x18>
  if (_wire->endTransmission(stop) == 0) {
   d5870:	6860      	ldr	r0, [r4, #4]
   d5872:	4639      	mov	r1, r7
   d5874:	f002 fa12 	bl	d7c9c <_ZN7TwoWire15endTransmissionEh>
   d5878:	fab0 f080 	clz	r0, r0
   d587c:	0940      	lsrs	r0, r0, #5
   d587e:	e7e8      	b.n	d5852 <_ZN18Adafruit_I2CDevice5writeEPKhjbS1_j+0x1a>
  if ((prefix_len != 0) && (prefix_buffer != NULL)) {
   d5880:	f1b9 0f00 	cmp.w	r9, #0
   d5884:	d0ec      	beq.n	d5860 <_ZN18Adafruit_I2CDevice5writeEPKhjbS1_j+0x28>
   d5886:	6860      	ldr	r0, [r4, #4]
    if (_wire->write(prefix_buffer, prefix_len) != prefix_len) {
   d5888:	6803      	ldr	r3, [r0, #0]
   d588a:	4632      	mov	r2, r6
   d588c:	68db      	ldr	r3, [r3, #12]
   d588e:	4649      	mov	r1, r9
   d5890:	4798      	blx	r3
   d5892:	42b0      	cmp	r0, r6
   d5894:	d1dc      	bne.n	d5850 <_ZN18Adafruit_I2CDevice5writeEPKhjbS1_j+0x18>
   d5896:	e7e3      	b.n	d5860 <_ZN18Adafruit_I2CDevice5writeEPKhjbS1_j+0x28>

000d5898 <_ZN18Adafruit_I2CDevice5_readEPhjb>:
    pos += read_len;
  }
  return true;
}

bool Adafruit_I2CDevice::_read(uint8_t *buffer, size_t len, bool stop) {
   d5898:	e92d 41f0 	stmdb	sp!, {r4, r5, r6, r7, r8, lr}
   d589c:	4615      	mov	r5, r2
   d589e:	4604      	mov	r4, r0
   d58a0:	460e      	mov	r6, r1
#if defined(TinyWireM_h)
  size_t recv = _wire->requestFrom((uint8_t)_addr, (uint8_t)len);
#else
  size_t recv = _wire->requestFrom((uint8_t)_addr, (uint8_t)len, (uint8_t)stop);
   d58a2:	b2d2      	uxtb	r2, r2
   d58a4:	7801      	ldrb	r1, [r0, #0]
   d58a6:	6840      	ldr	r0, [r0, #4]
   d58a8:	f002 f9df 	bl	d7c6a <_ZN7TwoWire11requestFromEhjh>
#endif

  if (recv != len) {
   d58ac:	4285      	cmp	r5, r0
   d58ae:	d10d      	bne.n	d58cc <_ZN18Adafruit_I2CDevice5_readEPhjb+0x34>
   d58b0:	2700      	movs	r7, #0
    DEBUG_SERIAL.println(recv);
#endif
    return false;
  }

  for (uint16_t i = 0; i < len; i++) {
   d58b2:	fa1f f887 	uxth.w	r8, r7
   d58b6:	45a8      	cmp	r8, r5
   d58b8:	f107 0701 	add.w	r7, r7, #1
   d58bc:	d209      	bcs.n	d58d2 <_ZN18Adafruit_I2CDevice5_readEPhjb+0x3a>
    buffer[i] = _wire->read();
   d58be:	6860      	ldr	r0, [r4, #4]
   d58c0:	6803      	ldr	r3, [r0, #0]
   d58c2:	695b      	ldr	r3, [r3, #20]
   d58c4:	4798      	blx	r3
   d58c6:	f806 0008 	strb.w	r0, [r6, r8]
  for (uint16_t i = 0; i < len; i++) {
   d58ca:	e7f2      	b.n	d58b2 <_ZN18Adafruit_I2CDevice5_readEPhjb+0x1a>
    return false;
   d58cc:	2000      	movs	r0, #0
  }
  DEBUG_SERIAL.println();
#endif

  return true;
}
   d58ce:	e8bd 81f0 	ldmia.w	sp!, {r4, r5, r6, r7, r8, pc}
   d58d2:	2001      	movs	r0, #1
   d58d4:	e7fb      	b.n	d58ce <_ZN18Adafruit_I2CDevice5_readEPhjb+0x36>

000d58d6 <_ZN18Adafruit_I2CDevice4readEPhjb>:
bool Adafruit_I2CDevice::read(uint8_t *buffer, size_t len, bool stop) {
   d58d6:	e92d 43f8 	stmdb	sp!, {r3, r4, r5, r6, r7, r8, r9, lr}
   d58da:	4607      	mov	r7, r0
   d58dc:	4688      	mov	r8, r1
   d58de:	4616      	mov	r6, r2
   d58e0:	4699      	mov	r9, r3
  size_t pos = 0;
   d58e2:	2500      	movs	r5, #0
  while (pos < len) {
   d58e4:	42b5      	cmp	r5, r6
   d58e6:	d212      	bcs.n	d590e <_ZN18Adafruit_I2CDevice4readEPhjb+0x38>
                       bool stop = false);
  bool setSpeed(uint32_t desiredclk);

  /*!   @brief  How many bytes we can read in a transaction
   *    @return The size of the Wire receive/transmit buffer */
  size_t maxBufferSize() { return _maxBufferSize; }
   d58e8:	68fa      	ldr	r2, [r7, #12]
        ((len - pos) > maxBufferSize()) ? maxBufferSize() : (len - pos);
   d58ea:	1b74      	subs	r4, r6, r5
   d58ec:	4294      	cmp	r4, r2
   d58ee:	bf28      	it	cs
   d58f0:	4614      	movcs	r4, r2
    bool read_stop = (pos < (len - read_len)) ? false : stop;
   d58f2:	1b33      	subs	r3, r6, r4
    if (!_read(buffer + pos, read_len, read_stop))
   d58f4:	42ab      	cmp	r3, r5
   d58f6:	bf94      	ite	ls
   d58f8:	464b      	movls	r3, r9
   d58fa:	2300      	movhi	r3, #0
   d58fc:	4622      	mov	r2, r4
   d58fe:	eb08 0105 	add.w	r1, r8, r5
   d5902:	4638      	mov	r0, r7
   d5904:	f7ff ffc8 	bl	d5898 <_ZN18Adafruit_I2CDevice5_readEPhjb>
   d5908:	b110      	cbz	r0, d5910 <_ZN18Adafruit_I2CDevice4readEPhjb+0x3a>
    pos += read_len;
   d590a:	4425      	add	r5, r4
  while (pos < len) {
   d590c:	e7ea      	b.n	d58e4 <_ZN18Adafruit_I2CDevice4readEPhjb+0xe>
  return true;
   d590e:	2001      	movs	r0, #1
}
   d5910:	e8bd 83f8 	ldmia.w	sp!, {r3, r4, r5, r6, r7, r8, r9, pc}

000d5914 <_ZN18Adafruit_I2CDevice15write_then_readEPKhjPhjb>:
 *    @param  stop Whether to send an I2C STOP signal between the write and read
 *    @return True if write & read was successful, otherwise false.
 */
bool Adafruit_I2CDevice::write_then_read(const uint8_t *write_buffer,
                                         size_t write_len, uint8_t *read_buffer,
                                         size_t read_len, bool stop) {
   d5914:	b573      	push	{r0, r1, r4, r5, r6, lr}
   d5916:	461d      	mov	r5, r3
  if (!write(write_buffer, write_len, stop)) {
   d5918:	2300      	movs	r3, #0
   d591a:	e9cd 3300 	strd	r3, r3, [sp]
   d591e:	f89d 301c 	ldrb.w	r3, [sp, #28]
                                         size_t read_len, bool stop) {
   d5922:	9e06      	ldr	r6, [sp, #24]
   d5924:	4604      	mov	r4, r0
  if (!write(write_buffer, write_len, stop)) {
   d5926:	f7ff ff87 	bl	d5838 <_ZN18Adafruit_I2CDevice5writeEPKhjbS1_j>
   d592a:	b140      	cbz	r0, d593e <_ZN18Adafruit_I2CDevice15write_then_readEPKhjPhjb+0x2a>
    return false;
  }

  return read(read_buffer, read_len);
   d592c:	2301      	movs	r3, #1
   d592e:	4632      	mov	r2, r6
   d5930:	4629      	mov	r1, r5
   d5932:	4620      	mov	r0, r4
}
   d5934:	b002      	add	sp, #8
   d5936:	e8bd 4070 	ldmia.w	sp!, {r4, r5, r6, lr}
  return read(read_buffer, read_len);
   d593a:	f7ff bfcc 	b.w	d58d6 <_ZN18Adafruit_I2CDevice4readEPhjb>
}
   d593e:	b002      	add	sp, #8
   d5940:	bd70      	pop	{r4, r5, r6, pc}

000d5942 <_ZN18Adafruit_I2CDevice8setSpeedEm>:
 *    underlying Wire support!
 *    @param desiredclk The desired I2C SCL frequency
 *    @return True if this platform supports changing I2C speed.
 *    Not necessarily that the speed was achieved!
 */
bool Adafruit_I2CDevice::setSpeed(uint32_t desiredclk) {
   d5942:	b508      	push	{r3, lr}

public:
  TwoWire(hal_i2c_interface_t i2c, const hal_i2c_config_t& config);
  virtual ~TwoWire() {};
  inline void setClock(uint32_t speed) {
	  setSpeed(speed);
   d5944:	6840      	ldr	r0, [r0, #4]
   d5946:	f002 f96f 	bl	d7c28 <_ZN7TwoWire8setSpeedEm>
  return true;
#else
  (void)desiredclk;
  return false;
#endif
}
   d594a:	2001      	movs	r0, #1
   d594c:	bd08      	pop	{r3, pc}

000d594e <_ZN15Adafruit_Sensor15enableAutoRangeEb>:
  // Constructor(s)
  Adafruit_Sensor() {}
  virtual ~Adafruit_Sensor() {}

  // These must be defined by the subclass
  virtual void enableAutoRange(bool enabled) {};
   d594e:	4770      	bx	lr

000d5950 <_ZN15Adafruit_BNO055D1Ev>:

/*!
 *  @brief  Class that stores state and functions for interacting with
 *          BNO055 Sensor
 */
class Adafruit_BNO055 : public Adafruit_Sensor {
   d5950:	4770      	bx	lr
	...

000d5954 <_ZN15Adafruit_BNO0559getSensorEP8sensor_t>:
/*!
 *  @brief  Provides the sensor_t data for this sensor
 *  @param  sensor
 *          Sensor description
 */
void Adafruit_BNO055::getSensor(sensor_t *sensor) {
   d5954:	460b      	mov	r3, r1
   d5956:	b510      	push	{r4, lr}
  /* Clear the sensor_t object */
  memset(sensor, 0, sizeof(sensor_t));
   d5958:	2228      	movs	r2, #40	; 0x28
void Adafruit_BNO055::getSensor(sensor_t *sensor) {
   d595a:	4604      	mov	r4, r0
  memset(sensor, 0, sizeof(sensor_t));
   d595c:	2100      	movs	r1, #0
   d595e:	4618      	mov	r0, r3
   d5960:	f004 fc86 	bl	da270 <memset>

  /* Insert the sensor name in the fixed length char array */
  strncpy(sensor->name, "BNO055", sizeof(sensor->name) - 1);
   d5964:	4909      	ldr	r1, [pc, #36]	; (d598c <_ZN15Adafruit_BNO0559getSensorEP8sensor_t+0x38>)
   d5966:	220b      	movs	r2, #11
   d5968:	f004 fcb6 	bl	da2d8 <strncpy>
  sensor->name[sizeof(sensor->name) - 1] = 0;
   d596c:	2200      	movs	r2, #0
  sensor->version = 1;
   d596e:	2101      	movs	r1, #1
  sensor->name[sizeof(sensor->name) - 1] = 0;
   d5970:	72c2      	strb	r2, [r0, #11]
  sensor->version = 1;
   d5972:	60c1      	str	r1, [r0, #12]
  sensor->sensor_id = _sensorID;
   d5974:	68e1      	ldr	r1, [r4, #12]
  sensor->type = SENSOR_TYPE_ORIENTATION;
  sensor->min_delay = 0;
   d5976:	6242      	str	r2, [r0, #36]	; 0x24
  sensor->max_value = 0.0F;
   d5978:	2200      	movs	r2, #0
  sensor->sensor_id = _sensorID;
   d597a:	6101      	str	r1, [r0, #16]
  sensor->max_value = 0.0F;
   d597c:	6182      	str	r2, [r0, #24]
  sensor->type = SENSOR_TYPE_ORIENTATION;
   d597e:	2103      	movs	r1, #3
  sensor->min_value = 0.0F;
   d5980:	61c2      	str	r2, [r0, #28]
  sensor->resolution = 0.01F;
   d5982:	4a03      	ldr	r2, [pc, #12]	; (d5990 <_ZN15Adafruit_BNO0559getSensorEP8sensor_t+0x3c>)
  sensor->type = SENSOR_TYPE_ORIENTATION;
   d5984:	6141      	str	r1, [r0, #20]
  sensor->resolution = 0.01F;
   d5986:	6202      	str	r2, [r0, #32]
}
   d5988:	bd10      	pop	{r4, pc}
   d598a:	bf00      	nop
   d598c:	000da830 	.word	0x000da830
   d5990:	3c23d70a 	.word	0x3c23d70a

000d5994 <_ZN15Adafruit_BNO055D0Ev>:
   d5994:	b510      	push	{r4, lr}
   d5996:	2114      	movs	r1, #20
   d5998:	4604      	mov	r4, r0
   d599a:	f002 faed 	bl	d7f78 <_ZdlPvj>
   d599e:	4620      	mov	r0, r4
   d59a0:	bd10      	pop	{r4, pc}
	...

000d59a4 <_ZN15Adafruit_BNO055C1ElhP7TwoWire>:
Adafruit_BNO055::Adafruit_BNO055(int32_t sensorID, uint8_t address,
   d59a4:	b573      	push	{r0, r1, r4, r5, r6, lr}
   d59a6:	9301      	str	r3, [sp, #4]
                                 TwoWire *theWire) {
   d59a8:	4b09      	ldr	r3, [pc, #36]	; (d59d0 <_ZN15Adafruit_BNO055C1ElhP7TwoWire+0x2c>)
   d59aa:	6003      	str	r3, [r0, #0]
   d59ac:	2300      	movs	r3, #0
  _sensorID = sensorID;
   d59ae:	e9c0 3102 	strd	r3, r1, [r0, #8]
Adafruit_BNO055::Adafruit_BNO055(int32_t sensorID, uint8_t address,
   d59b2:	4604      	mov	r4, r0
  i2c_dev = new Adafruit_I2CDevice(address, theWire);
   d59b4:	2010      	movs	r0, #16
Adafruit_BNO055::Adafruit_BNO055(int32_t sensorID, uint8_t address,
   d59b6:	4616      	mov	r6, r2
  i2c_dev = new Adafruit_I2CDevice(address, theWire);
   d59b8:	f7fe fb6d 	bl	d4096 <_Znwj>
   d59bc:	4605      	mov	r5, r0
   d59be:	b118      	cbz	r0, d59c8 <_ZN15Adafruit_BNO055C1ElhP7TwoWire+0x24>
   d59c0:	9a01      	ldr	r2, [sp, #4]
   d59c2:	4631      	mov	r1, r6
   d59c4:	f7ff ff0d 	bl	d57e2 <_ZN18Adafruit_I2CDeviceC1EhP7TwoWire>
}
   d59c8:	4620      	mov	r0, r4
  i2c_dev = new Adafruit_I2CDevice(address, theWire);
   d59ca:	60a5      	str	r5, [r4, #8]
}
   d59cc:	b002      	add	sp, #8
   d59ce:	bd70      	pop	{r4, r5, r6, pc}
   d59d0:	000da840 	.word	0x000da840

000d59d4 <_ZN15Adafruit_BNO0556write8ENS_21adafruit_bno055_reg_tEh>:
}

/*!
 *  @brief  Writes an 8 bit value over I2C
 */
bool Adafruit_BNO055::write8(adafruit_bno055_reg_t reg, byte value) {
   d59d4:	b51f      	push	{r0, r1, r2, r3, r4, lr}
  uint8_t buffer[2] = {(uint8_t)reg, (uint8_t)value};
  return i2c_dev->write(buffer, 2);
   d59d6:	2300      	movs	r3, #0
   d59d8:	e9cd 3300 	strd	r3, r3, [sp]
  uint8_t buffer[2] = {(uint8_t)reg, (uint8_t)value};
   d59dc:	f88d 100c 	strb.w	r1, [sp, #12]
   d59e0:	f88d 200d 	strb.w	r2, [sp, #13]
  return i2c_dev->write(buffer, 2);
   d59e4:	2301      	movs	r3, #1
   d59e6:	2202      	movs	r2, #2
   d59e8:	a903      	add	r1, sp, #12
   d59ea:	6880      	ldr	r0, [r0, #8]
   d59ec:	f7ff ff24 	bl	d5838 <_ZN18Adafruit_I2CDevice5writeEPKhjbS1_j>
}
   d59f0:	b005      	add	sp, #20
   d59f2:	f85d fb04 	ldr.w	pc, [sp], #4

000d59f6 <_ZN15Adafruit_BNO0557setModeENS_24adafruit_bno055_opmode_tE>:
void Adafruit_BNO055::setMode(adafruit_bno055_opmode_t mode) {
   d59f6:	b508      	push	{r3, lr}
   d59f8:	460a      	mov	r2, r1
  _mode = mode;
   d59fa:	7401      	strb	r1, [r0, #16]
  write8(BNO055_OPR_MODE_ADDR, _mode);
   d59fc:	213d      	movs	r1, #61	; 0x3d
   d59fe:	f7ff ffe9 	bl	d59d4 <_ZN15Adafruit_BNO0556write8ENS_21adafruit_bno055_reg_tEh>
}
   d5a02:	e8bd 4008 	ldmia.w	sp!, {r3, lr}
  delay(30);
   d5a06:	201e      	movs	r0, #30
   d5a08:	f001 be68 	b.w	d76dc <delay>

000d5a0c <_ZN15Adafruit_BNO05516setExtCrystalUseEb>:
void Adafruit_BNO055::setExtCrystalUse(boolean usextal) {
   d5a0c:	b570      	push	{r4, r5, r6, lr}
   d5a0e:	460d      	mov	r5, r1
  setMode(OPERATION_MODE_CONFIG);
   d5a10:	2100      	movs	r1, #0
void Adafruit_BNO055::setExtCrystalUse(boolean usextal) {
   d5a12:	4604      	mov	r4, r0
  adafruit_bno055_opmode_t modeback = _mode;
   d5a14:	7c06      	ldrb	r6, [r0, #16]
  setMode(OPERATION_MODE_CONFIG);
   d5a16:	f7ff ffee 	bl	d59f6 <_ZN15Adafruit_BNO0557setModeENS_24adafruit_bno055_opmode_tE>
  delay(25);
   d5a1a:	2019      	movs	r0, #25
   d5a1c:	f001 fe5e 	bl	d76dc <delay>
  write8(BNO055_PAGE_ID_ADDR, 0);
   d5a20:	2200      	movs	r2, #0
   d5a22:	2107      	movs	r1, #7
   d5a24:	4620      	mov	r0, r4
   d5a26:	f7ff ffd5 	bl	d59d4 <_ZN15Adafruit_BNO0556write8ENS_21adafruit_bno055_reg_tEh>
  if (usextal) {
   d5a2a:	b185      	cbz	r5, d5a4e <_ZN15Adafruit_BNO05516setExtCrystalUseEb+0x42>
    write8(BNO055_SYS_TRIGGER_ADDR, 0x80);
   d5a2c:	2280      	movs	r2, #128	; 0x80
    write8(BNO055_SYS_TRIGGER_ADDR, 0x00);
   d5a2e:	213f      	movs	r1, #63	; 0x3f
   d5a30:	4620      	mov	r0, r4
   d5a32:	f7ff ffcf 	bl	d59d4 <_ZN15Adafruit_BNO0556write8ENS_21adafruit_bno055_reg_tEh>
  delay(10);
   d5a36:	200a      	movs	r0, #10
   d5a38:	f001 fe50 	bl	d76dc <delay>
  setMode(modeback);
   d5a3c:	4620      	mov	r0, r4
   d5a3e:	4631      	mov	r1, r6
   d5a40:	f7ff ffd9 	bl	d59f6 <_ZN15Adafruit_BNO0557setModeENS_24adafruit_bno055_opmode_tE>
}
   d5a44:	e8bd 4070 	ldmia.w	sp!, {r4, r5, r6, lr}
  delay(20);
   d5a48:	2014      	movs	r0, #20
   d5a4a:	f001 be47 	b.w	d76dc <delay>
    write8(BNO055_SYS_TRIGGER_ADDR, 0x00);
   d5a4e:	462a      	mov	r2, r5
   d5a50:	e7ed      	b.n	d5a2e <_ZN15Adafruit_BNO05516setExtCrystalUseEb+0x22>

000d5a52 <_ZN15Adafruit_BNO0555read8ENS_21adafruit_bno055_reg_tE>:

/*!
 *  @brief  Reads an 8 bit value over I2C
 */
byte Adafruit_BNO055::read8(adafruit_bno055_reg_t reg) {
   d5a52:	b51f      	push	{r0, r1, r2, r3, r4, lr}
  uint8_t buffer[1] = {reg};
  i2c_dev->write_then_read(buffer, 1, buffer, 1);
   d5a54:	2201      	movs	r2, #1
   d5a56:	2300      	movs	r3, #0
   d5a58:	e9cd 2300 	strd	r2, r3, [sp]
   d5a5c:	ab03      	add	r3, sp, #12
  uint8_t buffer[1] = {reg};
   d5a5e:	f88d 100c 	strb.w	r1, [sp, #12]
  i2c_dev->write_then_read(buffer, 1, buffer, 1);
   d5a62:	6880      	ldr	r0, [r0, #8]
   d5a64:	4619      	mov	r1, r3
   d5a66:	f7ff ff55 	bl	d5914 <_ZN18Adafruit_I2CDevice15write_then_readEPKhjPhjb>
  return (byte)buffer[0];
}
   d5a6a:	f89d 000c 	ldrb.w	r0, [sp, #12]
   d5a6e:	b005      	add	sp, #20
   d5a70:	f85d fb04 	ldr.w	pc, [sp], #4

000d5a74 <_ZN15Adafruit_BNO0555beginENS_24adafruit_bno055_opmode_tE>:
bool Adafruit_BNO055::begin(adafruit_bno055_opmode_t mode) {
   d5a74:	b570      	push	{r4, r5, r6, lr}
   d5a76:	4604      	mov	r4, r0
   d5a78:	460e      	mov	r6, r1
  if (!i2c_dev->begin()) {
   d5a7a:	6880      	ldr	r0, [r0, #8]
   d5a7c:	2101      	movs	r1, #1
   d5a7e:	f7ff fecc 	bl	d581a <_ZN18Adafruit_I2CDevice5beginEb>
   d5a82:	4605      	mov	r5, r0
   d5a84:	b910      	cbnz	r0, d5a8c <_ZN15Adafruit_BNO0555beginENS_24adafruit_bno055_opmode_tE+0x18>
    return false;
   d5a86:	2500      	movs	r5, #0
}
   d5a88:	4628      	mov	r0, r5
   d5a8a:	bd70      	pop	{r4, r5, r6, pc}
  uint8_t id = read8(BNO055_CHIP_ID_ADDR);
   d5a8c:	2100      	movs	r1, #0
   d5a8e:	4620      	mov	r0, r4
   d5a90:	f7ff ffdf 	bl	d5a52 <_ZN15Adafruit_BNO0555read8ENS_21adafruit_bno055_reg_tE>
  if (id != BNO055_ID) {
   d5a94:	28a0      	cmp	r0, #160	; 0xa0
   d5a96:	d113      	bne.n	d5ac0 <_ZN15Adafruit_BNO0555beginENS_24adafruit_bno055_opmode_tE+0x4c>
  setMode(OPERATION_MODE_CONFIG);
   d5a98:	2100      	movs	r1, #0
   d5a9a:	4620      	mov	r0, r4
   d5a9c:	f7ff ffab 	bl	d59f6 <_ZN15Adafruit_BNO0557setModeENS_24adafruit_bno055_opmode_tE>
  write8(BNO055_SYS_TRIGGER_ADDR, 0x20);
   d5aa0:	2220      	movs	r2, #32
   d5aa2:	213f      	movs	r1, #63	; 0x3f
   d5aa4:	4620      	mov	r0, r4
   d5aa6:	f7ff ff95 	bl	d59d4 <_ZN15Adafruit_BNO0556write8ENS_21adafruit_bno055_reg_tEh>
  delay(30);
   d5aaa:	201e      	movs	r0, #30
    delay(10);
   d5aac:	f001 fe16 	bl	d76dc <delay>
  while (read8(BNO055_CHIP_ID_ADDR) != BNO055_ID) {
   d5ab0:	2100      	movs	r1, #0
   d5ab2:	4620      	mov	r0, r4
   d5ab4:	f7ff ffcd 	bl	d5a52 <_ZN15Adafruit_BNO0555read8ENS_21adafruit_bno055_reg_tE>
   d5ab8:	28a0      	cmp	r0, #160	; 0xa0
   d5aba:	d00c      	beq.n	d5ad6 <_ZN15Adafruit_BNO0555beginENS_24adafruit_bno055_opmode_tE+0x62>
    delay(10);
   d5abc:	200a      	movs	r0, #10
   d5abe:	e7f5      	b.n	d5aac <_ZN15Adafruit_BNO0555beginENS_24adafruit_bno055_opmode_tE+0x38>
    delay(1000); // hold on for boot
   d5ac0:	f44f 707a 	mov.w	r0, #1000	; 0x3e8
   d5ac4:	f001 fe0a 	bl	d76dc <delay>
    id = read8(BNO055_CHIP_ID_ADDR);
   d5ac8:	2100      	movs	r1, #0
   d5aca:	4620      	mov	r0, r4
   d5acc:	f7ff ffc1 	bl	d5a52 <_ZN15Adafruit_BNO0555read8ENS_21adafruit_bno055_reg_tE>
    if (id != BNO055_ID) {
   d5ad0:	28a0      	cmp	r0, #160	; 0xa0
   d5ad2:	d1d8      	bne.n	d5a86 <_ZN15Adafruit_BNO0555beginENS_24adafruit_bno055_opmode_tE+0x12>
   d5ad4:	e7e0      	b.n	d5a98 <_ZN15Adafruit_BNO0555beginENS_24adafruit_bno055_opmode_tE+0x24>
  delay(50);
   d5ad6:	2032      	movs	r0, #50	; 0x32
   d5ad8:	f001 fe00 	bl	d76dc <delay>
  write8(BNO055_PWR_MODE_ADDR, POWER_MODE_NORMAL);
   d5adc:	2200      	movs	r2, #0
   d5ade:	213e      	movs	r1, #62	; 0x3e
   d5ae0:	4620      	mov	r0, r4
   d5ae2:	f7ff ff77 	bl	d59d4 <_ZN15Adafruit_BNO0556write8ENS_21adafruit_bno055_reg_tEh>
  delay(10);
   d5ae6:	200a      	movs	r0, #10
   d5ae8:	f001 fdf8 	bl	d76dc <delay>
  write8(BNO055_PAGE_ID_ADDR, 0);
   d5aec:	2200      	movs	r2, #0
   d5aee:	2107      	movs	r1, #7
   d5af0:	4620      	mov	r0, r4
   d5af2:	f7ff ff6f 	bl	d59d4 <_ZN15Adafruit_BNO0556write8ENS_21adafruit_bno055_reg_tEh>
  write8(BNO055_SYS_TRIGGER_ADDR, 0x0);
   d5af6:	2200      	movs	r2, #0
   d5af8:	213f      	movs	r1, #63	; 0x3f
   d5afa:	4620      	mov	r0, r4
   d5afc:	f7ff ff6a 	bl	d59d4 <_ZN15Adafruit_BNO0556write8ENS_21adafruit_bno055_reg_tEh>
  delay(10);
   d5b00:	200a      	movs	r0, #10
   d5b02:	f001 fdeb 	bl	d76dc <delay>
  setMode(mode);
   d5b06:	4620      	mov	r0, r4
   d5b08:	4631      	mov	r1, r6
   d5b0a:	f7ff ff74 	bl	d59f6 <_ZN15Adafruit_BNO0557setModeENS_24adafruit_bno055_opmode_tE>
  delay(20);
   d5b0e:	2014      	movs	r0, #20
   d5b10:	f001 fde4 	bl	d76dc <delay>
  return true;
   d5b14:	e7b8      	b.n	d5a88 <_ZN15Adafruit_BNO0555beginENS_24adafruit_bno055_opmode_tE+0x14>

000d5b16 <_ZN15Adafruit_BNO05514getCalibrationEPhS0_S0_S0_>:
                                     uint8_t *accel, uint8_t *mag) {
   d5b16:	b5f8      	push	{r3, r4, r5, r6, r7, lr}
   d5b18:	460e      	mov	r6, r1
  uint8_t calData = read8(BNO055_CALIB_STAT_ADDR);
   d5b1a:	2135      	movs	r1, #53	; 0x35
                                     uint8_t *accel, uint8_t *mag) {
   d5b1c:	9f06      	ldr	r7, [sp, #24]
   d5b1e:	4615      	mov	r5, r2
   d5b20:	461c      	mov	r4, r3
  uint8_t calData = read8(BNO055_CALIB_STAT_ADDR);
   d5b22:	f7ff ff96 	bl	d5a52 <_ZN15Adafruit_BNO0555read8ENS_21adafruit_bno055_reg_tE>
  if (sys != NULL) {
   d5b26:	b10e      	cbz	r6, d5b2c <_ZN15Adafruit_BNO05514getCalibrationEPhS0_S0_S0_+0x16>
    *sys = (calData >> 6) & 0x03;
   d5b28:	0983      	lsrs	r3, r0, #6
   d5b2a:	7033      	strb	r3, [r6, #0]
  if (gyro != NULL) {
   d5b2c:	b115      	cbz	r5, d5b34 <_ZN15Adafruit_BNO05514getCalibrationEPhS0_S0_S0_+0x1e>
    *gyro = (calData >> 4) & 0x03;
   d5b2e:	f3c0 1301 	ubfx	r3, r0, #4, #2
   d5b32:	702b      	strb	r3, [r5, #0]
  if (accel != NULL) {
   d5b34:	b114      	cbz	r4, d5b3c <_ZN15Adafruit_BNO05514getCalibrationEPhS0_S0_S0_+0x26>
    *accel = (calData >> 2) & 0x03;
   d5b36:	f3c0 0381 	ubfx	r3, r0, #2, #2
   d5b3a:	7023      	strb	r3, [r4, #0]
  if (mag != NULL) {
   d5b3c:	b117      	cbz	r7, d5b44 <_ZN15Adafruit_BNO05514getCalibrationEPhS0_S0_S0_+0x2e>
    *mag = calData & 0x03;
   d5b3e:	f000 0003 	and.w	r0, r0, #3
   d5b42:	7038      	strb	r0, [r7, #0]
}
   d5b44:	bdf8      	pop	{r3, r4, r5, r6, r7, pc}

000d5b46 <_ZN15Adafruit_BNO05517isFullyCalibratedEv>:
bool Adafruit_BNO055::isFullyCalibrated() {
   d5b46:	b51f      	push	{r0, r1, r2, r3, r4, lr}
   d5b48:	4604      	mov	r4, r0
  getCalibration(&system, &gyro, &accel, &mag);
   d5b4a:	f10d 030f 	add.w	r3, sp, #15
   d5b4e:	9300      	str	r3, [sp, #0]
   d5b50:	f10d 020d 	add.w	r2, sp, #13
   d5b54:	f10d 030e 	add.w	r3, sp, #14
   d5b58:	a903      	add	r1, sp, #12
   d5b5a:	f7ff ffdc 	bl	d5b16 <_ZN15Adafruit_BNO05514getCalibrationEPhS0_S0_S0_>
  switch (_mode) {
   d5b5e:	7c23      	ldrb	r3, [r4, #16]
   d5b60:	3b01      	subs	r3, #1
   d5b62:	2b09      	cmp	r3, #9
   d5b64:	d817      	bhi.n	d5b96 <_ZN15Adafruit_BNO05517isFullyCalibratedEv+0x50>
   d5b66:	e8df f003 	tbb	[pc, r3]
   d5b6a:	2205      	.short	0x2205
   d5b6c:	130c1e10 	.word	0x130c1e10
   d5b70:	101e0c16 	.word	0x101e0c16
    return (accel == 3);
   d5b74:	f89d 000e 	ldrb.w	r0, [sp, #14]
    return (system == 3 && gyro == 3 && accel == 3 && mag == 3);
   d5b78:	1ec3      	subs	r3, r0, #3
   d5b7a:	4258      	negs	r0, r3
   d5b7c:	4158      	adcs	r0, r3
}
   d5b7e:	b004      	add	sp, #16
   d5b80:	bd10      	pop	{r4, pc}
    return (accel == 3 && gyro == 3);
   d5b82:	f89d 300e 	ldrb.w	r3, [sp, #14]
    return (mag == 3 && gyro == 3);
   d5b86:	2b03      	cmp	r3, #3
   d5b88:	d114      	bne.n	d5bb4 <_ZN15Adafruit_BNO05517isFullyCalibratedEv+0x6e>
   d5b8a:	f89d 000d 	ldrb.w	r0, [sp, #13]
   d5b8e:	e7f3      	b.n	d5b78 <_ZN15Adafruit_BNO05517isFullyCalibratedEv+0x32>
   d5b90:	f89d 300f 	ldrb.w	r3, [sp, #15]
   d5b94:	e7f7      	b.n	d5b86 <_ZN15Adafruit_BNO05517isFullyCalibratedEv+0x40>
    return (system == 3 && gyro == 3 && accel == 3 && mag == 3);
   d5b96:	f89d 300c 	ldrb.w	r3, [sp, #12]
   d5b9a:	2b03      	cmp	r3, #3
   d5b9c:	d10a      	bne.n	d5bb4 <_ZN15Adafruit_BNO05517isFullyCalibratedEv+0x6e>
   d5b9e:	f89d 300d 	ldrb.w	r3, [sp, #13]
   d5ba2:	2b03      	cmp	r3, #3
   d5ba4:	d106      	bne.n	d5bb4 <_ZN15Adafruit_BNO05517isFullyCalibratedEv+0x6e>
   d5ba6:	f89d 300e 	ldrb.w	r3, [sp, #14]
   d5baa:	2b03      	cmp	r3, #3
   d5bac:	d102      	bne.n	d5bb4 <_ZN15Adafruit_BNO05517isFullyCalibratedEv+0x6e>
   d5bae:	f89d 000f 	ldrb.w	r0, [sp, #15]
   d5bb2:	e7e1      	b.n	d5b78 <_ZN15Adafruit_BNO05517isFullyCalibratedEv+0x32>
    return (accel == 3 && mag == 3);
   d5bb4:	2000      	movs	r0, #0
   d5bb6:	e7e2      	b.n	d5b7e <_ZN15Adafruit_BNO05517isFullyCalibratedEv+0x38>

000d5bb8 <_ZN15Adafruit_BNO05516getSensorOffsetsER25adafruit_bno055_offsets_t>:
    adafruit_bno055_offsets_t &offsets_type) {
   d5bb8:	e92d 41f0 	stmdb	sp!, {r4, r5, r6, r7, r8, lr}
   d5bbc:	4604      	mov	r4, r0
   d5bbe:	460d      	mov	r5, r1
  if (isFullyCalibrated()) {
   d5bc0:	f7ff ffc1 	bl	d5b46 <_ZN15Adafruit_BNO05517isFullyCalibratedEv>
   d5bc4:	4606      	mov	r6, r0
   d5bc6:	2800      	cmp	r0, #0
   d5bc8:	f000 8091 	beq.w	d5cee <_ZN15Adafruit_BNO05516getSensorOffsetsER25adafruit_bno055_offsets_t+0x136>
    setMode(OPERATION_MODE_CONFIG);
   d5bcc:	2100      	movs	r1, #0
   d5bce:	4620      	mov	r0, r4
    adafruit_bno055_opmode_t lastMode = _mode;
   d5bd0:	f894 8010 	ldrb.w	r8, [r4, #16]
    setMode(OPERATION_MODE_CONFIG);
   d5bd4:	f7ff ff0f 	bl	d59f6 <_ZN15Adafruit_BNO0557setModeENS_24adafruit_bno055_opmode_tE>
    delay(25);
   d5bd8:	2019      	movs	r0, #25
   d5bda:	f001 fd7f 	bl	d76dc <delay>
    offsets_type.accel_offset_x = (read8(ACCEL_OFFSET_X_MSB_ADDR) << 8) |
   d5bde:	2156      	movs	r1, #86	; 0x56
   d5be0:	4620      	mov	r0, r4
   d5be2:	f7ff ff36 	bl	d5a52 <_ZN15Adafruit_BNO0555read8ENS_21adafruit_bno055_reg_tE>
                                  (read8(ACCEL_OFFSET_X_LSB_ADDR));
   d5be6:	2155      	movs	r1, #85	; 0x55
    offsets_type.accel_offset_x = (read8(ACCEL_OFFSET_X_MSB_ADDR) << 8) |
   d5be8:	4607      	mov	r7, r0
                                  (read8(ACCEL_OFFSET_X_LSB_ADDR));
   d5bea:	4620      	mov	r0, r4
   d5bec:	f7ff ff31 	bl	d5a52 <_ZN15Adafruit_BNO0555read8ENS_21adafruit_bno055_reg_tE>
    offsets_type.accel_offset_x = (read8(ACCEL_OFFSET_X_MSB_ADDR) << 8) |
   d5bf0:	ea40 2007 	orr.w	r0, r0, r7, lsl #8
   d5bf4:	8028      	strh	r0, [r5, #0]
    offsets_type.accel_offset_y = (read8(ACCEL_OFFSET_Y_MSB_ADDR) << 8) |
   d5bf6:	2158      	movs	r1, #88	; 0x58
   d5bf8:	4620      	mov	r0, r4
   d5bfa:	f7ff ff2a 	bl	d5a52 <_ZN15Adafruit_BNO0555read8ENS_21adafruit_bno055_reg_tE>
                                  (read8(ACCEL_OFFSET_Y_LSB_ADDR));
   d5bfe:	2157      	movs	r1, #87	; 0x57
    offsets_type.accel_offset_y = (read8(ACCEL_OFFSET_Y_MSB_ADDR) << 8) |
   d5c00:	4607      	mov	r7, r0
                                  (read8(ACCEL_OFFSET_Y_LSB_ADDR));
   d5c02:	4620      	mov	r0, r4
   d5c04:	f7ff ff25 	bl	d5a52 <_ZN15Adafruit_BNO0555read8ENS_21adafruit_bno055_reg_tE>
    offsets_type.accel_offset_y = (read8(ACCEL_OFFSET_Y_MSB_ADDR) << 8) |
   d5c08:	ea40 2007 	orr.w	r0, r0, r7, lsl #8
   d5c0c:	8068      	strh	r0, [r5, #2]
    offsets_type.accel_offset_z = (read8(ACCEL_OFFSET_Z_MSB_ADDR) << 8) |
   d5c0e:	215a      	movs	r1, #90	; 0x5a
   d5c10:	4620      	mov	r0, r4
   d5c12:	f7ff ff1e 	bl	d5a52 <_ZN15Adafruit_BNO0555read8ENS_21adafruit_bno055_reg_tE>
                                  (read8(ACCEL_OFFSET_Z_LSB_ADDR));
   d5c16:	2159      	movs	r1, #89	; 0x59
    offsets_type.accel_offset_z = (read8(ACCEL_OFFSET_Z_MSB_ADDR) << 8) |
   d5c18:	4607      	mov	r7, r0
                                  (read8(ACCEL_OFFSET_Z_LSB_ADDR));
   d5c1a:	4620      	mov	r0, r4
   d5c1c:	f7ff ff19 	bl	d5a52 <_ZN15Adafruit_BNO0555read8ENS_21adafruit_bno055_reg_tE>
    offsets_type.accel_offset_z = (read8(ACCEL_OFFSET_Z_MSB_ADDR) << 8) |
   d5c20:	ea40 2007 	orr.w	r0, r0, r7, lsl #8
   d5c24:	80a8      	strh	r0, [r5, #4]
        (read8(MAG_OFFSET_X_MSB_ADDR) << 8) | (read8(MAG_OFFSET_X_LSB_ADDR));
   d5c26:	215c      	movs	r1, #92	; 0x5c
   d5c28:	4620      	mov	r0, r4
   d5c2a:	f7ff ff12 	bl	d5a52 <_ZN15Adafruit_BNO0555read8ENS_21adafruit_bno055_reg_tE>
   d5c2e:	215b      	movs	r1, #91	; 0x5b
   d5c30:	4607      	mov	r7, r0
   d5c32:	4620      	mov	r0, r4
   d5c34:	f7ff ff0d 	bl	d5a52 <_ZN15Adafruit_BNO0555read8ENS_21adafruit_bno055_reg_tE>
   d5c38:	ea40 2007 	orr.w	r0, r0, r7, lsl #8
    offsets_type.mag_offset_x =
   d5c3c:	80e8      	strh	r0, [r5, #6]
        (read8(MAG_OFFSET_Y_MSB_ADDR) << 8) | (read8(MAG_OFFSET_Y_LSB_ADDR));
   d5c3e:	215e      	movs	r1, #94	; 0x5e
   d5c40:	4620      	mov	r0, r4
   d5c42:	f7ff ff06 	bl	d5a52 <_ZN15Adafruit_BNO0555read8ENS_21adafruit_bno055_reg_tE>
   d5c46:	215d      	movs	r1, #93	; 0x5d
   d5c48:	4607      	mov	r7, r0
   d5c4a:	4620      	mov	r0, r4
   d5c4c:	f7ff ff01 	bl	d5a52 <_ZN15Adafruit_BNO0555read8ENS_21adafruit_bno055_reg_tE>
   d5c50:	ea40 2007 	orr.w	r0, r0, r7, lsl #8
    offsets_type.mag_offset_y =
   d5c54:	8128      	strh	r0, [r5, #8]
        (read8(MAG_OFFSET_Z_MSB_ADDR) << 8) | (read8(MAG_OFFSET_Z_LSB_ADDR));
   d5c56:	2160      	movs	r1, #96	; 0x60
   d5c58:	4620      	mov	r0, r4
   d5c5a:	f7ff fefa 	bl	d5a52 <_ZN15Adafruit_BNO0555read8ENS_21adafruit_bno055_reg_tE>
   d5c5e:	215f      	movs	r1, #95	; 0x5f
   d5c60:	4607      	mov	r7, r0
   d5c62:	4620      	mov	r0, r4
   d5c64:	f7ff fef5 	bl	d5a52 <_ZN15Adafruit_BNO0555read8ENS_21adafruit_bno055_reg_tE>
   d5c68:	ea40 2007 	orr.w	r0, r0, r7, lsl #8
    offsets_type.mag_offset_z =
   d5c6c:	8168      	strh	r0, [r5, #10]
        (read8(GYRO_OFFSET_X_MSB_ADDR) << 8) | (read8(GYRO_OFFSET_X_LSB_ADDR));
   d5c6e:	2162      	movs	r1, #98	; 0x62
   d5c70:	4620      	mov	r0, r4
   d5c72:	f7ff feee 	bl	d5a52 <_ZN15Adafruit_BNO0555read8ENS_21adafruit_bno055_reg_tE>
   d5c76:	2161      	movs	r1, #97	; 0x61
   d5c78:	4607      	mov	r7, r0
   d5c7a:	4620      	mov	r0, r4
   d5c7c:	f7ff fee9 	bl	d5a52 <_ZN15Adafruit_BNO0555read8ENS_21adafruit_bno055_reg_tE>
   d5c80:	ea40 2007 	orr.w	r0, r0, r7, lsl #8
    offsets_type.gyro_offset_x =
   d5c84:	81a8      	strh	r0, [r5, #12]
        (read8(GYRO_OFFSET_Y_MSB_ADDR) << 8) | (read8(GYRO_OFFSET_Y_LSB_ADDR));
   d5c86:	2164      	movs	r1, #100	; 0x64
   d5c88:	4620      	mov	r0, r4
   d5c8a:	f7ff fee2 	bl	d5a52 <_ZN15Adafruit_BNO0555read8ENS_21adafruit_bno055_reg_tE>
   d5c8e:	2163      	movs	r1, #99	; 0x63
   d5c90:	4607      	mov	r7, r0
   d5c92:	4620      	mov	r0, r4
   d5c94:	f7ff fedd 	bl	d5a52 <_ZN15Adafruit_BNO0555read8ENS_21adafruit_bno055_reg_tE>
   d5c98:	ea40 2007 	orr.w	r0, r0, r7, lsl #8
    offsets_type.gyro_offset_y =
   d5c9c:	81e8      	strh	r0, [r5, #14]
        (read8(GYRO_OFFSET_Z_MSB_ADDR) << 8) | (read8(GYRO_OFFSET_Z_LSB_ADDR));
   d5c9e:	2166      	movs	r1, #102	; 0x66
   d5ca0:	4620      	mov	r0, r4
   d5ca2:	f7ff fed6 	bl	d5a52 <_ZN15Adafruit_BNO0555read8ENS_21adafruit_bno055_reg_tE>
   d5ca6:	2165      	movs	r1, #101	; 0x65
   d5ca8:	4607      	mov	r7, r0
   d5caa:	4620      	mov	r0, r4
   d5cac:	f7ff fed1 	bl	d5a52 <_ZN15Adafruit_BNO0555read8ENS_21adafruit_bno055_reg_tE>
   d5cb0:	ea40 2007 	orr.w	r0, r0, r7, lsl #8
    offsets_type.gyro_offset_z =
   d5cb4:	8228      	strh	r0, [r5, #16]
        (read8(ACCEL_RADIUS_MSB_ADDR) << 8) | (read8(ACCEL_RADIUS_LSB_ADDR));
   d5cb6:	2168      	movs	r1, #104	; 0x68
   d5cb8:	4620      	mov	r0, r4
   d5cba:	f7ff feca 	bl	d5a52 <_ZN15Adafruit_BNO0555read8ENS_21adafruit_bno055_reg_tE>
   d5cbe:	2167      	movs	r1, #103	; 0x67
   d5cc0:	4607      	mov	r7, r0
   d5cc2:	4620      	mov	r0, r4
   d5cc4:	f7ff fec5 	bl	d5a52 <_ZN15Adafruit_BNO0555read8ENS_21adafruit_bno055_reg_tE>
   d5cc8:	ea40 2007 	orr.w	r0, r0, r7, lsl #8
    offsets_type.accel_radius =
   d5ccc:	8268      	strh	r0, [r5, #18]
        (read8(MAG_RADIUS_MSB_ADDR) << 8) | (read8(MAG_RADIUS_LSB_ADDR));
   d5cce:	216a      	movs	r1, #106	; 0x6a
   d5cd0:	4620      	mov	r0, r4
   d5cd2:	f7ff febe 	bl	d5a52 <_ZN15Adafruit_BNO0555read8ENS_21adafruit_bno055_reg_tE>
   d5cd6:	2169      	movs	r1, #105	; 0x69
   d5cd8:	4607      	mov	r7, r0
   d5cda:	4620      	mov	r0, r4
   d5cdc:	f7ff feb9 	bl	d5a52 <_ZN15Adafruit_BNO0555read8ENS_21adafruit_bno055_reg_tE>
   d5ce0:	ea40 2007 	orr.w	r0, r0, r7, lsl #8
    offsets_type.mag_radius =
   d5ce4:	82a8      	strh	r0, [r5, #20]
    setMode(lastMode);
   d5ce6:	4641      	mov	r1, r8
   d5ce8:	4620      	mov	r0, r4
   d5cea:	f7ff fe84 	bl	d59f6 <_ZN15Adafruit_BNO0557setModeENS_24adafruit_bno055_opmode_tE>
}
   d5cee:	4630      	mov	r0, r6
   d5cf0:	e8bd 81f0 	ldmia.w	sp!, {r4, r5, r6, r7, r8, pc}

000d5cf4 <_ZN15Adafruit_BNO0557readLenENS_21adafruit_bno055_reg_tEPhh>:

/*!
 *  @brief  Reads the specified number of bytes over I2C
 */
bool Adafruit_BNO055::readLen(adafruit_bno055_reg_t reg, byte *buffer,
                              uint8_t len) {
   d5cf4:	b51f      	push	{r0, r1, r2, r3, r4, lr}
  uint8_t reg_buf[1] = {(uint8_t)reg};
   d5cf6:	f88d 100c 	strb.w	r1, [sp, #12]
  return i2c_dev->write_then_read(reg_buf, 1, buffer, len);
   d5cfa:	2100      	movs	r1, #0
   d5cfc:	e9cd 3100 	strd	r3, r1, [sp]
   d5d00:	4613      	mov	r3, r2
   d5d02:	a903      	add	r1, sp, #12
   d5d04:	2201      	movs	r2, #1
   d5d06:	6880      	ldr	r0, [r0, #8]
   d5d08:	f7ff fe04 	bl	d5914 <_ZN18Adafruit_I2CDevice15write_then_readEPKhjPhjb>
}
   d5d0c:	b005      	add	sp, #20
   d5d0e:	f85d fb04 	ldr.w	pc, [sp], #4
	...

000d5d14 <_ZN15Adafruit_BNO0557getQuatEv>:
imu::Quaternion Adafruit_BNO055::getQuat() {
   d5d14:	b500      	push	{lr}
   d5d16:	ed2d 8b06 	vpush	{d8-d10}
  memset(buffer, 0, 8);
   d5d1a:	2300      	movs	r3, #0
imu::Quaternion Adafruit_BNO055::getQuat() {
   d5d1c:	b093      	sub	sp, #76	; 0x4c
  readLen(BNO055_QUATERNION_DATA_W_LSB_ADDR, buffer, 8);
   d5d1e:	aa08      	add	r2, sp, #32
  memset(buffer, 0, 8);
   d5d20:	e9cd 3308 	strd	r3, r3, [sp, #32]
  readLen(BNO055_QUATERNION_DATA_W_LSB_ADDR, buffer, 8);
   d5d24:	2120      	movs	r1, #32
   d5d26:	2308      	movs	r3, #8
   d5d28:	f7ff ffe4 	bl	d5cf4 <_ZN15Adafruit_BNO0557readLenENS_21adafruit_bno055_reg_tEPhh>
  x = (((uint16_t)buffer[3]) << 8) | ((uint16_t)buffer[2]);
   d5d2c:	f89d 3023 	ldrb.w	r3, [sp, #35]	; 0x23
   d5d30:	f89d 0022 	ldrb.w	r0, [sp, #34]	; 0x22
   d5d34:	ea40 2003 	orr.w	r0, r0, r3, lsl #8
  imu::Quaternion quat(scale * w, scale * x, scale * y, scale * z);
   d5d38:	b200      	sxth	r0, r0
   d5d3a:	f003 fc11 	bl	d9560 <__aeabi_i2d>
   d5d3e:	2200      	movs	r2, #0
   d5d40:	4b21      	ldr	r3, [pc, #132]	; (d5dc8 <_ZN15Adafruit_BNO0557getQuatEv+0xb4>)
   d5d42:	f003 fc77 	bl	d9634 <__aeabi_dmul>
  y = (((uint16_t)buffer[5]) << 8) | ((uint16_t)buffer[4]);
   d5d46:	f89d 3025 	ldrb.w	r3, [sp, #37]	; 0x25
  imu::Quaternion quat(scale * w, scale * x, scale * y, scale * z);
   d5d4a:	ec41 0b1a 	vmov	d10, r0, r1
  y = (((uint16_t)buffer[5]) << 8) | ((uint16_t)buffer[4]);
   d5d4e:	f89d 0024 	ldrb.w	r0, [sp, #36]	; 0x24
   d5d52:	ea40 2003 	orr.w	r0, r0, r3, lsl #8
  imu::Quaternion quat(scale * w, scale * x, scale * y, scale * z);
   d5d56:	b200      	sxth	r0, r0
   d5d58:	f003 fc02 	bl	d9560 <__aeabi_i2d>
   d5d5c:	2200      	movs	r2, #0
   d5d5e:	4b1a      	ldr	r3, [pc, #104]	; (d5dc8 <_ZN15Adafruit_BNO0557getQuatEv+0xb4>)
   d5d60:	f003 fc68 	bl	d9634 <__aeabi_dmul>
  z = (((uint16_t)buffer[7]) << 8) | ((uint16_t)buffer[6]);
   d5d64:	f89d 3027 	ldrb.w	r3, [sp, #39]	; 0x27
  imu::Quaternion quat(scale * w, scale * x, scale * y, scale * z);
   d5d68:	ec41 0b19 	vmov	d9, r0, r1
  z = (((uint16_t)buffer[7]) << 8) | ((uint16_t)buffer[6]);
   d5d6c:	f89d 0026 	ldrb.w	r0, [sp, #38]	; 0x26
   d5d70:	ea40 2003 	orr.w	r0, r0, r3, lsl #8
  imu::Quaternion quat(scale * w, scale * x, scale * y, scale * z);
   d5d74:	b200      	sxth	r0, r0
   d5d76:	f003 fbf3 	bl	d9560 <__aeabi_i2d>
   d5d7a:	2200      	movs	r2, #0
   d5d7c:	4b12      	ldr	r3, [pc, #72]	; (d5dc8 <_ZN15Adafruit_BNO0557getQuatEv+0xb4>)
   d5d7e:	f003 fc59 	bl	d9634 <__aeabi_dmul>
  w = (((uint16_t)buffer[1]) << 8) | ((uint16_t)buffer[0]);
   d5d82:	f89d 3021 	ldrb.w	r3, [sp, #33]	; 0x21
  imu::Quaternion quat(scale * w, scale * x, scale * y, scale * z);
   d5d86:	ec41 0b18 	vmov	d8, r0, r1
  w = (((uint16_t)buffer[1]) << 8) | ((uint16_t)buffer[0]);
   d5d8a:	f89d 0020 	ldrb.w	r0, [sp, #32]
   d5d8e:	ea40 2003 	orr.w	r0, r0, r3, lsl #8
  imu::Quaternion quat(scale * w, scale * x, scale * y, scale * z);
   d5d92:	b200      	sxth	r0, r0
   d5d94:	f003 fbe4 	bl	d9560 <__aeabi_i2d>
   d5d98:	4b0b      	ldr	r3, [pc, #44]	; (d5dc8 <_ZN15Adafruit_BNO0557getQuatEv+0xb4>)
   d5d9a:	2200      	movs	r2, #0
   d5d9c:	f003 fc4a 	bl	d9634 <__aeabi_dmul>
}
   d5da0:	eeb0 1a4a 	vmov.f32	s2, s20
   d5da4:	eef0 1a6a 	vmov.f32	s3, s21
   d5da8:	eeb0 2a49 	vmov.f32	s4, s18
   d5dac:	eef0 2a69 	vmov.f32	s5, s19
   d5db0:	ec41 0b10 	vmov	d0, r0, r1
   d5db4:	eeb0 3a48 	vmov.f32	s6, s16
   d5db8:	eef0 3a68 	vmov.f32	s7, s17
   d5dbc:	b013      	add	sp, #76	; 0x4c
   d5dbe:	ecbd 8b06 	vpop	{d8-d10}
   d5dc2:	f85d fb04 	ldr.w	pc, [sp], #4
   d5dc6:	bf00      	nop
   d5dc8:	3f100000 	.word	0x3f100000

000d5dcc <_ZN15Adafruit_BNO0559getVectorENS_22adafruit_vector_type_tE>:
imu::Vector<3> Adafruit_BNO055::getVector(adafruit_vector_type_t vector_type) {
   d5dcc:	b5f7      	push	{r0, r1, r2, r4, r5, r6, r7, lr}
   d5dce:	460d      	mov	r5, r1
   d5dd0:	4616      	mov	r6, r2

namespace imu {

template <uint8_t N> class Vector {
public:
  Vector() { memset(p_vec, 0, sizeof(double) * N); }
   d5dd2:	2100      	movs	r1, #0
   d5dd4:	2218      	movs	r2, #24
   d5dd6:	4604      	mov	r4, r0
   d5dd8:	f004 fa4a 	bl	da270 <memset>
  memset(buffer, 0, 6);
   d5ddc:	2300      	movs	r3, #0
   d5dde:	9300      	str	r3, [sp, #0]
   d5de0:	f8ad 3004 	strh.w	r3, [sp, #4]
  readLen((adafruit_bno055_reg_t)vector_type, buffer, 6);
   d5de4:	4628      	mov	r0, r5
   d5de6:	2306      	movs	r3, #6
   d5de8:	466a      	mov	r2, sp
   d5dea:	4631      	mov	r1, r6
   d5dec:	f7ff ff82 	bl	d5cf4 <_ZN15Adafruit_BNO0557readLenENS_21adafruit_bno055_reg_tEPhh>
  x = ((int16_t)buffer[0]) | (((int16_t)buffer[1]) << 8);
   d5df0:	f89d 3001 	ldrb.w	r3, [sp, #1]
   d5df4:	f89d 0000 	ldrb.w	r0, [sp]
  y = ((int16_t)buffer[2]) | (((int16_t)buffer[3]) << 8);
   d5df8:	f89d 7002 	ldrb.w	r7, [sp, #2]
  z = ((int16_t)buffer[4]) | (((int16_t)buffer[5]) << 8);
   d5dfc:	f89d 5004 	ldrb.w	r5, [sp, #4]
  x = ((int16_t)buffer[0]) | (((int16_t)buffer[1]) << 8);
   d5e00:	ea40 2003 	orr.w	r0, r0, r3, lsl #8
  y = ((int16_t)buffer[2]) | (((int16_t)buffer[3]) << 8);
   d5e04:	f89d 3003 	ldrb.w	r3, [sp, #3]
   d5e08:	ea47 2703 	orr.w	r7, r7, r3, lsl #8
  z = ((int16_t)buffer[4]) | (((int16_t)buffer[5]) << 8);
   d5e0c:	f89d 3005 	ldrb.w	r3, [sp, #5]
  switch (vector_type) {
   d5e10:	2e1a      	cmp	r6, #26
  z = ((int16_t)buffer[4]) | (((int16_t)buffer[5]) << 8);
   d5e12:	ea45 2503 	orr.w	r5, r5, r3, lsl #8
  x = ((int16_t)buffer[0]) | (((int16_t)buffer[1]) << 8);
   d5e16:	b200      	sxth	r0, r0
  y = ((int16_t)buffer[2]) | (((int16_t)buffer[3]) << 8);
   d5e18:	b23f      	sxth	r7, r7
  z = ((int16_t)buffer[4]) | (((int16_t)buffer[5]) << 8);
   d5e1a:	b22d      	sxth	r5, r5
  switch (vector_type) {
   d5e1c:	d00d      	beq.n	d5e3a <_ZN15Adafruit_BNO0559getVectorENS_22adafruit_vector_type_tE+0x6e>
   d5e1e:	d808      	bhi.n	d5e32 <_ZN15Adafruit_BNO0559getVectorENS_22adafruit_vector_type_tE+0x66>
   d5e20:	2e0e      	cmp	r6, #14
   d5e22:	d00a      	beq.n	d5e3a <_ZN15Adafruit_BNO0559getVectorENS_22adafruit_vector_type_tE+0x6e>
   d5e24:	2e14      	cmp	r6, #20
   d5e26:	d008      	beq.n	d5e3a <_ZN15Adafruit_BNO0559getVectorENS_22adafruit_vector_type_tE+0x6e>
   d5e28:	2e08      	cmp	r6, #8
   d5e2a:	d021      	beq.n	d5e70 <_ZN15Adafruit_BNO0559getVectorENS_22adafruit_vector_type_tE+0xa4>
}
   d5e2c:	4620      	mov	r0, r4
   d5e2e:	b003      	add	sp, #12
   d5e30:	bdf0      	pop	{r4, r5, r6, r7, pc}
  switch (vector_type) {
   d5e32:	2e28      	cmp	r6, #40	; 0x28
   d5e34:	d01c      	beq.n	d5e70 <_ZN15Adafruit_BNO0559getVectorENS_22adafruit_vector_type_tE+0xa4>
   d5e36:	2e2e      	cmp	r6, #46	; 0x2e
   d5e38:	e7f7      	b.n	d5e2a <_ZN15Adafruit_BNO0559getVectorENS_22adafruit_vector_type_tE+0x5e>
    xyz[0] = ((double)x) / 16.0;
   d5e3a:	f003 fb91 	bl	d9560 <__aeabi_i2d>
   d5e3e:	4b19      	ldr	r3, [pc, #100]	; (d5ea4 <_ZN15Adafruit_BNO0559getVectorENS_22adafruit_vector_type_tE+0xd8>)
   d5e40:	2200      	movs	r2, #0
   d5e42:	f003 fbf7 	bl	d9634 <__aeabi_dmul>
   d5e46:	e9c4 0100 	strd	r0, r1, [r4]
    xyz[1] = ((double)y) / 16.0;
   d5e4a:	4638      	mov	r0, r7
   d5e4c:	f003 fb88 	bl	d9560 <__aeabi_i2d>
   d5e50:	4b14      	ldr	r3, [pc, #80]	; (d5ea4 <_ZN15Adafruit_BNO0559getVectorENS_22adafruit_vector_type_tE+0xd8>)
   d5e52:	2200      	movs	r2, #0
   d5e54:	f003 fbee 	bl	d9634 <__aeabi_dmul>
   d5e58:	e9c4 0102 	strd	r0, r1, [r4, #8]
    xyz[2] = ((double)z) / 16.0;
   d5e5c:	4628      	mov	r0, r5
   d5e5e:	f003 fb7f 	bl	d9560 <__aeabi_i2d>
   d5e62:	4b10      	ldr	r3, [pc, #64]	; (d5ea4 <_ZN15Adafruit_BNO0559getVectorENS_22adafruit_vector_type_tE+0xd8>)
   d5e64:	2200      	movs	r2, #0
   d5e66:	f003 fbe5 	bl	d9634 <__aeabi_dmul>
    xyz[2] = ((double)z) / 100.0;
   d5e6a:	e9c4 0104 	strd	r0, r1, [r4, #16]
  return xyz;
   d5e6e:	e7dd      	b.n	d5e2c <_ZN15Adafruit_BNO0559getVectorENS_22adafruit_vector_type_tE+0x60>
    xyz[0] = ((double)x) / 100.0;
   d5e70:	f003 fb76 	bl	d9560 <__aeabi_i2d>
   d5e74:	4b0c      	ldr	r3, [pc, #48]	; (d5ea8 <_ZN15Adafruit_BNO0559getVectorENS_22adafruit_vector_type_tE+0xdc>)
   d5e76:	2200      	movs	r2, #0
   d5e78:	f003 fd06 	bl	d9888 <__aeabi_ddiv>
   d5e7c:	e9c4 0100 	strd	r0, r1, [r4]
    xyz[1] = ((double)y) / 100.0;
   d5e80:	4638      	mov	r0, r7
   d5e82:	f003 fb6d 	bl	d9560 <__aeabi_i2d>
   d5e86:	4b08      	ldr	r3, [pc, #32]	; (d5ea8 <_ZN15Adafruit_BNO0559getVectorENS_22adafruit_vector_type_tE+0xdc>)
   d5e88:	2200      	movs	r2, #0
   d5e8a:	f003 fcfd 	bl	d9888 <__aeabi_ddiv>
   d5e8e:	e9c4 0102 	strd	r0, r1, [r4, #8]
    xyz[2] = ((double)z) / 100.0;
   d5e92:	4628      	mov	r0, r5
   d5e94:	f003 fb64 	bl	d9560 <__aeabi_i2d>
   d5e98:	4b03      	ldr	r3, [pc, #12]	; (d5ea8 <_ZN15Adafruit_BNO0559getVectorENS_22adafruit_vector_type_tE+0xdc>)
   d5e9a:	2200      	movs	r2, #0
   d5e9c:	f003 fcf4 	bl	d9888 <__aeabi_ddiv>
   d5ea0:	e7e3      	b.n	d5e6a <_ZN15Adafruit_BNO0559getVectorENS_22adafruit_vector_type_tE+0x9e>
   d5ea2:	bf00      	nop
   d5ea4:	3fb00000 	.word	0x3fb00000
   d5ea8:	40590000 	.word	0x40590000

000d5eac <_ZN15Adafruit_BNO0558getEventEP15sensors_event_t>:
bool Adafruit_BNO055::getEvent(sensors_event_t *event) {
   d5eac:	b530      	push	{r4, r5, lr}
   d5eae:	460c      	mov	r4, r1
   d5eb0:	b087      	sub	sp, #28
   d5eb2:	4605      	mov	r5, r0
  memset(event, 0, sizeof(sensors_event_t));
   d5eb4:	2220      	movs	r2, #32
   d5eb6:	2100      	movs	r1, #0
   d5eb8:	1d20      	adds	r0, r4, #4
   d5eba:	f004 f9d9 	bl	da270 <memset>
  event->version = sizeof(sensors_event_t);
   d5ebe:	2324      	movs	r3, #36	; 0x24
   d5ec0:	6023      	str	r3, [r4, #0]
  event->sensor_id = _sensorID;
   d5ec2:	68eb      	ldr	r3, [r5, #12]
   d5ec4:	6063      	str	r3, [r4, #4]
  event->type = SENSOR_TYPE_ORIENTATION;
   d5ec6:	2303      	movs	r3, #3
   d5ec8:	60a3      	str	r3, [r4, #8]
inline system_tick_t millis(void) { return HAL_Timer_Get_Milli_Seconds(); }
   d5eca:	f000 ff59 	bl	d6d80 <HAL_Timer_Get_Milli_Seconds>
  imu::Vector<3> euler = getVector(Adafruit_BNO055::VECTOR_EULER);
   d5ece:	221a      	movs	r2, #26
  event->timestamp = millis();
   d5ed0:	6120      	str	r0, [r4, #16]
  imu::Vector<3> euler = getVector(Adafruit_BNO055::VECTOR_EULER);
   d5ed2:	4629      	mov	r1, r5
   d5ed4:	4668      	mov	r0, sp
   d5ed6:	f7ff ff79 	bl	d5dcc <_ZN15Adafruit_BNO0559getVectorENS_22adafruit_vector_type_tE>
  event->orientation.x = euler.x();
   d5eda:	e9dd 0100 	ldrd	r0, r1, [sp]
   d5ede:	f003 fea1 	bl	d9c24 <__aeabi_d2f>
   d5ee2:	6160      	str	r0, [r4, #20]
  event->orientation.y = euler.y();
   d5ee4:	e9dd 0102 	ldrd	r0, r1, [sp, #8]
   d5ee8:	f003 fe9c 	bl	d9c24 <__aeabi_d2f>
   d5eec:	61a0      	str	r0, [r4, #24]
  event->orientation.z = euler.z();
   d5eee:	e9dd 0104 	ldrd	r0, r1, [sp, #16]
   d5ef2:	f003 fe97 	bl	d9c24 <__aeabi_d2f>
   d5ef6:	61e0      	str	r0, [r4, #28]
}
   d5ef8:	2001      	movs	r0, #1
   d5efa:	b007      	add	sp, #28
   d5efc:	bd30      	pop	{r4, r5, pc}

000d5efe <_ZN17Adafruit_GrayOLED9drawPixelEsst>:
    @note   Changes buffer contents only, no immediate effect on display.
            Follow up with a call to display(), or with other graphics
            commands as needed by one's own application.
*/
void Adafruit_GrayOLED::drawPixel(int16_t x, int16_t y, uint16_t color) {
  if ((x >= 0) && (x < width()) && (y >= 0) && (y < height())) {
   d5efe:	2900      	cmp	r1, #0
void Adafruit_GrayOLED::drawPixel(int16_t x, int16_t y, uint16_t color) {
   d5f00:	b5f0      	push	{r4, r5, r6, r7, lr}
  if ((x >= 0) && (x < width()) && (y >= 0) && (y < height())) {
   d5f02:	db66      	blt.n	d5fd2 <_ZN17Adafruit_GrayOLED9drawPixelEsst+0xd4>
   d5f04:	f9b0 400c 	ldrsh.w	r4, [r0, #12]
   d5f08:	428c      	cmp	r4, r1
   d5f0a:	dd62      	ble.n	d5fd2 <_ZN17Adafruit_GrayOLED9drawPixelEsst+0xd4>
   d5f0c:	2a00      	cmp	r2, #0
   d5f0e:	db60      	blt.n	d5fd2 <_ZN17Adafruit_GrayOLED9drawPixelEsst+0xd4>
   d5f10:	f9b0 400e 	ldrsh.w	r4, [r0, #14]
   d5f14:	4294      	cmp	r4, r2
   d5f16:	dd5c      	ble.n	d5fd2 <_ZN17Adafruit_GrayOLED9drawPixelEsst+0xd4>
    // Pixel is in-bounds. Rotate coordinates if needed.
    switch (getRotation()) {
   d5f18:	7e84      	ldrb	r4, [r0, #26]
   d5f1a:	2c02      	cmp	r4, #2
   d5f1c:	d05a      	beq.n	d5fd4 <_ZN17Adafruit_GrayOLED9drawPixelEsst+0xd6>
   d5f1e:	2c03      	cmp	r4, #3
   d5f20:	d061      	beq.n	d5fe6 <_ZN17Adafruit_GrayOLED9drawPixelEsst+0xe8>
   d5f22:	2c01      	cmp	r4, #1
   d5f24:	d104      	bne.n	d5f30 <_ZN17Adafruit_GrayOLED9drawPixelEsst+0x32>
    case 1:
      grayoled_swap(x, y);
      x = WIDTH - x - 1;
   d5f26:	8904      	ldrh	r4, [r0, #8]
   d5f28:	43d2      	mvns	r2, r2
   d5f2a:	4414      	add	r4, r2
      break;
   d5f2c:	460a      	mov	r2, r1
      x = WIDTH - x - 1;
   d5f2e:	b221      	sxth	r1, r4
      y = HEIGHT - y - 1;
      break;
    }

    // adjust dirty window
    window_x1 = min(window_x1, x);
   d5f30:	f9b0 4038 	ldrsh.w	r4, [r0, #56]	; 0x38
   d5f34:	428c      	cmp	r4, r1
   d5f36:	bfa8      	it	ge
   d5f38:	460c      	movge	r4, r1
   d5f3a:	8704      	strh	r4, [r0, #56]	; 0x38
    window_y1 = min(window_y1, y);
   d5f3c:	f9b0 403a 	ldrsh.w	r4, [r0, #58]	; 0x3a
   d5f40:	4294      	cmp	r4, r2
   d5f42:	bfa8      	it	ge
   d5f44:	4614      	movge	r4, r2
   d5f46:	8744      	strh	r4, [r0, #58]	; 0x3a
    window_x2 = max(window_x2, x);
   d5f48:	f9b0 403c 	ldrsh.w	r4, [r0, #60]	; 0x3c
   d5f4c:	428c      	cmp	r4, r1
   d5f4e:	bfb8      	it	lt
   d5f50:	460c      	movlt	r4, r1
   d5f52:	8784      	strh	r4, [r0, #60]	; 0x3c
    window_y2 = max(window_y2, y);
   d5f54:	f9b0 403e 	ldrsh.w	r4, [r0, #62]	; 0x3e
   d5f58:	4294      	cmp	r4, r2
   d5f5a:	bfb8      	it	lt
   d5f5c:	4614      	movlt	r4, r2
   d5f5e:	87c4      	strh	r4, [r0, #62]	; 0x3e

    if (_bpp == 1) {
   d5f60:	f890 404c 	ldrb.w	r4, [r0, #76]	; 0x4c
   d5f64:	2c01      	cmp	r4, #1
   d5f66:	d116      	bne.n	d5f96 <_ZN17Adafruit_GrayOLED9drawPixelEsst+0x98>
      switch (color) {
   d5f68:	2b01      	cmp	r3, #1
   d5f6a:	d042      	beq.n	d5ff2 <_ZN17Adafruit_GrayOLED9drawPixelEsst+0xf4>
   d5f6c:	2b02      	cmp	r3, #2
   d5f6e:	d051      	beq.n	d6014 <_ZN17Adafruit_GrayOLED9drawPixelEsst+0x116>
   d5f70:	b98b      	cbnz	r3, d5f96 <_ZN17Adafruit_GrayOLED9drawPixelEsst+0x98>
      case MONOOLED_WHITE:
        buffer[x + (y / 8) * WIDTH] |= (1 << (y & 7));
        break;
      case MONOOLED_BLACK:
        buffer[x + (y / 8) * WIDTH] &= ~(1 << (y & 7));
   d5f72:	2a00      	cmp	r2, #0
   d5f74:	8905      	ldrh	r5, [r0, #8]
   d5f76:	6b47      	ldr	r7, [r0, #52]	; 0x34
   d5f78:	4614      	mov	r4, r2
   d5f7a:	bfb8      	it	lt
   d5f7c:	1dd4      	addlt	r4, r2, #7
   d5f7e:	10e4      	asrs	r4, r4, #3
   d5f80:	fb14 1405 	smlabb	r4, r4, r5, r1
   d5f84:	f002 0607 	and.w	r6, r2, #7
   d5f88:	2501      	movs	r5, #1
   d5f8a:	fa05 f606 	lsl.w	r6, r5, r6
   d5f8e:	5d3d      	ldrb	r5, [r7, r4]
   d5f90:	ea25 0506 	bic.w	r5, r5, r6
   d5f94:	553d      	strb	r5, [r7, r4]
      case MONOOLED_INVERSE:
        buffer[x + (y / 8) * WIDTH] ^= (1 << (y & 7));
        break;
      }
    }
    if (_bpp == 4) {
   d5f96:	f890 404c 	ldrb.w	r4, [r0, #76]	; 0x4c
   d5f9a:	2c04      	cmp	r4, #4
   d5f9c:	d119      	bne.n	d5fd2 <_ZN17Adafruit_GrayOLED9drawPixelEsst+0xd4>
      uint8_t *pixelptr = &buffer[x / 2 + (y * WIDTH / 2)];
   d5f9e:	8904      	ldrh	r4, [r0, #8]
   d5fa0:	fb14 f202 	smulbb	r2, r4, r2
   d5fa4:	eb02 74d2 	add.w	r4, r2, r2, lsr #31
   d5fa8:	eb01 72d1 	add.w	r2, r1, r1, lsr #31
   d5fac:	f342 024f 	sbfx	r2, r2, #1, #16
   d5fb0:	eb02 0264 	add.w	r2, r2, r4, asr #1
   d5fb4:	6b44      	ldr	r4, [r0, #52]	; 0x34
      // Serial.printf("(%d, %d) -> offset %d\n", x, y, x/2 + (y * WIDTH / 2));
      if (x % 2 == 0) { // even, left nibble
   d5fb6:	5ca0      	ldrb	r0, [r4, r2]
   d5fb8:	07c9      	lsls	r1, r1, #31
        uint8_t t = pixelptr[0] & 0x0F;
        t |= (color & 0xF) << 4;
        pixelptr[0] = t;
      } else { // odd, right lower nibble
        uint8_t t = pixelptr[0] & 0xF0;
        t |= color & 0xF;
   d5fba:	bf4b      	itete	mi
   d5fbc:	f003 030f 	andmi.w	r3, r3, #15
        uint8_t t = pixelptr[0] & 0x0F;
   d5fc0:	f000 000f 	andpl.w	r0, r0, #15
        uint8_t t = pixelptr[0] & 0xF0;
   d5fc4:	f020 000f 	bicmi.w	r0, r0, #15
        t |= (color & 0xF) << 4;
   d5fc8:	ea40 1303 	orrpl.w	r3, r0, r3, lsl #4
        t |= color & 0xF;
   d5fcc:	bf48      	it	mi
   d5fce:	4303      	orrmi	r3, r0
        pixelptr[0] = t;
   d5fd0:	54a3      	strb	r3, [r4, r2]
      }
    }
  }
}
   d5fd2:	bdf0      	pop	{r4, r5, r6, r7, pc}
      x = WIDTH - x - 1;
   d5fd4:	8904      	ldrh	r4, [r0, #8]
   d5fd6:	43c9      	mvns	r1, r1
   d5fd8:	4421      	add	r1, r4
      y = HEIGHT - y - 1;
   d5fda:	8944      	ldrh	r4, [r0, #10]
   d5fdc:	43d2      	mvns	r2, r2
   d5fde:	4422      	add	r2, r4
      x = WIDTH - x - 1;
   d5fe0:	b209      	sxth	r1, r1
      y = HEIGHT - y - 1;
   d5fe2:	b212      	sxth	r2, r2
      break;
   d5fe4:	e7a4      	b.n	d5f30 <_ZN17Adafruit_GrayOLED9drawPixelEsst+0x32>
      y = HEIGHT - y - 1;
   d5fe6:	8944      	ldrh	r4, [r0, #10]
   d5fe8:	43c9      	mvns	r1, r1
   d5fea:	440c      	add	r4, r1
      break;
   d5fec:	4611      	mov	r1, r2
      y = HEIGHT - y - 1;
   d5fee:	b222      	sxth	r2, r4
      break;
   d5ff0:	e79e      	b.n	d5f30 <_ZN17Adafruit_GrayOLED9drawPixelEsst+0x32>
        buffer[x + (y / 8) * WIDTH] |= (1 << (y & 7));
   d5ff2:	2a00      	cmp	r2, #0
   d5ff4:	8905      	ldrh	r5, [r0, #8]
   d5ff6:	6b46      	ldr	r6, [r0, #52]	; 0x34
   d5ff8:	4614      	mov	r4, r2
   d5ffa:	bfb8      	it	lt
   d5ffc:	1dd4      	addlt	r4, r2, #7
   d5ffe:	10e4      	asrs	r4, r4, #3
   d6000:	fb14 1405 	smlabb	r4, r4, r5, r1
   d6004:	f002 0707 	and.w	r7, r2, #7
   d6008:	2501      	movs	r5, #1
   d600a:	40bd      	lsls	r5, r7
   d600c:	5d37      	ldrb	r7, [r6, r4]
   d600e:	433d      	orrs	r5, r7
        buffer[x + (y / 8) * WIDTH] ^= (1 << (y & 7));
   d6010:	5535      	strb	r5, [r6, r4]
        break;
   d6012:	e7c0      	b.n	d5f96 <_ZN17Adafruit_GrayOLED9drawPixelEsst+0x98>
        buffer[x + (y / 8) * WIDTH] ^= (1 << (y & 7));
   d6014:	2a00      	cmp	r2, #0
   d6016:	8905      	ldrh	r5, [r0, #8]
   d6018:	6b46      	ldr	r6, [r0, #52]	; 0x34
   d601a:	4614      	mov	r4, r2
   d601c:	bfb8      	it	lt
   d601e:	1dd4      	addlt	r4, r2, #7
   d6020:	10e4      	asrs	r4, r4, #3
   d6022:	fb14 1405 	smlabb	r4, r4, r5, r1
   d6026:	f002 0707 	and.w	r7, r2, #7
   d602a:	2501      	movs	r5, #1
   d602c:	40bd      	lsls	r5, r7
   d602e:	5d37      	ldrb	r7, [r6, r4]
   d6030:	407d      	eors	r5, r7
   d6032:	e7ed      	b.n	d6010 <_ZN17Adafruit_GrayOLED9drawPixelEsst+0x112>

000d6034 <_ZN17Adafruit_GrayOLEDC1EhttP7TwoWireamm>:
Adafruit_GrayOLED::Adafruit_GrayOLED(uint8_t bpp, uint16_t w, uint16_t h,
   d6034:	b538      	push	{r3, r4, r5, lr}
   d6036:	460d      	mov	r5, r1
   d6038:	4611      	mov	r1, r2
   d603a:	4604      	mov	r4, r0
      buffer(NULL), dcPin(-1), csPin(-1), rstPin(rst_pin), _bpp(bpp) {
   d603c:	b21a      	sxth	r2, r3
   d603e:	b209      	sxth	r1, r1
   d6040:	f000 fa96 	bl	d6570 <_ZN12Adafruit_GFXC1Ess>
   d6044:	9a06      	ldr	r2, [sp, #24]
   d6046:	4b0b      	ldr	r3, [pc, #44]	; (d6074 <_ZN17Adafruit_GrayOLEDC1EhttP7TwoWireamm+0x40>)
   d6048:	62e2      	str	r2, [r4, #44]	; 0x2c
   d604a:	9a07      	ldr	r2, [sp, #28]
   d604c:	6023      	str	r3, [r4, #0]
   d604e:	2300      	movs	r3, #0
   d6050:	e9c4 3309 	strd	r3, r3, [r4, #36]	; 0x24
   d6054:	e9c4 230c 	strd	r2, r3, [r4, #48]	; 0x30
   d6058:	f04f 33ff 	mov.w	r3, #4294967295
   d605c:	e9c4 3310 	strd	r3, r3, [r4, #64]	; 0x40
   d6060:	f99d 3014 	ldrsb.w	r3, [sp, #20]
   d6064:	64a3      	str	r3, [r4, #72]	; 0x48
  _theWire = twi;
   d6066:	9b04      	ldr	r3, [sp, #16]
      buffer(NULL), dcPin(-1), csPin(-1), rstPin(rst_pin), _bpp(bpp) {
   d6068:	f884 504c 	strb.w	r5, [r4, #76]	; 0x4c
  _theWire = twi;
   d606c:	6523      	str	r3, [r4, #80]	; 0x50
}
   d606e:	4620      	mov	r0, r4
   d6070:	bd38      	pop	{r3, r4, r5, pc}
   d6072:	bf00      	nop
   d6074:	000da85c 	.word	0x000da85c

000d6078 <_ZN17Adafruit_GrayOLEDD1Ev>:
Adafruit_GrayOLED::~Adafruit_GrayOLED(void) {
   d6078:	b538      	push	{r3, r4, r5, lr}
   d607a:	4b0c      	ldr	r3, [pc, #48]	; (d60ac <_ZN17Adafruit_GrayOLEDD1Ev+0x34>)
   d607c:	6003      	str	r3, [r0, #0]
   d607e:	4604      	mov	r4, r0
  if (buffer) {
   d6080:	6b40      	ldr	r0, [r0, #52]	; 0x34
   d6082:	b118      	cbz	r0, d608c <_ZN17Adafruit_GrayOLEDD1Ev+0x14>
    free(buffer);
   d6084:	f001 f868 	bl	d7158 <free>
    buffer = NULL;
   d6088:	2300      	movs	r3, #0
   d608a:	6363      	str	r3, [r4, #52]	; 0x34
  if (spi_dev)
   d608c:	6a65      	ldr	r5, [r4, #36]	; 0x24
   d608e:	b135      	cbz	r5, d609e <_ZN17Adafruit_GrayOLEDD1Ev+0x26>
    delete spi_dev;
   d6090:	4628      	mov	r0, r5
   d6092:	f7ff fa79 	bl	d5588 <_ZN18Adafruit_SPIDeviceD1Ev>
   d6096:	2138      	movs	r1, #56	; 0x38
   d6098:	4628      	mov	r0, r5
   d609a:	f001 ff6d 	bl	d7f78 <_ZdlPvj>
  if (i2c_dev)
   d609e:	6aa0      	ldr	r0, [r4, #40]	; 0x28
   d60a0:	b110      	cbz	r0, d60a8 <_ZN17Adafruit_GrayOLEDD1Ev+0x30>
    delete i2c_dev;
   d60a2:	2110      	movs	r1, #16
   d60a4:	f001 ff68 	bl	d7f78 <_ZdlPvj>
}
   d60a8:	4620      	mov	r0, r4
   d60aa:	bd38      	pop	{r3, r4, r5, pc}
   d60ac:	000da85c 	.word	0x000da85c

000d60b0 <_ZN17Adafruit_GrayOLED12oled_commandEh>:
void Adafruit_GrayOLED::oled_command(uint8_t c) {
   d60b0:	b530      	push	{r4, r5, lr}
   d60b2:	b087      	sub	sp, #28
  if (i2c_dev) {                // I2C
   d60b4:	6a85      	ldr	r5, [r0, #40]	; 0x28
void Adafruit_GrayOLED::oled_command(uint8_t c) {
   d60b6:	f88d 100f 	strb.w	r1, [sp, #15]
   d60ba:	4604      	mov	r4, r0
  if (i2c_dev) {                // I2C
   d60bc:	b17d      	cbz	r5, d60de <_ZN17Adafruit_GrayOLED12oled_commandEh+0x2e>
    uint8_t buf[2] = {0x00, c}; // Co = 0, D/C = 0
   d60be:	2300      	movs	r3, #0
   d60c0:	b2ca      	uxtb	r2, r1
    i2c_dev->write(buf, 2);
   d60c2:	e9cd 3300 	strd	r3, r3, [sp]
    uint8_t buf[2] = {0x00, c}; // Co = 0, D/C = 0
   d60c6:	f88d 3014 	strb.w	r3, [sp, #20]
   d60ca:	f88d 2015 	strb.w	r2, [sp, #21]
    i2c_dev->write(buf, 2);
   d60ce:	2301      	movs	r3, #1
   d60d0:	2202      	movs	r2, #2
   d60d2:	a905      	add	r1, sp, #20
   d60d4:	4628      	mov	r0, r5
   d60d6:	f7ff fbaf 	bl	d5838 <_ZN18Adafruit_I2CDevice5writeEPKhjbS1_j>
}
   d60da:	b007      	add	sp, #28
   d60dc:	bd30      	pop	{r4, r5, pc}
    digitalWrite(dcPin, LOW);
   d60de:	4629      	mov	r1, r5
   d60e0:	f8b0 0040 	ldrh.w	r0, [r0, #64]	; 0x40
   d60e4:	f001 fedf 	bl	d7ea6 <digitalWrite>
    spi_dev->write(&c, 1);
   d60e8:	6a60      	ldr	r0, [r4, #36]	; 0x24
   d60ea:	9500      	str	r5, [sp, #0]
   d60ec:	462b      	mov	r3, r5
   d60ee:	2201      	movs	r2, #1
   d60f0:	f10d 010f 	add.w	r1, sp, #15
   d60f4:	f7ff fb43 	bl	d577e <_ZN18Adafruit_SPIDevice5writeEPhjS0_j>
}
   d60f8:	e7ef      	b.n	d60da <_ZN17Adafruit_GrayOLED12oled_commandEh+0x2a>

000d60fa <_ZN17Adafruit_GrayOLED13invertDisplayEb>:
            different pixel mode of the display hardware is used. When
            enabled, drawing MONOOLED_BLACK (value 0) pixels will actually draw
   white, MONOOLED_WHITE (value 1) will draw black.
*/
void Adafruit_GrayOLED::invertDisplay(bool i) {
  oled_command(i ? GRAYOLED_INVERTDISPLAY : GRAYOLED_NORMALDISPLAY);
   d60fa:	2900      	cmp	r1, #0
   d60fc:	bf14      	ite	ne
   d60fe:	21a7      	movne	r1, #167	; 0xa7
   d6100:	21a6      	moveq	r1, #166	; 0xa6
   d6102:	f7ff bfd5 	b.w	d60b0 <_ZN17Adafruit_GrayOLED12oled_commandEh>

000d6106 <_ZN17Adafruit_GrayOLED16oled_commandListEPKhh>:
bool Adafruit_GrayOLED::oled_commandList(const uint8_t *c, uint8_t n) {
   d6106:	b5f0      	push	{r4, r5, r6, r7, lr}
  if (i2c_dev) {            // I2C
   d6108:	6a85      	ldr	r5, [r0, #40]	; 0x28
bool Adafruit_GrayOLED::oled_commandList(const uint8_t *c, uint8_t n) {
   d610a:	b085      	sub	sp, #20
   d610c:	4604      	mov	r4, r0
   d610e:	460e      	mov	r6, r1
   d6110:	4617      	mov	r7, r2
  if (i2c_dev) {            // I2C
   d6112:	b165      	cbz	r5, d612e <_ZN17Adafruit_GrayOLED16oled_commandListEPKhh+0x28>
    uint8_t dc_byte = 0x00; // Co = 0, D/C = 0
   d6114:	2300      	movs	r3, #0
    if (!i2c_dev->write((uint8_t *)c, n, true, &dc_byte, 1)) {
   d6116:	f10d 000f 	add.w	r0, sp, #15
    uint8_t dc_byte = 0x00; // Co = 0, D/C = 0
   d611a:	f88d 300f 	strb.w	r3, [sp, #15]
    if (!i2c_dev->write((uint8_t *)c, n, true, &dc_byte, 1)) {
   d611e:	2301      	movs	r3, #1
   d6120:	9000      	str	r0, [sp, #0]
   d6122:	9301      	str	r3, [sp, #4]
   d6124:	4628      	mov	r0, r5
   d6126:	f7ff fb87 	bl	d5838 <_ZN18Adafruit_I2CDevice5writeEPKhjbS1_j>
}
   d612a:	b005      	add	sp, #20
   d612c:	bdf0      	pop	{r4, r5, r6, r7, pc}
    digitalWrite(dcPin, LOW);
   d612e:	4629      	mov	r1, r5
   d6130:	f8b0 0040 	ldrh.w	r0, [r0, #64]	; 0x40
   d6134:	f001 feb7 	bl	d7ea6 <digitalWrite>
    if (!spi_dev->write((uint8_t *)c, n)) {
   d6138:	6a60      	ldr	r0, [r4, #36]	; 0x24
   d613a:	9500      	str	r5, [sp, #0]
   d613c:	462b      	mov	r3, r5
   d613e:	463a      	mov	r2, r7
   d6140:	4631      	mov	r1, r6
   d6142:	f7ff fb1c 	bl	d577e <_ZN18Adafruit_SPIDevice5writeEPhjS0_j>
   d6146:	e7f0      	b.n	d612a <_ZN17Adafruit_GrayOLED16oled_commandListEPKhh+0x24>

000d6148 <_ZN17Adafruit_GrayOLED12clearDisplayEv>:
void Adafruit_GrayOLED::clearDisplay(void) {
   d6148:	b510      	push	{r4, lr}
  memset(buffer, 0, _bpp * WIDTH * ((HEIGHT + 7) / 8));
   d614a:	f9b0 100a 	ldrsh.w	r1, [r0, #10]
   d614e:	8903      	ldrh	r3, [r0, #8]
   d6150:	f890 204c 	ldrb.w	r2, [r0, #76]	; 0x4c
   d6154:	fb12 f203 	smulbb	r2, r2, r3
   d6158:	1dcb      	adds	r3, r1, #7
   d615a:	bf48      	it	mi
   d615c:	f101 030e 	addmi.w	r3, r1, #14
   d6160:	10db      	asrs	r3, r3, #3
void Adafruit_GrayOLED::clearDisplay(void) {
   d6162:	4604      	mov	r4, r0
  memset(buffer, 0, _bpp * WIDTH * ((HEIGHT + 7) / 8));
   d6164:	435a      	muls	r2, r3
   d6166:	6b40      	ldr	r0, [r0, #52]	; 0x34
   d6168:	2100      	movs	r1, #0
   d616a:	f004 f881 	bl	da270 <memset>
  window_x1 = 0;
   d616e:	2300      	movs	r3, #0
   d6170:	63a3      	str	r3, [r4, #56]	; 0x38
  window_x2 = WIDTH - 1;
   d6172:	8923      	ldrh	r3, [r4, #8]
   d6174:	3b01      	subs	r3, #1
   d6176:	87a3      	strh	r3, [r4, #60]	; 0x3c
  window_y2 = HEIGHT - 1;
   d6178:	8963      	ldrh	r3, [r4, #10]
   d617a:	3b01      	subs	r3, #1
   d617c:	87e3      	strh	r3, [r4, #62]	; 0x3e
}
   d617e:	bd10      	pop	{r4, pc}

000d6180 <_ZN17Adafruit_GrayOLED5_initEhb>:
bool Adafruit_GrayOLED::_init(uint8_t addr, bool reset) {
   d6180:	b570      	push	{r4, r5, r6, lr}
  if ((!buffer) &&
   d6182:	6b43      	ldr	r3, [r0, #52]	; 0x34
bool Adafruit_GrayOLED::_init(uint8_t addr, bool reset) {
   d6184:	4604      	mov	r4, r0
   d6186:	460e      	mov	r6, r1
   d6188:	4615      	mov	r5, r2
  if ((!buffer) &&
   d618a:	b30b      	cbz	r3, d61d0 <_ZN17Adafruit_GrayOLED5_initEhb+0x50>
  if (reset && (rstPin >= 0)) {
   d618c:	2d00      	cmp	r5, #0
   d618e:	d133      	bne.n	d61f8 <_ZN17Adafruit_GrayOLED5_initEhb+0x78>
  if (_theWire) { // using I2C
   d6190:	6d23      	ldr	r3, [r4, #80]	; 0x50
   d6192:	2b00      	cmp	r3, #0
   d6194:	d050      	beq.n	d6238 <_ZN17Adafruit_GrayOLED5_initEhb+0xb8>
    i2c_dev = new Adafruit_I2CDevice(addr, _theWire);
   d6196:	2010      	movs	r0, #16
   d6198:	f7fd ff7d 	bl	d4096 <_Znwj>
   d619c:	4605      	mov	r5, r0
   d619e:	b118      	cbz	r0, d61a8 <_ZN17Adafruit_GrayOLED5_initEhb+0x28>
   d61a0:	6d22      	ldr	r2, [r4, #80]	; 0x50
   d61a2:	4631      	mov	r1, r6
   d61a4:	f7ff fb1d 	bl	d57e2 <_ZN18Adafruit_I2CDeviceC1EhP7TwoWire>
   d61a8:	62a5      	str	r5, [r4, #40]	; 0x28
    if (!i2c_dev || !i2c_dev->begin()) {
   d61aa:	b31d      	cbz	r5, d61f4 <_ZN17Adafruit_GrayOLED5_initEhb+0x74>
   d61ac:	2101      	movs	r1, #1
   d61ae:	4628      	mov	r0, r5
   d61b0:	f7ff fb33 	bl	d581a <_ZN18Adafruit_I2CDevice5beginEb>
   d61b4:	b1f0      	cbz	r0, d61f4 <_ZN17Adafruit_GrayOLED5_initEhb+0x74>
  clearDisplay();
   d61b6:	4620      	mov	r0, r4
   d61b8:	f7ff ffc6 	bl	d6148 <_ZN17Adafruit_GrayOLED12clearDisplayEv>
  window_x1 = 0;
   d61bc:	2300      	movs	r3, #0
   d61be:	63a3      	str	r3, [r4, #56]	; 0x38
  window_x2 = WIDTH - 1;
   d61c0:	8923      	ldrh	r3, [r4, #8]
   d61c2:	3b01      	subs	r3, #1
   d61c4:	87a3      	strh	r3, [r4, #60]	; 0x3c
  window_y2 = HEIGHT - 1;
   d61c6:	8963      	ldrh	r3, [r4, #10]
   d61c8:	3b01      	subs	r3, #1
   d61ca:	87e3      	strh	r3, [r4, #62]	; 0x3e
  return true; // Success
   d61cc:	2001      	movs	r0, #1
   d61ce:	e012      	b.n	d61f6 <_ZN17Adafruit_GrayOLED5_initEhb+0x76>
      !(buffer = (uint8_t *)malloc(_bpp * WIDTH * ((HEIGHT + 7) / 8)))) {
   d61d0:	8923      	ldrh	r3, [r4, #8]
   d61d2:	f9b4 200a 	ldrsh.w	r2, [r4, #10]
   d61d6:	f890 004c 	ldrb.w	r0, [r0, #76]	; 0x4c
   d61da:	fb10 f003 	smulbb	r0, r0, r3
   d61de:	1dd3      	adds	r3, r2, #7
   d61e0:	bf48      	it	mi
   d61e2:	f102 030e 	addmi.w	r3, r2, #14
   d61e6:	10db      	asrs	r3, r3, #3
   d61e8:	4358      	muls	r0, r3
   d61ea:	f000 ffad 	bl	d7148 <malloc>
   d61ee:	6360      	str	r0, [r4, #52]	; 0x34
  if ((!buffer) &&
   d61f0:	2800      	cmp	r0, #0
   d61f2:	d1cb      	bne.n	d618c <_ZN17Adafruit_GrayOLED5_initEhb+0xc>
    return false;
   d61f4:	2000      	movs	r0, #0
}
   d61f6:	bd70      	pop	{r4, r5, r6, pc}
  if (reset && (rstPin >= 0)) {
   d61f8:	6ca0      	ldr	r0, [r4, #72]	; 0x48
   d61fa:	2800      	cmp	r0, #0
   d61fc:	dbc8      	blt.n	d6190 <_ZN17Adafruit_GrayOLED5_initEhb+0x10>
    pinMode(rstPin, OUTPUT);
   d61fe:	2101      	movs	r1, #1
   d6200:	b280      	uxth	r0, r0
   d6202:	f001 fe3f 	bl	d7e84 <pinMode>
    digitalWrite(rstPin, HIGH);
   d6206:	f8b4 0048 	ldrh.w	r0, [r4, #72]	; 0x48
   d620a:	2101      	movs	r1, #1
   d620c:	f001 fe4b 	bl	d7ea6 <digitalWrite>
    delay(10);                  // VDD goes high at start, pause
   d6210:	200a      	movs	r0, #10
   d6212:	f001 fa63 	bl	d76dc <delay>
    digitalWrite(rstPin, LOW);  // Bring reset low
   d6216:	f8b4 0048 	ldrh.w	r0, [r4, #72]	; 0x48
   d621a:	2100      	movs	r1, #0
   d621c:	f001 fe43 	bl	d7ea6 <digitalWrite>
    delay(10);                  // Wait 10 ms
   d6220:	200a      	movs	r0, #10
   d6222:	f001 fa5b 	bl	d76dc <delay>
    digitalWrite(rstPin, HIGH); // Bring out of reset
   d6226:	f8b4 0048 	ldrh.w	r0, [r4, #72]	; 0x48
   d622a:	2101      	movs	r1, #1
   d622c:	f001 fe3b 	bl	d7ea6 <digitalWrite>
    delay(10);
   d6230:	200a      	movs	r0, #10
   d6232:	f001 fa53 	bl	d76dc <delay>
   d6236:	e7ab      	b.n	d6190 <_ZN17Adafruit_GrayOLED5_initEhb+0x10>
    if (!spi_dev || !spi_dev->begin()) {
   d6238:	6a60      	ldr	r0, [r4, #36]	; 0x24
   d623a:	2800      	cmp	r0, #0
   d623c:	d0da      	beq.n	d61f4 <_ZN17Adafruit_GrayOLED5_initEhb+0x74>
   d623e:	f7ff f9ac 	bl	d559a <_ZN18Adafruit_SPIDevice5beginEv>
   d6242:	2800      	cmp	r0, #0
   d6244:	d0d6      	beq.n	d61f4 <_ZN17Adafruit_GrayOLED5_initEhb+0x74>
    pinMode(dcPin, OUTPUT); // Set data/command pin as output
   d6246:	f8b4 0040 	ldrh.w	r0, [r4, #64]	; 0x40
   d624a:	2101      	movs	r1, #1
   d624c:	f001 fe1a 	bl	d7e84 <pinMode>
   d6250:	e7b1      	b.n	d61b6 <_ZN17Adafruit_GrayOLED5_initEhb+0x36>

000d6252 <_ZN17Adafruit_GrayOLED11setContrastEh>:
    @brief  Adjust the display contrast.
    @param  level The contrast level from 0 to 0x7F
    @note   This has an immediate effect on the display, no need to call the
            display() function -- buffer contents are not changed.
*/
void Adafruit_GrayOLED::setContrast(uint8_t level) {
   d6252:	b507      	push	{r0, r1, r2, lr}
  uint8_t cmd[] = {GRAYOLED_SETCONTRAST, level};
   d6254:	2381      	movs	r3, #129	; 0x81
   d6256:	f88d 1005 	strb.w	r1, [sp, #5]
  oled_commandList(cmd, 2);
   d625a:	2202      	movs	r2, #2
   d625c:	a901      	add	r1, sp, #4
  uint8_t cmd[] = {GRAYOLED_SETCONTRAST, level};
   d625e:	f88d 3004 	strb.w	r3, [sp, #4]
  oled_commandList(cmd, 2);
   d6262:	f7ff ff50 	bl	d6106 <_ZN17Adafruit_GrayOLED16oled_commandListEPKhh>
}
   d6266:	b003      	add	sp, #12
   d6268:	f85d fb04 	ldr.w	pc, [sp], #4

000d626c <_ZN12Adafruit_GFX9writeLineEsssst>:
    @param    y1  End point y coordinate
    @param    color 16-bit 5-6-5 Color to draw with
*/
/**************************************************************************/
void Adafruit_GFX::writeLine(int16_t x0, int16_t y0, int16_t x1, int16_t y1,
                             uint16_t color) {
   d626c:	e92d 4ff0 	stmdb	sp!, {r4, r5, r6, r7, r8, r9, sl, fp, lr}
   d6270:	b085      	sub	sp, #20
   d6272:	461f      	mov	r7, r3
   d6274:	f9bd 8038 	ldrsh.w	r8, [sp, #56]	; 0x38
   d6278:	f8bd 303c 	ldrh.w	r3, [sp, #60]	; 0x3c
#if defined(ESP8266)
  yield();
#endif
  int16_t steep = abs(y1 - y0) > abs(x1 - x0);
   d627c:	eba8 0902 	sub.w	r9, r8, r2
   d6280:	eba7 0a01 	sub.w	sl, r7, r1
   d6284:	f1b9 0f00 	cmp.w	r9, #0
   d6288:	bfb8      	it	lt
   d628a:	f1c9 0900 	rsblt	r9, r9, #0
   d628e:	f1ba 0f00 	cmp.w	sl, #0
   d6292:	bfb8      	it	lt
   d6294:	f1ca 0a00 	rsblt	sl, sl, #0
  if (steep) {
   d6298:	45d1      	cmp	r9, sl
                             uint16_t color) {
   d629a:	4683      	mov	fp, r0
   d629c:	460c      	mov	r4, r1
   d629e:	4615      	mov	r5, r2
  if (steep) {
   d62a0:	dd04      	ble.n	d62ac <_ZN12Adafruit_GFX9writeLineEsssst+0x40>
   d62a2:	463a      	mov	r2, r7
    _swap_int16_t(x0, y0);
   d62a4:	462c      	mov	r4, r5
    _swap_int16_t(x1, y1);
   d62a6:	4647      	mov	r7, r8
    _swap_int16_t(x0, y0);
   d62a8:	460d      	mov	r5, r1
    _swap_int16_t(x1, y1);
   d62aa:	4690      	mov	r8, r2
  }

  if (x0 > x1) {
   d62ac:	42bc      	cmp	r4, r7
   d62ae:	dd05      	ble.n	d62bc <_ZN12Adafruit_GFX9writeLineEsssst+0x50>
   d62b0:	462a      	mov	r2, r5
    _swap_int16_t(x0, x1);
    _swap_int16_t(y0, y1);
   d62b2:	4645      	mov	r5, r8
   d62b4:	4690      	mov	r8, r2
  if (x0 > x1) {
   d62b6:	4622      	mov	r2, r4
   d62b8:	463c      	mov	r4, r7
   d62ba:	4617      	mov	r7, r2
  }

  int16_t dx, dy;
  dx = x1 - x0;
   d62bc:	1b3e      	subs	r6, r7, r4
   d62be:	b2b2      	uxth	r2, r6
   d62c0:	9200      	str	r2, [sp, #0]
  dy = abs(y1 - y0);
   d62c2:	eba8 0205 	sub.w	r2, r8, r5
   d62c6:	2a00      	cmp	r2, #0
   d62c8:	bfb8      	it	lt
   d62ca:	4252      	neglt	r2, r2
   d62cc:	9201      	str	r2, [sp, #4]

  int16_t err = dx / 2;
   d62ce:	f3c6 32c0 	ubfx	r2, r6, #15, #1
   d62d2:	fa02 f686 	sxtah	r6, r2, r6
  int16_t ystep;

  if (y0 < y1) {
    ystep = 1;
  } else {
    ystep = -1;
   d62d6:	4545      	cmp	r5, r8
   d62d8:	bfb4      	ite	lt
   d62da:	2201      	movlt	r2, #1
   d62dc:	f04f 32ff 	movge.w	r2, #4294967295
  int16_t err = dx / 2;
   d62e0:	1076      	asrs	r6, r6, #1
    ystep = -1;
   d62e2:	9202      	str	r2, [sp, #8]
  }

  for (; x0 <= x1; x0++) {
   d62e4:	42bc      	cmp	r4, r7
   d62e6:	dc1c      	bgt.n	d6322 <_ZN12Adafruit_GFX9writeLineEsssst+0xb6>
    if (steep) {
   d62e8:	f8db 2000 	ldr.w	r2, [fp]
      writePixel(y0, x0, color);
   d62ec:	9303      	str	r3, [sp, #12]
    if (steep) {
   d62ee:	45d1      	cmp	r9, sl
      writePixel(y0, x0, color);
   d62f0:	f8d2 8018 	ldr.w	r8, [r2, #24]
   d62f4:	bfc7      	ittee	gt
   d62f6:	4629      	movgt	r1, r5
   d62f8:	4622      	movgt	r2, r4
    } else {
      writePixel(x0, y0, color);
   d62fa:	462a      	movle	r2, r5
   d62fc:	4621      	movle	r1, r4
   d62fe:	4658      	mov	r0, fp
   d6300:	47c0      	blx	r8
    }
    err -= dy;
   d6302:	9a01      	ldr	r2, [sp, #4]
      writePixel(x0, y0, color);
   d6304:	9b03      	ldr	r3, [sp, #12]
    err -= dy;
   d6306:	1ab6      	subs	r6, r6, r2
   d6308:	b2b1      	uxth	r1, r6
   d630a:	b236      	sxth	r6, r6
    if (err < 0) {
   d630c:	2e00      	cmp	r6, #0
   d630e:	da05      	bge.n	d631c <_ZN12Adafruit_GFX9writeLineEsssst+0xb0>
      y0 += ystep;
   d6310:	9a02      	ldr	r2, [sp, #8]
   d6312:	4415      	add	r5, r2
      err += dx;
   d6314:	9a00      	ldr	r2, [sp, #0]
   d6316:	1856      	adds	r6, r2, r1
      y0 += ystep;
   d6318:	b22d      	sxth	r5, r5
      err += dx;
   d631a:	b236      	sxth	r6, r6
  for (; x0 <= x1; x0++) {
   d631c:	3401      	adds	r4, #1
   d631e:	b224      	sxth	r4, r4
   d6320:	e7e0      	b.n	d62e4 <_ZN12Adafruit_GFX9writeLineEsssst+0x78>
    }
  }
}
   d6322:	b005      	add	sp, #20
   d6324:	e8bd 8ff0 	ldmia.w	sp!, {r4, r5, r6, r7, r8, r9, sl, fp, pc}

000d6328 <_ZN12Adafruit_GFX10startWriteEv>:
/**************************************************************************/
/*!
   @brief    Start a display-writing routine, overwrite in subclasses.
*/
/**************************************************************************/
void Adafruit_GFX::startWrite() {}
   d6328:	4770      	bx	lr

000d632a <_ZN12Adafruit_GFX10writePixelEsst>:
    @param   x   x coordinate
    @param   y   y coordinate
   @param    color 16-bit 5-6-5 Color to fill with
*/
/**************************************************************************/
void Adafruit_GFX::writePixel(int16_t x, int16_t y, uint16_t color) {
   d632a:	b410      	push	{r4}
  drawPixel(x, y, color);
   d632c:	6804      	ldr	r4, [r0, #0]
   d632e:	6924      	ldr	r4, [r4, #16]
   d6330:	46a4      	mov	ip, r4
}
   d6332:	f85d 4b04 	ldr.w	r4, [sp], #4
  drawPixel(x, y, color);
   d6336:	4760      	bx	ip

000d6338 <_ZN12Adafruit_GFX14writeFastVLineEssst>:
    @param    h   Height in pixels
   @param    color 16-bit 5-6-5 Color to fill with
*/
/**************************************************************************/
void Adafruit_GFX::writeFastVLine(int16_t x, int16_t y, int16_t h,
                                  uint16_t color) {
   d6338:	b430      	push	{r4, r5}
  // Overwrite in subclasses if startWrite is defined!
  // Can be just writeLine(x, y, x, y+h-1, color);
  // or writeFillRect(x, y, 1, h, color);
  drawFastVLine(x, y, h, color);
   d633a:	6804      	ldr	r4, [r0, #0]
                                  uint16_t color) {
   d633c:	f8bd 5008 	ldrh.w	r5, [sp, #8]
  drawFastVLine(x, y, h, color);
   d6340:	9502      	str	r5, [sp, #8]
   d6342:	6ba4      	ldr	r4, [r4, #56]	; 0x38
   d6344:	46a4      	mov	ip, r4
}
   d6346:	bc30      	pop	{r4, r5}
  drawFastVLine(x, y, h, color);
   d6348:	4760      	bx	ip

000d634a <_ZN12Adafruit_GFX14writeFastHLineEssst>:
    @param    w   Width in pixels
   @param    color 16-bit 5-6-5 Color to fill with
*/
/**************************************************************************/
void Adafruit_GFX::writeFastHLine(int16_t x, int16_t y, int16_t w,
                                  uint16_t color) {
   d634a:	b430      	push	{r4, r5}
  // Overwrite in subclasses if startWrite is defined!
  // Example: writeLine(x, y, x+w-1, y, color);
  // or writeFillRect(x, y, w, 1, color);
  drawFastHLine(x, y, w, color);
   d634c:	6804      	ldr	r4, [r0, #0]
                                  uint16_t color) {
   d634e:	f8bd 5008 	ldrh.w	r5, [sp, #8]
  drawFastHLine(x, y, w, color);
   d6352:	9502      	str	r5, [sp, #8]
   d6354:	6be4      	ldr	r4, [r4, #60]	; 0x3c
   d6356:	46a4      	mov	ip, r4
}
   d6358:	bc30      	pop	{r4, r5}
  drawFastHLine(x, y, w, color);
   d635a:	4760      	bx	ip

000d635c <_ZN12Adafruit_GFX13writeFillRectEsssst>:
    @param    h   Height in pixels
   @param    color 16-bit 5-6-5 Color to fill with
*/
/**************************************************************************/
void Adafruit_GFX::writeFillRect(int16_t x, int16_t y, int16_t w, int16_t h,
                                 uint16_t color) {
   d635c:	b470      	push	{r4, r5, r6}
   d635e:	f9bd 500c 	ldrsh.w	r5, [sp, #12]
   d6362:	f8bd 6010 	ldrh.w	r6, [sp, #16]
  // Overwrite in subclasses if desired!
  fillRect(x, y, w, h, color);
   d6366:	6804      	ldr	r4, [r0, #0]
   d6368:	e9cd 5603 	strd	r5, r6, [sp, #12]
   d636c:	6c24      	ldr	r4, [r4, #64]	; 0x40
   d636e:	46a4      	mov	ip, r4
}
   d6370:	bc70      	pop	{r4, r5, r6}
  fillRect(x, y, w, h, color);
   d6372:	4760      	bx	ip

000d6374 <_ZN12Adafruit_GFX13drawFastVLineEssst>:
    @param    h   Height in pixels
   @param    color 16-bit 5-6-5 Color to fill with
*/
/**************************************************************************/
void Adafruit_GFX::drawFastVLine(int16_t x, int16_t y, int16_t h,
                                 uint16_t color) {
   d6374:	e92d 41f3 	stmdb	sp!, {r0, r1, r4, r5, r6, r7, r8, lr}
   d6378:	461c      	mov	r4, r3
  startWrite();
   d637a:	6803      	ldr	r3, [r0, #0]
                                 uint16_t color) {
   d637c:	f8bd 8020 	ldrh.w	r8, [sp, #32]
  startWrite();
   d6380:	695b      	ldr	r3, [r3, #20]
                                 uint16_t color) {
   d6382:	4605      	mov	r5, r0
   d6384:	4616      	mov	r6, r2
  writeLine(x, y, x, y + h - 1, color);
   d6386:	3c01      	subs	r4, #1
   d6388:	4434      	add	r4, r6
                                 uint16_t color) {
   d638a:	460f      	mov	r7, r1
  writeLine(x, y, x, y + h - 1, color);
   d638c:	b224      	sxth	r4, r4
  startWrite();
   d638e:	4798      	blx	r3
  writeLine(x, y, x, y + h - 1, color);
   d6390:	682b      	ldr	r3, [r5, #0]
   d6392:	f8cd 8004 	str.w	r8, [sp, #4]
   d6396:	9400      	str	r4, [sp, #0]
   d6398:	6a9c      	ldr	r4, [r3, #40]	; 0x28
   d639a:	4628      	mov	r0, r5
   d639c:	463b      	mov	r3, r7
   d639e:	4632      	mov	r2, r6
   d63a0:	4639      	mov	r1, r7
   d63a2:	47a0      	blx	r4
  endWrite();
   d63a4:	682b      	ldr	r3, [r5, #0]
   d63a6:	6adb      	ldr	r3, [r3, #44]	; 0x2c
   d63a8:	4628      	mov	r0, r5
}
   d63aa:	b002      	add	sp, #8
   d63ac:	e8bd 41f0 	ldmia.w	sp!, {r4, r5, r6, r7, r8, lr}
  endWrite();
   d63b0:	4718      	bx	r3

000d63b2 <_ZN12Adafruit_GFX13drawFastHLineEssst>:
    @param    w   Width in pixels
   @param    color 16-bit 5-6-5 Color to fill with
*/
/**************************************************************************/
void Adafruit_GFX::drawFastHLine(int16_t x, int16_t y, int16_t w,
                                 uint16_t color) {
   d63b2:	e92d 41f3 	stmdb	sp!, {r0, r1, r4, r5, r6, r7, r8, lr}
   d63b6:	461d      	mov	r5, r3
  startWrite();
   d63b8:	6803      	ldr	r3, [r0, #0]
                                 uint16_t color) {
   d63ba:	f8bd 8020 	ldrh.w	r8, [sp, #32]
  startWrite();
   d63be:	695b      	ldr	r3, [r3, #20]
                                 uint16_t color) {
   d63c0:	4604      	mov	r4, r0
   d63c2:	4617      	mov	r7, r2
   d63c4:	460e      	mov	r6, r1
  startWrite();
   d63c6:	4798      	blx	r3
  writeLine(x, y, x + w - 1, y, color);
   d63c8:	e9cd 7800 	strd	r7, r8, [sp]
   d63cc:	6822      	ldr	r2, [r4, #0]
   d63ce:	1e6b      	subs	r3, r5, #1
   d63d0:	4433      	add	r3, r6
   d63d2:	6a95      	ldr	r5, [r2, #40]	; 0x28
   d63d4:	4620      	mov	r0, r4
   d63d6:	b21b      	sxth	r3, r3
   d63d8:	463a      	mov	r2, r7
   d63da:	4631      	mov	r1, r6
   d63dc:	47a8      	blx	r5
  endWrite();
   d63de:	6823      	ldr	r3, [r4, #0]
   d63e0:	6adb      	ldr	r3, [r3, #44]	; 0x2c
   d63e2:	4620      	mov	r0, r4
}
   d63e4:	b002      	add	sp, #8
   d63e6:	e8bd 41f0 	ldmia.w	sp!, {r4, r5, r6, r7, r8, lr}
  endWrite();
   d63ea:	4718      	bx	r3

000d63ec <_ZN12Adafruit_GFX8fillRectEsssst>:
    @param    h   Height in pixels
   @param    color 16-bit 5-6-5 Color to fill with
*/
/**************************************************************************/
void Adafruit_GFX::fillRect(int16_t x, int16_t y, int16_t w, int16_t h,
                            uint16_t color) {
   d63ec:	e92d 47f3 	stmdb	sp!, {r0, r1, r4, r5, r6, r7, r8, r9, sl, lr}
   d63f0:	461e      	mov	r6, r3
  startWrite();
   d63f2:	6803      	ldr	r3, [r0, #0]
                            uint16_t color) {
   d63f4:	f9bd 9028 	ldrsh.w	r9, [sp, #40]	; 0x28
  startWrite();
   d63f8:	695b      	ldr	r3, [r3, #20]
                            uint16_t color) {
   d63fa:	f8bd 802c 	ldrh.w	r8, [sp, #44]	; 0x2c
   d63fe:	460c      	mov	r4, r1
   d6400:	4605      	mov	r5, r0
   d6402:	4617      	mov	r7, r2
  startWrite();
   d6404:	4798      	blx	r3
  for (int16_t i = x; i < x + w; i++) {
   d6406:	4426      	add	r6, r4
   d6408:	42b4      	cmp	r4, r6
   d640a:	682b      	ldr	r3, [r5, #0]
   d640c:	da0b      	bge.n	d6426 <_ZN12Adafruit_GFX8fillRectEsssst+0x3a>
    writeFastVLine(i, y, h, color);
   d640e:	f8cd 8000 	str.w	r8, [sp]
   d6412:	f8d3 a020 	ldr.w	sl, [r3, #32]
   d6416:	4621      	mov	r1, r4
   d6418:	464b      	mov	r3, r9
   d641a:	463a      	mov	r2, r7
   d641c:	4628      	mov	r0, r5
   d641e:	3401      	adds	r4, #1
   d6420:	47d0      	blx	sl
  for (int16_t i = x; i < x + w; i++) {
   d6422:	b224      	sxth	r4, r4
   d6424:	e7f0      	b.n	d6408 <_ZN12Adafruit_GFX8fillRectEsssst+0x1c>
  }
  endWrite();
   d6426:	6adb      	ldr	r3, [r3, #44]	; 0x2c
   d6428:	4628      	mov	r0, r5
}
   d642a:	b002      	add	sp, #8
   d642c:	e8bd 47f0 	ldmia.w	sp!, {r4, r5, r6, r7, r8, r9, sl, lr}
  endWrite();
   d6430:	4718      	bx	r3

000d6432 <_ZN12Adafruit_GFX10fillScreenEt>:
   @brief    Fill the screen completely with one color. Update in subclasses if
   desired!
    @param    color 16-bit 5-6-5 Color to fill with
*/
/**************************************************************************/
void Adafruit_GFX::fillScreen(uint16_t color) {
   d6432:	b513      	push	{r0, r1, r4, lr}
  fillRect(0, 0, _width, _height, color);
   d6434:	6802      	ldr	r2, [r0, #0]
   d6436:	9101      	str	r1, [sp, #4]
   d6438:	f9b0 100e 	ldrsh.w	r1, [r0, #14]
   d643c:	9100      	str	r1, [sp, #0]
   d643e:	6c14      	ldr	r4, [r2, #64]	; 0x40
   d6440:	f9b0 300c 	ldrsh.w	r3, [r0, #12]
   d6444:	2200      	movs	r2, #0
   d6446:	4611      	mov	r1, r2
   d6448:	47a0      	blx	r4
}
   d644a:	b002      	add	sp, #8
   d644c:	bd10      	pop	{r4, pc}

000d644e <_ZN12Adafruit_GFX8drawRectEsssst>:
    @param    h   Height in pixels
    @param    color 16-bit 5-6-5 Color to draw with
*/
/**************************************************************************/
void Adafruit_GFX::drawRect(int16_t x, int16_t y, int16_t w, int16_t h,
                            uint16_t color) {
   d644e:	e92d 47f3 	stmdb	sp!, {r0, r1, r4, r5, r6, r7, r8, r9, sl, lr}
   d6452:	461d      	mov	r5, r3
  startWrite();
   d6454:	6803      	ldr	r3, [r0, #0]
                            uint16_t color) {
   d6456:	f8bd 802c 	ldrh.w	r8, [sp, #44]	; 0x2c
  startWrite();
   d645a:	695b      	ldr	r3, [r3, #20]
                            uint16_t color) {
   d645c:	f9bd 9028 	ldrsh.w	r9, [sp, #40]	; 0x28
   d6460:	4604      	mov	r4, r0
   d6462:	460f      	mov	r7, r1
   d6464:	4616      	mov	r6, r2
  startWrite();
   d6466:	4798      	blx	r3
  writeFastHLine(x, y, w, color);
   d6468:	6823      	ldr	r3, [r4, #0]
   d646a:	f8cd 8000 	str.w	r8, [sp]
   d646e:	f8d3 a024 	ldr.w	sl, [r3, #36]	; 0x24
   d6472:	4632      	mov	r2, r6
   d6474:	462b      	mov	r3, r5
   d6476:	4639      	mov	r1, r7
   d6478:	4620      	mov	r0, r4
   d647a:	47d0      	blx	sl
  writeFastHLine(x, y + h - 1, w, color);
   d647c:	6823      	ldr	r3, [r4, #0]
   d647e:	f8cd 8000 	str.w	r8, [sp]
   d6482:	f109 32ff 	add.w	r2, r9, #4294967295
   d6486:	4432      	add	r2, r6
   d6488:	f8d3 a024 	ldr.w	sl, [r3, #36]	; 0x24
   d648c:	4639      	mov	r1, r7
   d648e:	462b      	mov	r3, r5
   d6490:	4620      	mov	r0, r4
   d6492:	b212      	sxth	r2, r2
   d6494:	47d0      	blx	sl
  writeFastVLine(x, y, h, color);
   d6496:	6823      	ldr	r3, [r4, #0]
   d6498:	f8cd 8000 	str.w	r8, [sp]
   d649c:	f8d3 a020 	ldr.w	sl, [r3, #32]
   d64a0:	4632      	mov	r2, r6
   d64a2:	464b      	mov	r3, r9
   d64a4:	4639      	mov	r1, r7
   d64a6:	4620      	mov	r0, r4
   d64a8:	47d0      	blx	sl
  writeFastVLine(x + w - 1, y, h, color);
   d64aa:	1e6b      	subs	r3, r5, #1
   d64ac:	19d9      	adds	r1, r3, r7
   d64ae:	6823      	ldr	r3, [r4, #0]
   d64b0:	f8cd 8000 	str.w	r8, [sp]
   d64b4:	6a1d      	ldr	r5, [r3, #32]
   d64b6:	4620      	mov	r0, r4
   d64b8:	464b      	mov	r3, r9
   d64ba:	4632      	mov	r2, r6
   d64bc:	b209      	sxth	r1, r1
   d64be:	47a8      	blx	r5
  endWrite();
   d64c0:	6823      	ldr	r3, [r4, #0]
   d64c2:	6adb      	ldr	r3, [r3, #44]	; 0x2c
   d64c4:	4620      	mov	r0, r4
}
   d64c6:	b002      	add	sp, #8
   d64c8:	e8bd 47f0 	ldmia.w	sp!, {r4, r5, r6, r7, r8, r9, sl, lr}
  endWrite();
   d64cc:	4718      	bx	r3

000d64ce <_ZN12Adafruit_GFX13invertDisplayEb>:
*/
/**************************************************************************/
void Adafruit_GFX::invertDisplay(bool i) {
  // Do nothing, must be subclassed if supported by hardware
  (void)i; // disable -Wunused-parameter warning
}
   d64ce:	4770      	bx	lr

000d64d0 <_ZN12Adafruit_GFX8drawLineEsssst>:
                            uint16_t color) {
   d64d0:	e92d 43f7 	stmdb	sp!, {r0, r1, r2, r4, r5, r6, r7, r8, r9, lr}
  if (x0 == x1) {
   d64d4:	4299      	cmp	r1, r3
                            uint16_t color) {
   d64d6:	4616      	mov	r6, r2
   d64d8:	f9bd 7028 	ldrsh.w	r7, [sp, #40]	; 0x28
   d64dc:	f8bd 902c 	ldrh.w	r9, [sp, #44]	; 0x2c
   d64e0:	6802      	ldr	r2, [r0, #0]
   d64e2:	4680      	mov	r8, r0
   d64e4:	460d      	mov	r5, r1
   d64e6:	461c      	mov	r4, r3
  if (x0 == x1) {
   d64e8:	d113      	bne.n	d6512 <_ZN12Adafruit_GFX8drawLineEsssst+0x42>
    if (y0 > y1)
   d64ea:	42be      	cmp	r6, r7
   d64ec:	bfc8      	it	gt
   d64ee:	4633      	movgt	r3, r6
    drawFastVLine(x0, y0, y1 - y0 + 1, color);
   d64f0:	f8cd 9028 	str.w	r9, [sp, #40]	; 0x28
    if (y0 > y1)
   d64f4:	bfc4      	itt	gt
   d64f6:	463e      	movgt	r6, r7
   d64f8:	461f      	movgt	r7, r3
    drawFastVLine(x0, y0, y1 - y0 + 1, color);
   d64fa:	1c7b      	adds	r3, r7, #1
   d64fc:	6b94      	ldr	r4, [r2, #56]	; 0x38
   d64fe:	1b9b      	subs	r3, r3, r6
    drawFastHLine(x0, y0, x1 - x0 + 1, color);
   d6500:	b21b      	sxth	r3, r3
   d6502:	4632      	mov	r2, r6
   d6504:	4629      	mov	r1, r5
   d6506:	4640      	mov	r0, r8
   d6508:	46a4      	mov	ip, r4
}
   d650a:	b003      	add	sp, #12
   d650c:	e8bd 43f0 	ldmia.w	sp!, {r4, r5, r6, r7, r8, r9, lr}
    drawFastHLine(x0, y0, x1 - x0 + 1, color);
   d6510:	4760      	bx	ip
  } else if (y0 == y1) {
   d6512:	42be      	cmp	r6, r7
   d6514:	d10a      	bne.n	d652c <_ZN12Adafruit_GFX8drawLineEsssst+0x5c>
    if (x0 > x1)
   d6516:	4299      	cmp	r1, r3
   d6518:	bfc2      	ittt	gt
   d651a:	460b      	movgt	r3, r1
   d651c:	4625      	movgt	r5, r4
   d651e:	461c      	movgt	r4, r3
    drawFastHLine(x0, y0, x1 - x0 + 1, color);
   d6520:	1c63      	adds	r3, r4, #1
   d6522:	f8cd 9028 	str.w	r9, [sp, #40]	; 0x28
   d6526:	6bd4      	ldr	r4, [r2, #60]	; 0x3c
   d6528:	1b5b      	subs	r3, r3, r5
   d652a:	e7e9      	b.n	d6500 <_ZN12Adafruit_GFX8drawLineEsssst+0x30>
    startWrite();
   d652c:	6953      	ldr	r3, [r2, #20]
   d652e:	4798      	blx	r3
    writeLine(x0, y0, x1, y1, color);
   d6530:	e9cd 7900 	strd	r7, r9, [sp]
   d6534:	f8d8 3000 	ldr.w	r3, [r8]
   d6538:	4640      	mov	r0, r8
   d653a:	6a9f      	ldr	r7, [r3, #40]	; 0x28
   d653c:	4632      	mov	r2, r6
   d653e:	4623      	mov	r3, r4
   d6540:	4629      	mov	r1, r5
   d6542:	47b8      	blx	r7
    endWrite();
   d6544:	f8d8 3000 	ldr.w	r3, [r8]
   d6548:	6adb      	ldr	r3, [r3, #44]	; 0x2c
   d654a:	4640      	mov	r0, r8
}
   d654c:	b003      	add	sp, #12
   d654e:	e8bd 43f0 	ldmia.w	sp!, {r4, r5, r6, r7, r8, r9, lr}
    endWrite();
   d6552:	4718      	bx	r3

000d6554 <_ZN12Adafruit_GFX11setRotationEh>:
  rotation = (x & 3);
   d6554:	f001 0303 	and.w	r3, r1, #3
   d6558:	f9b0 200a 	ldrsh.w	r2, [r0, #10]
   d655c:	7683      	strb	r3, [r0, #26]
  switch (rotation) {
   d655e:	07c9      	lsls	r1, r1, #31
    _width = WIDTH;
   d6560:	f9b0 3008 	ldrsh.w	r3, [r0, #8]
   d6564:	bf59      	ittee	pl
   d6566:	8183      	strhpl	r3, [r0, #12]
    _height = HEIGHT;
   d6568:	81c2      	strhpl	r2, [r0, #14]
    _width = HEIGHT;
   d656a:	8182      	strhmi	r2, [r0, #12]
    _height = WIDTH;
   d656c:	81c3      	strhmi	r3, [r0, #14]
}
   d656e:	4770      	bx	lr

000d6570 <_ZN12Adafruit_GFXC1Ess>:
Adafruit_GFX::Adafruit_GFX(int16_t w, int16_t h) : WIDTH(w), HEIGHT(h) {
   d6570:	b530      	push	{r4, r5, lr}
   d6572:	8142      	strh	r2, [r0, #10]
  _height = HEIGHT;
   d6574:	81c2      	strh	r2, [r0, #14]
  textsize_x = textsize_y = 1;
   d6576:	4a07      	ldr	r2, [pc, #28]	; (d6594 <_ZN12Adafruit_GFXC1Ess+0x24>)
Adafruit_GFX::Adafruit_GFX(int16_t w, int16_t h) : WIDTH(w), HEIGHT(h) {
   d6578:	4d07      	ldr	r5, [pc, #28]	; (d6598 <_ZN12Adafruit_GFXC1Ess+0x28>)
   d657a:	8101      	strh	r1, [r0, #8]
    Print() : write_error(0) {}
   d657c:	2400      	movs	r4, #0
  _width = WIDTH;
   d657e:	8181      	strh	r1, [r0, #12]
  textsize_x = textsize_y = 1;
   d6580:	f04f 31ff 	mov.w	r1, #4294967295
   d6584:	e9c0 1205 	strd	r1, r2, [r0, #20]
   d6588:	6044      	str	r4, [r0, #4]
Adafruit_GFX::Adafruit_GFX(int16_t w, int16_t h) : WIDTH(w), HEIGHT(h) {
   d658a:	6005      	str	r5, [r0, #0]
  cursor_y = cursor_x = 0;
   d658c:	6104      	str	r4, [r0, #16]
  _cp437 = false;
   d658e:	7704      	strb	r4, [r0, #28]
  gfxFont = NULL;
   d6590:	6204      	str	r4, [r0, #32]
}
   d6592:	bd30      	pop	{r4, r5, pc}
   d6594:	01000101 	.word	0x01000101
   d6598:	000dadb8 	.word	0x000dadb8

000d659c <_ZN12Adafruit_GFX10drawBitmapEssPKhsst>:
                              int16_t w, int16_t h, uint16_t color) {
   d659c:	e92d 4ff0 	stmdb	sp!, {r4, r5, r6, r7, r8, r9, sl, fp, lr}
   d65a0:	b089      	sub	sp, #36	; 0x24
   d65a2:	e9cd 1202 	strd	r1, r2, [sp, #8]
  startWrite();
   d65a6:	6802      	ldr	r2, [r0, #0]
                              int16_t w, int16_t h, uint16_t color) {
   d65a8:	f9bd 8048 	ldrsh.w	r8, [sp, #72]	; 0x48
   d65ac:	9304      	str	r3, [sp, #16]
   d65ae:	f9bd 304c 	ldrsh.w	r3, [sp, #76]	; 0x4c
  startWrite();
   d65b2:	6952      	ldr	r2, [r2, #20]
                              int16_t w, int16_t h, uint16_t color) {
   d65b4:	9305      	str	r3, [sp, #20]
   d65b6:	f8bd a050 	ldrh.w	sl, [sp, #80]	; 0x50
   d65ba:	4604      	mov	r4, r0
  startWrite();
   d65bc:	4790      	blx	r2
  int16_t byteWidth = (w + 7) / 8; // Bitmap scanline pad = whole byte
   d65be:	f118 0207 	adds.w	r2, r8, #7
  startWrite();
   d65c2:	f04f 0600 	mov.w	r6, #0
  int16_t byteWidth = (w + 7) / 8; // Bitmap scanline pad = whole byte
   d65c6:	bf48      	it	mi
   d65c8:	f108 020e 	addmi.w	r2, r8, #14
   d65cc:	ea4f 0be2 	mov.w	fp, r2, asr #3
  startWrite();
   d65d0:	9601      	str	r6, [sp, #4]
  uint8_t byte = 0;
   d65d2:	4635      	mov	r5, r6
   d65d4:	9b03      	ldr	r3, [sp, #12]
   d65d6:	9a01      	ldr	r2, [sp, #4]
  for (int16_t j = 0; j < h; j++, y++) {
   d65d8:	f9bd 1004 	ldrsh.w	r1, [sp, #4]
   d65dc:	189a      	adds	r2, r3, r2
   d65de:	9b05      	ldr	r3, [sp, #20]
   d65e0:	428b      	cmp	r3, r1
   d65e2:	b212      	sxth	r2, r2
   d65e4:	dd27      	ble.n	d6636 <_ZN12Adafruit_GFX10drawBitmapEssPKhsst+0x9a>
        byte = pgm_read_byte(&bitmap[j * byteWidth + i / 8]);
   d65e6:	9b04      	ldr	r3, [sp, #16]
   d65e8:	4433      	add	r3, r6
  for (int16_t j = 0; j < h; j++, y++) {
   d65ea:	f04f 0900 	mov.w	r9, #0
        byte = pgm_read_byte(&bitmap[j * byteWidth + i / 8]);
   d65ee:	9306      	str	r3, [sp, #24]
   d65f0:	fa0f f089 	sxth.w	r0, r9
    for (int16_t i = 0; i < w; i++) {
   d65f4:	4580      	cmp	r8, r0
   d65f6:	fa1f f189 	uxth.w	r1, r9
   d65fa:	dd17      	ble.n	d662c <_ZN12Adafruit_GFX10drawBitmapEssPKhsst+0x90>
      if (i & 7)
   d65fc:	074f      	lsls	r7, r1, #29
        byte = pgm_read_byte(&bitmap[j * byteWidth + i / 8]);
   d65fe:	bf05      	ittet	eq
   d6600:	9b06      	ldreq	r3, [sp, #24]
   d6602:	10c0      	asreq	r0, r0, #3
        byte <<= 1;
   d6604:	006d      	lslne	r5, r5, #1
        byte = pgm_read_byte(&bitmap[j * byteWidth + i / 8]);
   d6606:	5c1d      	ldrbeq	r5, [r3, r0]
        byte <<= 1;
   d6608:	bf18      	it	ne
   d660a:	b2ed      	uxtbne	r5, r5
      if (byte & 0x80)
   d660c:	062b      	lsls	r3, r5, #24
   d660e:	d50a      	bpl.n	d6626 <_ZN12Adafruit_GFX10drawBitmapEssPKhsst+0x8a>
        writePixel(x + i, y, color);
   d6610:	9b02      	ldr	r3, [sp, #8]
   d6612:	6820      	ldr	r0, [r4, #0]
   d6614:	9207      	str	r2, [sp, #28]
   d6616:	4419      	add	r1, r3
   d6618:	6983      	ldr	r3, [r0, #24]
   d661a:	b209      	sxth	r1, r1
   d661c:	461f      	mov	r7, r3
   d661e:	4620      	mov	r0, r4
   d6620:	4653      	mov	r3, sl
   d6622:	47b8      	blx	r7
   d6624:	9a07      	ldr	r2, [sp, #28]
    for (int16_t i = 0; i < w; i++) {
   d6626:	f109 0901 	add.w	r9, r9, #1
   d662a:	e7e1      	b.n	d65f0 <_ZN12Adafruit_GFX10drawBitmapEssPKhsst+0x54>
  for (int16_t j = 0; j < h; j++, y++) {
   d662c:	9b01      	ldr	r3, [sp, #4]
   d662e:	3301      	adds	r3, #1
   d6630:	9301      	str	r3, [sp, #4]
   d6632:	445e      	add	r6, fp
   d6634:	e7ce      	b.n	d65d4 <_ZN12Adafruit_GFX10drawBitmapEssPKhsst+0x38>
  endWrite();
   d6636:	6823      	ldr	r3, [r4, #0]
   d6638:	6adb      	ldr	r3, [r3, #44]	; 0x2c
   d663a:	4620      	mov	r0, r4
}
   d663c:	b009      	add	sp, #36	; 0x24
   d663e:	e8bd 4ff0 	ldmia.w	sp!, {r4, r5, r6, r7, r8, r9, sl, fp, lr}
  endWrite();
   d6642:	4718      	bx	r3

000d6644 <_ZN12Adafruit_GFX8drawCharEsshtthh>:
                            uint8_t size_y) {
   d6644:	e92d 4ff0 	stmdb	sp!, {r4, r5, r6, r7, r8, r9, sl, fp, lr}
   d6648:	ed2d 8b02 	vpush	{d8}
   d664c:	b091      	sub	sp, #68	; 0x44
   d664e:	4616      	mov	r6, r2
  if (!gfxFont) { // 'Classic' built-in font
   d6650:	6a02      	ldr	r2, [r0, #32]
                            uint8_t size_y) {
   d6652:	f8bd 8074 	ldrh.w	r8, [sp, #116]	; 0x74
   d6656:	f89d 5078 	ldrb.w	r5, [sp, #120]	; 0x78
   d665a:	f89d 407c 	ldrb.w	r4, [sp, #124]	; 0x7c
   d665e:	9103      	str	r1, [sp, #12]
   d6660:	461f      	mov	r7, r3
   d6662:	f8bd 3070 	ldrh.w	r3, [sp, #112]	; 0x70
   d6666:	9304      	str	r3, [sp, #16]
   d6668:	4683      	mov	fp, r0
  if (!gfxFont) { // 'Classic' built-in font
   d666a:	2a00      	cmp	r2, #0
   d666c:	f040 80c5 	bne.w	d67fa <_ZN12Adafruit_GFX8drawCharEsshtthh+0x1b6>
    if ((x >= _width) ||              // Clip right
   d6670:	f9b0 300c 	ldrsh.w	r3, [r0, #12]
   d6674:	428b      	cmp	r3, r1
   d6676:	f340 814c 	ble.w	d6912 <_ZN12Adafruit_GFX8drawCharEsshtthh+0x2ce>
   d667a:	f9b0 300e 	ldrsh.w	r3, [r0, #14]
   d667e:	42b3      	cmp	r3, r6
   d6680:	f340 8147 	ble.w	d6912 <_ZN12Adafruit_GFX8drawCharEsshtthh+0x2ce>
        ((x + 6 * size_x - 1) < 0) || // Clip left
   d6684:	2306      	movs	r3, #6
   d6686:	fb13 1305 	smlabb	r3, r3, r5, r1
        (y >= _height) ||             // Clip bottom
   d668a:	2b00      	cmp	r3, #0
   d668c:	f340 8141 	ble.w	d6912 <_ZN12Adafruit_GFX8drawCharEsshtthh+0x2ce>
        ((y + 8 * size_y - 1) < 0))   // Clip top
   d6690:	eb06 03c4 	add.w	r3, r6, r4, lsl #3
        ((x + 6 * size_x - 1) < 0) || // Clip left
   d6694:	2b00      	cmp	r3, #0
   d6696:	f340 813c 	ble.w	d6912 <_ZN12Adafruit_GFX8drawCharEsshtthh+0x2ce>
    if (!_cp437 && (c >= 176))
   d669a:	7f03      	ldrb	r3, [r0, #28]
   d669c:	b91b      	cbnz	r3, d66a6 <_ZN12Adafruit_GFX8drawCharEsshtthh+0x62>
   d669e:	2faf      	cmp	r7, #175	; 0xaf
      c++; // Handle 'classic' charset behavior
   d66a0:	bf84      	itt	hi
   d66a2:	3701      	addhi	r7, #1
   d66a4:	b2ff      	uxtbhi	r7, r7
    startWrite();
   d66a6:	f8db 3000 	ldr.w	r3, [fp]
   d66aa:	4658      	mov	r0, fp
   d66ac:	695b      	ldr	r3, [r3, #20]
   d66ae:	4798      	blx	r3
      uint8_t line = pgm_read_byte(&font[c * 5 + i]);
   d66b0:	2205      	movs	r2, #5
   d66b2:	9209      	str	r2, [sp, #36]	; 0x24
    for (int8_t i = 0; i < 5; i++) { // Char bitmap = 5 columns
   d66b4:	2200      	movs	r2, #0
   d66b6:	9205      	str	r2, [sp, #20]
      uint8_t line = pgm_read_byte(&font[c * 5 + i]);
   d66b8:	4a98      	ldr	r2, [pc, #608]	; (d691c <_ZN12Adafruit_GFX8drawCharEsshtthh+0x2d8>)
   d66ba:	eb07 0387 	add.w	r3, r7, r7, lsl #2
   d66be:	18d3      	adds	r3, r2, r3
   d66c0:	930c      	str	r3, [sp, #48]	; 0x30
   d66c2:	b2b3      	uxth	r3, r6
   d66c4:	9306      	str	r3, [sp, #24]
   d66c6:	9a05      	ldr	r2, [sp, #20]
   d66c8:	9b0c      	ldr	r3, [sp, #48]	; 0x30
   d66ca:	5c9b      	ldrb	r3, [r3, r2]
   d66cc:	9307      	str	r3, [sp, #28]
            writeFillRect(x + i * size_x, y + j * size_y, size_x, size_y, bg);
   d66ce:	b2ab      	uxth	r3, r5
   d66d0:	930b      	str	r3, [sp, #44]	; 0x2c
   d66d2:	f8bd 300c 	ldrh.w	r3, [sp, #12]
   d66d6:	9308      	str	r3, [sp, #32]
   d66d8:	9b03      	ldr	r3, [sp, #12]
   d66da:	fb02 f905 	mul.w	r9, r2, r5
   d66de:	fa19 f983 	uxtah	r9, r9, r3
   d66e2:	fa0f f389 	sxth.w	r3, r9
   d66e6:	ee08 3a10 	vmov	s16, r3
   d66ea:	2308      	movs	r3, #8
   d66ec:	930a      	str	r3, [sp, #40]	; 0x28
            writePixel(x + i, y + j, bg);
   d66ee:	9b03      	ldr	r3, [sp, #12]
   d66f0:	eb02 0a03 	add.w	sl, r2, r3
      for (int8_t j = 0; j < 8; j++, line >>= 1) {
   d66f4:	f04f 0900 	mov.w	r9, #0
            writePixel(x + i, y + j, bg);
   d66f8:	fa0f fa8a 	sxth.w	sl, sl
        if (line & 1) {
   d66fc:	9a07      	ldr	r2, [sp, #28]
   d66fe:	f8db 3000 	ldr.w	r3, [fp]
   d6702:	07d2      	lsls	r2, r2, #31
   d6704:	d552      	bpl.n	d67ac <_ZN12Adafruit_GFX8drawCharEsshtthh+0x168>
          if (size_x == 1 && size_y == 1)
   d6706:	2d01      	cmp	r5, #1
   d6708:	fa1f f289 	uxth.w	r2, r9
   d670c:	d13e      	bne.n	d678c <_ZN12Adafruit_GFX8drawCharEsshtthh+0x148>
   d670e:	2c01      	cmp	r4, #1
   d6710:	d13c      	bne.n	d678c <_ZN12Adafruit_GFX8drawCharEsshtthh+0x148>
            writePixel(x + i, y + j, color);
   d6712:	699b      	ldr	r3, [r3, #24]
   d6714:	9906      	ldr	r1, [sp, #24]
   d6716:	461f      	mov	r7, r3
   d6718:	9b04      	ldr	r3, [sp, #16]
   d671a:	440a      	add	r2, r1
            writePixel(x + i, y + j, bg);
   d671c:	b212      	sxth	r2, r2
   d671e:	4651      	mov	r1, sl
   d6720:	4658      	mov	r0, fp
   d6722:	47b8      	blx	r7
      for (int8_t j = 0; j < 8; j++, line >>= 1) {
   d6724:	f109 0301 	add.w	r3, r9, #1
   d6728:	fa4f f983 	sxtb.w	r9, r3
   d672c:	9b07      	ldr	r3, [sp, #28]
   d672e:	085b      	lsrs	r3, r3, #1
   d6730:	9307      	str	r3, [sp, #28]
   d6732:	9b0a      	ldr	r3, [sp, #40]	; 0x28
   d6734:	3b01      	subs	r3, #1
   d6736:	f013 03ff 	ands.w	r3, r3, #255	; 0xff
   d673a:	930a      	str	r3, [sp, #40]	; 0x28
   d673c:	d1de      	bne.n	d66fc <_ZN12Adafruit_GFX8drawCharEsshtthh+0xb8>
    for (int8_t i = 0; i < 5; i++) { // Char bitmap = 5 columns
   d673e:	9f05      	ldr	r7, [sp, #20]
   d6740:	3701      	adds	r7, #1
   d6742:	b27b      	sxtb	r3, r7
   d6744:	9305      	str	r3, [sp, #20]
   d6746:	9b09      	ldr	r3, [sp, #36]	; 0x24
   d6748:	3b01      	subs	r3, #1
   d674a:	f013 03ff 	ands.w	r3, r3, #255	; 0xff
   d674e:	9309      	str	r3, [sp, #36]	; 0x24
   d6750:	d1b9      	bne.n	d66c6 <_ZN12Adafruit_GFX8drawCharEsshtthh+0x82>
    if (bg != color) { // If opaque, draw vertical line for last column
   d6752:	9b04      	ldr	r3, [sp, #16]
   d6754:	4543      	cmp	r3, r8
   d6756:	d00f      	beq.n	d6778 <_ZN12Adafruit_GFX8drawCharEsshtthh+0x134>
      if (size_x == 1 && size_y == 1)
   d6758:	2d01      	cmp	r5, #1
   d675a:	f8db 3000 	ldr.w	r3, [fp]
   d675e:	d13b      	bne.n	d67d8 <_ZN12Adafruit_GFX8drawCharEsshtthh+0x194>
   d6760:	2c01      	cmp	r4, #1
   d6762:	d139      	bne.n	d67d8 <_ZN12Adafruit_GFX8drawCharEsshtthh+0x194>
        writeFastVLine(x + 5, y, 8, bg);
   d6764:	9908      	ldr	r1, [sp, #32]
   d6766:	f8cd 8000 	str.w	r8, [sp]
   d676a:	3105      	adds	r1, #5
   d676c:	6a1c      	ldr	r4, [r3, #32]
   d676e:	4632      	mov	r2, r6
   d6770:	2308      	movs	r3, #8
   d6772:	b209      	sxth	r1, r1
   d6774:	4658      	mov	r0, fp
   d6776:	47a0      	blx	r4
    endWrite();
   d6778:	f8db 3000 	ldr.w	r3, [fp]
   d677c:	6adb      	ldr	r3, [r3, #44]	; 0x2c
   d677e:	4658      	mov	r0, fp
}
   d6780:	b011      	add	sp, #68	; 0x44
   d6782:	ecbd 8b02 	vpop	{d8}
   d6786:	e8bd 4ff0 	ldmia.w	sp!, {r4, r5, r6, r7, r8, r9, sl, fp, lr}
    endWrite();
   d678a:	4718      	bx	r3
            writeFillRect(x + i * size_x, y + j * size_y, size_x, size_y,
   d678c:	9906      	ldr	r1, [sp, #24]
   d678e:	fb14 f202 	smulbb	r2, r4, r2
   d6792:	440a      	add	r2, r1
   d6794:	9904      	ldr	r1, [sp, #16]
   d6796:	9101      	str	r1, [sp, #4]
            writeFillRect(x + i * size_x, y + j * size_y, size_x, size_y, bg);
   d6798:	9400      	str	r4, [sp, #0]
   d679a:	69db      	ldr	r3, [r3, #28]
   d679c:	ee18 1a10 	vmov	r1, s16
   d67a0:	461f      	mov	r7, r3
   d67a2:	b212      	sxth	r2, r2
   d67a4:	462b      	mov	r3, r5
   d67a6:	4658      	mov	r0, fp
   d67a8:	47b8      	blx	r7
   d67aa:	e7bb      	b.n	d6724 <_ZN12Adafruit_GFX8drawCharEsshtthh+0xe0>
        } else if (bg != color) {
   d67ac:	9a04      	ldr	r2, [sp, #16]
   d67ae:	4542      	cmp	r2, r8
   d67b0:	d0b8      	beq.n	d6724 <_ZN12Adafruit_GFX8drawCharEsshtthh+0xe0>
          if (size_x == 1 && size_y == 1)
   d67b2:	2d01      	cmp	r5, #1
   d67b4:	fa1f f289 	uxth.w	r2, r9
   d67b8:	d107      	bne.n	d67ca <_ZN12Adafruit_GFX8drawCharEsshtthh+0x186>
   d67ba:	2c01      	cmp	r4, #1
   d67bc:	d105      	bne.n	d67ca <_ZN12Adafruit_GFX8drawCharEsshtthh+0x186>
            writePixel(x + i, y + j, bg);
   d67be:	699b      	ldr	r3, [r3, #24]
   d67c0:	9906      	ldr	r1, [sp, #24]
   d67c2:	461f      	mov	r7, r3
   d67c4:	440a      	add	r2, r1
   d67c6:	4643      	mov	r3, r8
   d67c8:	e7a8      	b.n	d671c <_ZN12Adafruit_GFX8drawCharEsshtthh+0xd8>
            writeFillRect(x + i * size_x, y + j * size_y, size_x, size_y, bg);
   d67ca:	9906      	ldr	r1, [sp, #24]
   d67cc:	f8cd 8004 	str.w	r8, [sp, #4]
   d67d0:	fb14 f202 	smulbb	r2, r4, r2
   d67d4:	440a      	add	r2, r1
   d67d6:	e7df      	b.n	d6798 <_ZN12Adafruit_GFX8drawCharEsshtthh+0x154>
        writeFillRect(x + 5 * size_x, y, size_x, 8 * size_y, bg);
   d67d8:	9a0b      	ldr	r2, [sp, #44]	; 0x2c
   d67da:	f8cd 8004 	str.w	r8, [sp, #4]
   d67de:	eb02 0182 	add.w	r1, r2, r2, lsl #2
   d67e2:	9a08      	ldr	r2, [sp, #32]
   d67e4:	00e4      	lsls	r4, r4, #3
   d67e6:	440a      	add	r2, r1
   d67e8:	4611      	mov	r1, r2
   d67ea:	9400      	str	r4, [sp, #0]
   d67ec:	69dc      	ldr	r4, [r3, #28]
   d67ee:	4632      	mov	r2, r6
   d67f0:	462b      	mov	r3, r5
   d67f2:	b209      	sxth	r1, r1
   d67f4:	4658      	mov	r0, fp
   d67f6:	47a0      	blx	r4
    endWrite();
   d67f8:	e7be      	b.n	d6778 <_ZN12Adafruit_GFX8drawCharEsshtthh+0x134>
    c -= (uint8_t)pgm_read_byte(&gfxFont->first);
   d67fa:	7a13      	ldrb	r3, [r2, #8]
  return gfxFont->glyph + c;
   d67fc:	6851      	ldr	r1, [r2, #4]
    uint8_t *bitmap = pgm_read_bitmap_ptr(gfxFont);
   d67fe:	6812      	ldr	r2, [r2, #0]
   d6800:	920d      	str	r2, [sp, #52]	; 0x34
    c -= (uint8_t)pgm_read_byte(&gfxFont->first);
   d6802:	1aff      	subs	r7, r7, r3
  return gfxFont->glyph + c;
   d6804:	b2ff      	uxtb	r7, r7
   d6806:	eb01 03c7 	add.w	r3, r1, r7, lsl #3
    uint16_t bo = pgm_read_word(&glyph->bitmapOffset);
   d680a:	f831 2037 	ldrh.w	r2, [r1, r7, lsl #3]
   d680e:	9206      	str	r2, [sp, #24]
    uint8_t w = pgm_read_byte(&glyph->width), h = pgm_read_byte(&glyph->height);
   d6810:	789a      	ldrb	r2, [r3, #2]
   d6812:	9209      	str	r2, [sp, #36]	; 0x24
   d6814:	78da      	ldrb	r2, [r3, #3]
   d6816:	920b      	str	r2, [sp, #44]	; 0x2c
    if (size_x > 1 || size_y > 1) {
   d6818:	2d01      	cmp	r5, #1
    int8_t xo = pgm_read_byte(&glyph->xOffset),
   d681a:	f993 2005 	ldrsb.w	r2, [r3, #5]
           yo = pgm_read_byte(&glyph->yOffset);
   d681e:	f993 a006 	ldrsb.w	sl, [r3, #6]
    int8_t xo = pgm_read_byte(&glyph->xOffset),
   d6822:	920a      	str	r2, [sp, #40]	; 0x28
    if (size_x > 1 || size_y > 1) {
   d6824:	d801      	bhi.n	d682a <_ZN12Adafruit_GFX8drawCharEsshtthh+0x1e6>
   d6826:	2c01      	cmp	r4, #1
   d6828:	d957      	bls.n	d68da <_ZN12Adafruit_GFX8drawCharEsshtthh+0x296>
      xo16 = xo;
   d682a:	f9bd 3028 	ldrsh.w	r3, [sp, #40]	; 0x28
   d682e:	9308      	str	r3, [sp, #32]
      yo16 = yo;
   d6830:	fa0f f38a 	sxth.w	r3, sl
   d6834:	9307      	str	r3, [sp, #28]
    startWrite();
   d6836:	f8db 3000 	ldr.w	r3, [fp]
   d683a:	4658      	mov	r0, fp
   d683c:	695b      	ldr	r3, [r3, #20]
   d683e:	4798      	blx	r3
            writeFillRect(x + (xo16 + xx) * size_x, y + (yo16 + yy) * size_y,
   d6840:	b2b3      	uxth	r3, r6
    uint8_t xx, yy, bits = 0, bit = 0;
   d6842:	f04f 0800 	mov.w	r8, #0
            writeFillRect(x + (xo16 + xx) * size_x, y + (yo16 + yy) * size_y,
   d6846:	930e      	str	r3, [sp, #56]	; 0x38
            writePixel(x + xo + xx, y + yo + yy, color);
   d6848:	fa1a f386 	uxtah	r3, sl, r6
    uint8_t xx, yy, bits = 0, bit = 0;
   d684c:	46c1      	mov	r9, r8
    for (yy = 0; yy < h; yy++) {
   d684e:	4647      	mov	r7, r8
            writePixel(x + xo + xx, y + yo + yy, color);
   d6850:	930f      	str	r3, [sp, #60]	; 0x3c
    for (yy = 0; yy < h; yy++) {
   d6852:	9b0b      	ldr	r3, [sp, #44]	; 0x2c
   d6854:	429f      	cmp	r7, r3
   d6856:	d28f      	bcs.n	d6778 <_ZN12Adafruit_GFX8drawCharEsshtthh+0x134>
            writeFillRect(x + (xo16 + xx) * size_x, y + (yo16 + yy) * size_y,
   d6858:	9b07      	ldr	r3, [sp, #28]
   d685a:	9a0e      	ldr	r2, [sp, #56]	; 0x38
   d685c:	443b      	add	r3, r7
   d685e:	fb03 2304 	mla	r3, r3, r4, r2
      for (xx = 0; xx < w; xx++) {
   d6862:	2200      	movs	r2, #0
   d6864:	9205      	str	r2, [sp, #20]
            writePixel(x + xo + xx, y + yo + yy, color);
   d6866:	9a0f      	ldr	r2, [sp, #60]	; 0x3c
            writeFillRect(x + (xo16 + xx) * size_x, y + (yo16 + yy) * size_y,
   d6868:	b21b      	sxth	r3, r3
            writePixel(x + xo + xx, y + yo + yy, color);
   d686a:	eb02 0a07 	add.w	sl, r2, r7
            writeFillRect(x + (xo16 + xx) * size_x, y + (yo16 + yy) * size_y,
   d686e:	ee08 3a10 	vmov	s16, r3
            writePixel(x + xo + xx, y + yo + yy, color);
   d6872:	fa0f fa8a 	sxth.w	sl, sl
            writeFillRect(x + (xo16 + xx) * size_x, y + (yo16 + yy) * size_y,
   d6876:	4643      	mov	r3, r8
      for (xx = 0; xx < w; xx++) {
   d6878:	9a09      	ldr	r2, [sp, #36]	; 0x24
   d687a:	9905      	ldr	r1, [sp, #20]
   d687c:	4291      	cmp	r1, r2
   d687e:	d241      	bcs.n	d6904 <_ZN12Adafruit_GFX8drawCharEsshtthh+0x2c0>
        if (!(bit++ & 7)) {
   d6880:	1c5a      	adds	r2, r3, #1
   d6882:	b2d2      	uxtb	r2, r2
   d6884:	075b      	lsls	r3, r3, #29
   d6886:	920c      	str	r2, [sp, #48]	; 0x30
   d6888:	d107      	bne.n	d689a <_ZN12Adafruit_GFX8drawCharEsshtthh+0x256>
          bits = pgm_read_byte(&bitmap[bo++]);
   d688a:	9b06      	ldr	r3, [sp, #24]
   d688c:	9906      	ldr	r1, [sp, #24]
   d688e:	9a0d      	ldr	r2, [sp, #52]	; 0x34
   d6890:	3301      	adds	r3, #1
   d6892:	b29b      	uxth	r3, r3
   d6894:	f812 9001 	ldrb.w	r9, [r2, r1]
   d6898:	9306      	str	r3, [sp, #24]
        if (bits & 0x80) {
   d689a:	f019 0f80 	tst.w	r9, #128	; 0x80
   d689e:	d012      	beq.n	d68c6 <_ZN12Adafruit_GFX8drawCharEsshtthh+0x282>
          if (size_x == 1 && size_y == 1) {
   d68a0:	2d01      	cmp	r5, #1
   d68a2:	f8db 3000 	ldr.w	r3, [fp]
   d68a6:	f8bd 100c 	ldrh.w	r1, [sp, #12]
   d68aa:	d11a      	bne.n	d68e2 <_ZN12Adafruit_GFX8drawCharEsshtthh+0x29e>
   d68ac:	2c01      	cmp	r4, #1
   d68ae:	d118      	bne.n	d68e2 <_ZN12Adafruit_GFX8drawCharEsshtthh+0x29e>
            writePixel(x + xo + xx, y + yo + yy, color);
   d68b0:	9a0a      	ldr	r2, [sp, #40]	; 0x28
   d68b2:	699b      	ldr	r3, [r3, #24]
   d68b4:	4411      	add	r1, r2
   d68b6:	9a05      	ldr	r2, [sp, #20]
   d68b8:	4411      	add	r1, r2
   d68ba:	461e      	mov	r6, r3
   d68bc:	4652      	mov	r2, sl
   d68be:	9b04      	ldr	r3, [sp, #16]
   d68c0:	b209      	sxth	r1, r1
   d68c2:	4658      	mov	r0, fp
   d68c4:	47b0      	blx	r6
      for (xx = 0; xx < w; xx++) {
   d68c6:	9e05      	ldr	r6, [sp, #20]
   d68c8:	3601      	adds	r6, #1
   d68ca:	b2f3      	uxtb	r3, r6
        bits <<= 1;
   d68cc:	ea4f 0949 	mov.w	r9, r9, lsl #1
      for (xx = 0; xx < w; xx++) {
   d68d0:	9305      	str	r3, [sp, #20]
        bits <<= 1;
   d68d2:	fa5f f989 	uxtb.w	r9, r9
        if (!(bit++ & 7)) {
   d68d6:	9b0c      	ldr	r3, [sp, #48]	; 0x30
      for (xx = 0; xx < w; xx++) {
   d68d8:	e7ce      	b.n	d6878 <_ZN12Adafruit_GFX8drawCharEsshtthh+0x234>
    int16_t xo16 = 0, yo16 = 0;
   d68da:	2300      	movs	r3, #0
   d68dc:	e9cd 3307 	strd	r3, r3, [sp, #28]
   d68e0:	e7a9      	b.n	d6836 <_ZN12Adafruit_GFX8drawCharEsshtthh+0x1f2>
            writeFillRect(x + (xo16 + xx) * size_x, y + (yo16 + yy) * size_y,
   d68e2:	9805      	ldr	r0, [sp, #20]
   d68e4:	9a08      	ldr	r2, [sp, #32]
   d68e6:	4402      	add	r2, r0
   d68e8:	fb02 1105 	mla	r1, r2, r5, r1
   d68ec:	9a04      	ldr	r2, [sp, #16]
   d68ee:	e9cd 4200 	strd	r4, r2, [sp]
   d68f2:	69db      	ldr	r3, [r3, #28]
   d68f4:	ee18 2a10 	vmov	r2, s16
   d68f8:	461e      	mov	r6, r3
   d68fa:	b209      	sxth	r1, r1
   d68fc:	462b      	mov	r3, r5
   d68fe:	4658      	mov	r0, fp
   d6900:	47b0      	blx	r6
   d6902:	e7e0      	b.n	d68c6 <_ZN12Adafruit_GFX8drawCharEsshtthh+0x282>
   d6904:	9b09      	ldr	r3, [sp, #36]	; 0x24
    for (yy = 0; yy < h; yy++) {
   d6906:	3701      	adds	r7, #1
   d6908:	4498      	add	r8, r3
   d690a:	fa5f f888 	uxtb.w	r8, r8
   d690e:	b2ff      	uxtb	r7, r7
   d6910:	e79f      	b.n	d6852 <_ZN12Adafruit_GFX8drawCharEsshtthh+0x20e>
}
   d6912:	b011      	add	sp, #68	; 0x44
   d6914:	ecbd 8b02 	vpop	{d8}
   d6918:	e8bd 8ff0 	ldmia.w	sp!, {r4, r5, r6, r7, r8, r9, sl, fp, pc}
   d691c:	000da8b0 	.word	0x000da8b0

000d6920 <_ZN12Adafruit_GFX5writeEh>:
size_t Adafruit_GFX::write(uint8_t c) {
   d6920:	b5f0      	push	{r4, r5, r6, r7, lr}
  if (!gfxFont) { // 'Classic' built-in font
   d6922:	6a02      	ldr	r2, [r0, #32]
size_t Adafruit_GFX::write(uint8_t c) {
   d6924:	b085      	sub	sp, #20
   d6926:	4604      	mov	r4, r0
   d6928:	460b      	mov	r3, r1
  if (!gfxFont) { // 'Classic' built-in font
   d692a:	2a00      	cmp	r2, #0
   d692c:	d134      	bne.n	d6998 <_ZN12Adafruit_GFX5writeEh+0x78>
    if (c == '\n') {              // Newline?
   d692e:	290a      	cmp	r1, #10
   d6930:	d108      	bne.n	d6944 <_ZN12Adafruit_GFX5writeEh+0x24>
      cursor_y += textsize_y * 8; // advance y one line
   d6932:	8a43      	ldrh	r3, [r0, #18]
      cursor_x = 0;               // Reset x to zero,
   d6934:	8202      	strh	r2, [r0, #16]
      cursor_y += textsize_y * 8; // advance y one line
   d6936:	7e42      	ldrb	r2, [r0, #25]
   d6938:	eb03 03c2 	add.w	r3, r3, r2, lsl #3
      cursor_y +=
   d693c:	8263      	strh	r3, [r4, #18]
}
   d693e:	2001      	movs	r0, #1
   d6940:	b005      	add	sp, #20
   d6942:	bdf0      	pop	{r4, r5, r6, r7, pc}
    } else if (c != '\r') {       // Ignore carriage returns
   d6944:	290d      	cmp	r1, #13
   d6946:	d0fa      	beq.n	d693e <_ZN12Adafruit_GFX5writeEh+0x1e>
      if (wrap && ((cursor_x + textsize_x * 6) > _width)) { // Off right?
   d6948:	7ee1      	ldrb	r1, [r4, #27]
   d694a:	7e00      	ldrb	r0, [r0, #24]
   d694c:	7e65      	ldrb	r5, [r4, #25]
   d694e:	b171      	cbz	r1, d696e <_ZN12Adafruit_GFX5writeEh+0x4e>
   d6950:	f9b4 6010 	ldrsh.w	r6, [r4, #16]
   d6954:	2106      	movs	r1, #6
   d6956:	fb11 6100 	smlabb	r1, r1, r0, r6
   d695a:	f9b4 600c 	ldrsh.w	r6, [r4, #12]
   d695e:	42b1      	cmp	r1, r6
   d6960:	bfc1      	itttt	gt
   d6962:	f9b4 1012 	ldrshgt.w	r1, [r4, #18]
        cursor_x = 0;                                       // Reset x to zero,
   d6966:	8222      	strhgt	r2, [r4, #16]
        cursor_y += textsize_y * 8; // advance y one line
   d6968:	eb01 02c5 	addgt.w	r2, r1, r5, lsl #3
   d696c:	8262      	strhgt	r2, [r4, #18]
      drawChar(cursor_x, cursor_y, c, textcolor, textbgcolor, textsize_x,
   d696e:	8ae2      	ldrh	r2, [r4, #22]
   d6970:	9201      	str	r2, [sp, #4]
   d6972:	8aa2      	ldrh	r2, [r4, #20]
   d6974:	9200      	str	r2, [sp, #0]
   d6976:	e9cd 0502 	strd	r0, r5, [sp, #8]
   d697a:	f9b4 2012 	ldrsh.w	r2, [r4, #18]
   d697e:	f9b4 1010 	ldrsh.w	r1, [r4, #16]
   d6982:	4620      	mov	r0, r4
   d6984:	f7ff fe5e 	bl	d6644 <_ZN12Adafruit_GFX8drawCharEsshtthh>
      cursor_x += textsize_x * 6; // Advance x one char
   d6988:	7e23      	ldrb	r3, [r4, #24]
   d698a:	8a22      	ldrh	r2, [r4, #16]
   d698c:	eb03 0343 	add.w	r3, r3, r3, lsl #1
   d6990:	eb02 0343 	add.w	r3, r2, r3, lsl #1
        cursor_x +=
   d6994:	8223      	strh	r3, [r4, #16]
   d6996:	e7d2      	b.n	d693e <_ZN12Adafruit_GFX5writeEh+0x1e>
    if (c == '\n') {
   d6998:	290a      	cmp	r1, #10
   d699a:	d107      	bne.n	d69ac <_ZN12Adafruit_GFX5writeEh+0x8c>
      cursor_x = 0;
   d699c:	2300      	movs	r3, #0
   d699e:	8203      	strh	r3, [r0, #16]
          (int16_t)textsize_y * (uint8_t)pgm_read_byte(&gfxFont->yAdvance);
   d69a0:	7b13      	ldrb	r3, [r2, #12]
   d69a2:	7e41      	ldrb	r1, [r0, #25]
      cursor_y +=
   d69a4:	8a42      	ldrh	r2, [r0, #18]
   d69a6:	fb01 2303 	mla	r3, r1, r3, r2
   d69aa:	e7c7      	b.n	d693c <_ZN12Adafruit_GFX5writeEh+0x1c>
    } else if (c != '\r') {
   d69ac:	290d      	cmp	r1, #13
   d69ae:	d0c6      	beq.n	d693e <_ZN12Adafruit_GFX5writeEh+0x1e>
      uint8_t first = pgm_read_byte(&gfxFont->first);
   d69b0:	7a15      	ldrb	r5, [r2, #8]
      if ((c >= first) && (c <= (uint8_t)pgm_read_byte(&gfxFont->last))) {
   d69b2:	42a9      	cmp	r1, r5
   d69b4:	d3c3      	bcc.n	d693e <_ZN12Adafruit_GFX5writeEh+0x1e>
   d69b6:	7a91      	ldrb	r1, [r2, #10]
   d69b8:	4299      	cmp	r1, r3
   d69ba:	d3c0      	bcc.n	d693e <_ZN12Adafruit_GFX5writeEh+0x1e>
  return gfxFont->glyph + c;
   d69bc:	6851      	ldr	r1, [r2, #4]
        GFXglyph *glyph = pgm_read_glyph_ptr(gfxFont, c - first);
   d69be:	1b5d      	subs	r5, r3, r5
  return gfxFont->glyph + c;
   d69c0:	b2ed      	uxtb	r5, r5
   d69c2:	eb01 05c5 	add.w	r5, r1, r5, lsl #3
        uint8_t w = pgm_read_byte(&glyph->width),
   d69c6:	78af      	ldrb	r7, [r5, #2]
        if ((w > 0) && (h > 0)) { // Is there an associated bitmap?
   d69c8:	b32f      	cbz	r7, d6a16 <_ZN12Adafruit_GFX5writeEh+0xf6>
   d69ca:	78e9      	ldrb	r1, [r5, #3]
   d69cc:	b319      	cbz	r1, d6a16 <_ZN12Adafruit_GFX5writeEh+0xf6>
          if (wrap && ((cursor_x + textsize_x * (xo + w)) > _width)) {
   d69ce:	7ee1      	ldrb	r1, [r4, #27]
   d69d0:	7e00      	ldrb	r0, [r0, #24]
   d69d2:	7e66      	ldrb	r6, [r4, #25]
   d69d4:	b191      	cbz	r1, d69fc <_ZN12Adafruit_GFX5writeEh+0xdc>
   d69d6:	f995 1005 	ldrsb.w	r1, [r5, #5]
   d69da:	4439      	add	r1, r7
   d69dc:	f9b4 7010 	ldrsh.w	r7, [r4, #16]
   d69e0:	fb00 7101 	mla	r1, r0, r1, r7
   d69e4:	f9b4 700c 	ldrsh.w	r7, [r4, #12]
   d69e8:	42b9      	cmp	r1, r7
   d69ea:	dd07      	ble.n	d69fc <_ZN12Adafruit_GFX5writeEh+0xdc>
            cursor_x = 0;
   d69ec:	2700      	movs	r7, #0
   d69ee:	8227      	strh	r7, [r4, #16]
   d69f0:	f9b4 1012 	ldrsh.w	r1, [r4, #18]
                        (uint8_t)pgm_read_byte(&gfxFont->yAdvance);
   d69f4:	7b12      	ldrb	r2, [r2, #12]
            cursor_y += (int16_t)textsize_y *
   d69f6:	fb02 1206 	mla	r2, r2, r6, r1
   d69fa:	8262      	strh	r2, [r4, #18]
          drawChar(cursor_x, cursor_y, c, textcolor, textbgcolor, textsize_x,
   d69fc:	8ae2      	ldrh	r2, [r4, #22]
   d69fe:	9201      	str	r2, [sp, #4]
   d6a00:	8aa2      	ldrh	r2, [r4, #20]
   d6a02:	9200      	str	r2, [sp, #0]
   d6a04:	e9cd 0602 	strd	r0, r6, [sp, #8]
   d6a08:	f9b4 2012 	ldrsh.w	r2, [r4, #18]
   d6a0c:	f9b4 1010 	ldrsh.w	r1, [r4, #16]
   d6a10:	4620      	mov	r0, r4
   d6a12:	f7ff fe17 	bl	d6644 <_ZN12Adafruit_GFX8drawCharEsshtthh>
            (uint8_t)pgm_read_byte(&glyph->xAdvance) * (int16_t)textsize_x;
   d6a16:	7929      	ldrb	r1, [r5, #4]
   d6a18:	7e23      	ldrb	r3, [r4, #24]
        cursor_x +=
   d6a1a:	8a22      	ldrh	r2, [r4, #16]
   d6a1c:	fb01 2303 	mla	r3, r1, r3, r2
   d6a20:	e7b8      	b.n	d6994 <_ZN12Adafruit_GFX5writeEh+0x74>

000d6a22 <_ZN12Adafruit_GFX11setTextSizeEh>:
  textsize_x = (s_x > 0) ? s_x : 1;
   d6a22:	2901      	cmp	r1, #1
   d6a24:	bf38      	it	cc
   d6a26:	2101      	movcc	r1, #1
   d6a28:	7601      	strb	r1, [r0, #24]
  textsize_y = (s_y > 0) ? s_y : 1;
   d6a2a:	7641      	strb	r1, [r0, #25]
void Adafruit_GFX::setTextSize(uint8_t s) { setTextSize(s, s); }
   d6a2c:	4770      	bx	lr

000d6a2e <_ZN15Adafruit_SH110X7displayEv>:
    @brief  Push data currently in RAM to SH110X display.
    @note   Drawing operations are not visible until this function is
            called. Call after each graphics command, or after a whole set
            of graphics commands, as best needed by one's own application.
*/
void Adafruit_SH110X::display(void) {
   d6a2e:	e92d 4ff0 	stmdb	sp!, {r4, r5, r6, r7, r8, r9, sl, fp, lr}
   d6a32:	4604      	mov	r4, r0
   d6a34:	b08b      	sub	sp, #44	; 0x2c
   d6a36:	f000 f9ab 	bl	d6d90 <os_thread_yield>
  // a screen write and one immediately after should cover it.  But if
  // not, if this becomes a problem, yields() might be added in the
  // 32-byte transfer condition below.
  yield();

  uint16_t count = WIDTH * ((HEIGHT + 7) / 8);
   d6a3a:	f9b4 300a 	ldrsh.w	r3, [r4, #10]
  Serial.print(", ");
  Serial.print(window_y2);
  Serial.println(")");
  */

  uint8_t first_page = window_y1 / 8;
   d6a3e:	f9b4 503a 	ldrsh.w	r5, [r4, #58]	; 0x3a
  uint16_t count = WIDTH * ((HEIGHT + 7) / 8);
   d6a42:	f9b4 7008 	ldrsh.w	r7, [r4, #8]
  uint8_t last_page = (window_y2 + 7) / 8;
  uint8_t page_start = min(bytes_per_page, (uint8_t)window_x1);
   d6a46:	f894 9038 	ldrb.w	r9, [r4, #56]	; 0x38
  uint16_t count = WIDTH * ((HEIGHT + 7) / 8);
   d6a4a:	1dda      	adds	r2, r3, #7
   d6a4c:	bf48      	it	mi
   d6a4e:	f103 020e 	addmi.w	r2, r3, #14
  uint8_t dc_byte = 0x40;
   d6a52:	2340      	movs	r3, #64	; 0x40
   d6a54:	f88d 3023 	strb.w	r3, [sp, #35]	; 0x23
  uint8_t pages = ((HEIGHT + 7) / 8);
   d6a58:	f3c2 03c7 	ubfx	r3, r2, #3, #8
   d6a5c:	9303      	str	r3, [sp, #12]
  uint16_t maxbuff = i2c_dev->maxBufferSize() - 1;
   d6a5e:	6aa3      	ldr	r3, [r4, #40]	; 0x28
   d6a60:	68db      	ldr	r3, [r3, #12]
   d6a62:	3b01      	subs	r3, #1
   d6a64:	b29b      	uxth	r3, r3
   d6a66:	9304      	str	r3, [sp, #16]
  uint8_t page_end = (uint8_t)max((int)0, (int)window_x2);
   d6a68:	f9b4 303c 	ldrsh.w	r3, [r4, #60]	; 0x3c
  uint8_t bytes_per_page = WIDTH;
   d6a6c:	b2ff      	uxtb	r7, r7
  uint8_t first_page = window_y1 / 8;
   d6a6e:	2d00      	cmp	r5, #0
   d6a70:	bfb8      	it	lt
   d6a72:	3507      	addlt	r5, #7
  uint8_t page_end = (uint8_t)max((int)0, (int)window_x2);
   d6a74:	ea23 73e3 	bic.w	r3, r3, r3, asr #31
  uint8_t page_start = min(bytes_per_page, (uint8_t)window_x1);
   d6a78:	45b9      	cmp	r9, r7
    ptr = buffer + (uint16_t)p * (uint16_t)bytes_per_page;
    // fast forward to dirty rectangle beginning
    ptr += page_start;
    bytes_remaining -= page_start;
    // cut off end of dirty rectangle
    bytes_remaining -= (WIDTH - 1) - page_end;
   d6a7a:	f107 0201 	add.w	r2, r7, #1
  uint8_t first_page = window_y1 / 8;
   d6a7e:	f3c5 05c7 	ubfx	r5, r5, #3, #8
  uint8_t page_start = min(bytes_per_page, (uint8_t)window_x1);
   d6a82:	bf28      	it	cs
   d6a84:	46b9      	movcs	r9, r7
    bytes_remaining -= (WIDTH - 1) - page_end;
   d6a86:	fa52 f383 	uxtab	r3, r2, r3
   d6a8a:	fb05 9a07 	mla	sl, r5, r7, r9
   d6a8e:	9306      	str	r3, [sp, #24]
      uint8_t cmd[] = {
          (uint8_t)(SH110X_SETPAGEADDR + p),
          (uint8_t)(0x10 + ((page_start + _page_start_offset) >> 4)),
          (uint8_t)((page_start + _page_start_offset) & 0xF)};

      digitalWrite(dcPin, LOW);
   d6a90:	f04f 0b00 	mov.w	fp, #0
  for (uint8_t p = first_page; p < pages; p++) {
   d6a94:	9b03      	ldr	r3, [sp, #12]
   d6a96:	429d      	cmp	r5, r3
   d6a98:	d26b      	bcs.n	d6b72 <_ZN15Adafruit_SH110X7displayEv+0x144>
    ptr += page_start;
   d6a9a:	6b63      	ldr	r3, [r4, #52]	; 0x34
    bytes_remaining -= (WIDTH - 1) - page_end;
   d6a9c:	7a26      	ldrb	r6, [r4, #8]
   d6a9e:	f894 2054 	ldrb.w	r2, [r4, #84]	; 0x54
    ptr += page_start;
   d6aa2:	eb03 080a 	add.w	r8, r3, sl
    bytes_remaining -= (WIDTH - 1) - page_end;
   d6aa6:	9b06      	ldr	r3, [sp, #24]
   d6aa8:	444a      	add	r2, r9
   d6aaa:	1b9e      	subs	r6, r3, r6
    if (i2c_dev) { // I2C
   d6aac:	6aa3      	ldr	r3, [r4, #40]	; 0x28
   d6aae:	1111      	asrs	r1, r2, #4
    bytes_remaining -= (WIDTH - 1) - page_end;
   d6ab0:	eba6 0609 	sub.w	r6, r6, r9
   d6ab4:	f1a5 0050 	sub.w	r0, r5, #80	; 0x50
   d6ab8:	b2f6      	uxtb	r6, r6
    if (i2c_dev) { // I2C
   d6aba:	b2c0      	uxtb	r0, r0
   d6abc:	3110      	adds	r1, #16
   d6abe:	f002 020f 	and.w	r2, r2, #15
   d6ac2:	2b00      	cmp	r3, #0
   d6ac4:	d035      	beq.n	d6b32 <_ZN15Adafruit_SH110X7displayEv+0x104>
          (uint8_t)((page_start + _page_start_offset) & 0xF)};
   d6ac6:	f88d 0025 	strb.w	r0, [sp, #37]	; 0x25
   d6aca:	f88d 1026 	strb.w	r1, [sp, #38]	; 0x26
      i2c_dev->setSpeed(i2c_preclk);
   d6ace:	4618      	mov	r0, r3
   d6ad0:	6ae1      	ldr	r1, [r4, #44]	; 0x2c
          (uint8_t)((page_start + _page_start_offset) & 0xF)};
   d6ad2:	f88d 2027 	strb.w	r2, [sp, #39]	; 0x27
      uint8_t cmd[] = {
   d6ad6:	f88d b024 	strb.w	fp, [sp, #36]	; 0x24
      i2c_dev->setSpeed(i2c_preclk);
   d6ada:	f7fe ff32 	bl	d5942 <_ZN18Adafruit_I2CDevice8setSpeedEm>
      i2c_dev->write(cmd, 4);
   d6ade:	2301      	movs	r3, #1
   d6ae0:	e9cd bb00 	strd	fp, fp, [sp]
   d6ae4:	6aa0      	ldr	r0, [r4, #40]	; 0x28
   d6ae6:	2204      	movs	r2, #4
   d6ae8:	a909      	add	r1, sp, #36	; 0x24
   d6aea:	f7fe fea5 	bl	d5838 <_ZN18Adafruit_I2CDevice5writeEPKhjbS1_j>
        uint8_t to_write = min(bytes_remaining, (uint8_t)maxbuff);
   d6aee:	f89d 3010 	ldrb.w	r3, [sp, #16]
   d6af2:	9305      	str	r3, [sp, #20]
      while (bytes_remaining) {
   d6af4:	6aa0      	ldr	r0, [r4, #40]	; 0x28
   d6af6:	b1ae      	cbz	r6, d6b24 <_ZN15Adafruit_SH110X7displayEv+0xf6>
        uint8_t to_write = min(bytes_remaining, (uint8_t)maxbuff);
   d6af8:	9b05      	ldr	r3, [sp, #20]
   d6afa:	42b3      	cmp	r3, r6
   d6afc:	bf28      	it	cs
   d6afe:	4633      	movcs	r3, r6
   d6b00:	461a      	mov	r2, r3
        i2c_dev->write(ptr, to_write, true, &dc_byte, 1);
   d6b02:	2301      	movs	r3, #1
   d6b04:	9301      	str	r3, [sp, #4]
   d6b06:	f10d 0323 	add.w	r3, sp, #35	; 0x23
   d6b0a:	9300      	str	r3, [sp, #0]
   d6b0c:	4641      	mov	r1, r8
   d6b0e:	2301      	movs	r3, #1
   d6b10:	9207      	str	r2, [sp, #28]
   d6b12:	f7fe fe91 	bl	d5838 <_ZN18Adafruit_I2CDevice5writeEPKhjbS1_j>
        ptr += to_write;
   d6b16:	9a07      	ldr	r2, [sp, #28]
        bytes_remaining -= to_write;
   d6b18:	1ab6      	subs	r6, r6, r2
        ptr += to_write;
   d6b1a:	4490      	add	r8, r2
        bytes_remaining -= to_write;
   d6b1c:	b2f6      	uxtb	r6, r6
   d6b1e:	f000 f937 	bl	d6d90 <os_thread_yield>
#endif // PLATFORM_THREADING
}
   d6b22:	e7e7      	b.n	d6af4 <_ZN15Adafruit_SH110X7displayEv+0xc6>
      i2c_dev->setSpeed(i2c_postclk);
   d6b24:	6b21      	ldr	r1, [r4, #48]	; 0x30
   d6b26:	f7fe ff0c 	bl	d5942 <_ZN18Adafruit_I2CDevice8setSpeedEm>
  for (uint8_t p = first_page; p < pages; p++) {
   d6b2a:	3501      	adds	r5, #1
   d6b2c:	b2ed      	uxtb	r5, r5
   d6b2e:	44ba      	add	sl, r7
   d6b30:	e7b0      	b.n	d6a94 <_ZN15Adafruit_SH110X7displayEv+0x66>
          (uint8_t)((page_start + _page_start_offset) & 0xF)};
   d6b32:	f88d 0024 	strb.w	r0, [sp, #36]	; 0x24
   d6b36:	f88d 1025 	strb.w	r1, [sp, #37]	; 0x25
      digitalWrite(dcPin, LOW);
   d6b3a:	f8b4 0040 	ldrh.w	r0, [r4, #64]	; 0x40
          (uint8_t)((page_start + _page_start_offset) & 0xF)};
   d6b3e:	f88d 2026 	strb.w	r2, [sp, #38]	; 0x26
      digitalWrite(dcPin, LOW);
   d6b42:	4619      	mov	r1, r3
   d6b44:	9305      	str	r3, [sp, #20]
   d6b46:	f001 f9ae 	bl	d7ea6 <digitalWrite>
      spi_dev->write(cmd, 3);
   d6b4a:	9b05      	ldr	r3, [sp, #20]
   d6b4c:	9300      	str	r3, [sp, #0]
   d6b4e:	2203      	movs	r2, #3
   d6b50:	a909      	add	r1, sp, #36	; 0x24
   d6b52:	6a60      	ldr	r0, [r4, #36]	; 0x24
   d6b54:	f7fe fe13 	bl	d577e <_ZN18Adafruit_SPIDevice5writeEPhjS0_j>
      digitalWrite(dcPin, HIGH);
   d6b58:	f8b4 0040 	ldrh.w	r0, [r4, #64]	; 0x40
   d6b5c:	2101      	movs	r1, #1
   d6b5e:	f001 f9a2 	bl	d7ea6 <digitalWrite>
      spi_dev->write(ptr, bytes_remaining);
   d6b62:	9b05      	ldr	r3, [sp, #20]
   d6b64:	6a60      	ldr	r0, [r4, #36]	; 0x24
   d6b66:	9300      	str	r3, [sp, #0]
   d6b68:	4632      	mov	r2, r6
   d6b6a:	4641      	mov	r1, r8
   d6b6c:	f7fe fe07 	bl	d577e <_ZN18Adafruit_SPIDevice5writeEPhjS0_j>
   d6b70:	e7db      	b.n	d6b2a <_ZN15Adafruit_SH110X7displayEv+0xfc>
    }
  }
  // reset dirty window
  window_x1 = 1024;
  window_y1 = 1024;
  window_x2 = -1;
   d6b72:	f04f 2204 	mov.w	r2, #67109888	; 0x4000400
   d6b76:	f04f 33ff 	mov.w	r3, #4294967295
   d6b7a:	e9c4 230e 	strd	r2, r3, [r4, #56]	; 0x38
  window_y2 = -1;
}
   d6b7e:	b00b      	add	sp, #44	; 0x2c
   d6b80:	e8bd 8ff0 	ldmia.w	sp!, {r4, r5, r6, r7, r8, r9, sl, fp, pc}

000d6b84 <_ZN15Adafruit_SH110XC1EttP7TwoWireamm>:
Adafruit_SH110X::Adafruit_SH110X(uint16_t w, uint16_t h, TwoWire *twi,
   d6b84:	b530      	push	{r4, r5, lr}
   d6b86:	b085      	sub	sp, #20
   d6b88:	4604      	mov	r4, r0
    : Adafruit_GrayOLED(1, w, h, twi, rst_pin, clkDuring, clkAfter) {}
   d6b8a:	9d0a      	ldr	r5, [sp, #40]	; 0x28
   d6b8c:	9503      	str	r5, [sp, #12]
   d6b8e:	9d09      	ldr	r5, [sp, #36]	; 0x24
   d6b90:	9502      	str	r5, [sp, #8]
   d6b92:	f99d 5020 	ldrsb.w	r5, [sp, #32]
   d6b96:	e9cd 3500 	strd	r3, r5, [sp]
   d6b9a:	4613      	mov	r3, r2
   d6b9c:	460a      	mov	r2, r1
   d6b9e:	2101      	movs	r1, #1
   d6ba0:	f7ff fa48 	bl	d6034 <_ZN17Adafruit_GrayOLEDC1EhttP7TwoWireamm>
   d6ba4:	4b03      	ldr	r3, [pc, #12]	; (d6bb4 <_ZN15Adafruit_SH110XC1EttP7TwoWireamm+0x30>)
   d6ba6:	6023      	str	r3, [r4, #0]
   d6ba8:	4620      	mov	r0, r4
   d6baa:	2300      	movs	r3, #0
   d6bac:	f884 3054 	strb.w	r3, [r4, #84]	; 0x54
   d6bb0:	b005      	add	sp, #20
   d6bb2:	bd30      	pop	{r4, r5, pc}
   d6bb4:	000dae10 	.word	0x000dae10

000d6bb8 <_ZN15Adafruit_SH110XD1Ev>:
Adafruit_SH110X::~Adafruit_SH110X(void) {}
   d6bb8:	b510      	push	{r4, lr}
   d6bba:	4b03      	ldr	r3, [pc, #12]	; (d6bc8 <_ZN15Adafruit_SH110XD1Ev+0x10>)
   d6bbc:	6003      	str	r3, [r0, #0]
   d6bbe:	4604      	mov	r4, r0
   d6bc0:	f7ff fa5a 	bl	d6078 <_ZN17Adafruit_GrayOLEDD1Ev>
   d6bc4:	4620      	mov	r0, r4
   d6bc6:	bd10      	pop	{r4, pc}
   d6bc8:	000dae10 	.word	0x000dae10

000d6bcc <_ZN15Adafruit_SH1107D1Ev>:
    : Adafruit_SH110X(w, h, spi, dc_pin, rst_pin, cs_pin, bitrate) {}

/*!
    @brief  Destructor for Adafruit_SH1107 object.
*/
Adafruit_SH1107::~Adafruit_SH1107(void) {}
   d6bcc:	b510      	push	{r4, lr}
   d6bce:	4b03      	ldr	r3, [pc, #12]	; (d6bdc <_ZN15Adafruit_SH1107D1Ev+0x10>)
   d6bd0:	6003      	str	r3, [r0, #0]
   d6bd2:	4604      	mov	r4, r0
   d6bd4:	f7ff fff0 	bl	d6bb8 <_ZN15Adafruit_SH110XD1Ev>
   d6bd8:	4620      	mov	r0, r4
   d6bda:	bd10      	pop	{r4, pc}
   d6bdc:	000db04c 	.word	0x000db04c

000d6be0 <_ZN15Adafruit_SH1107D0Ev>:
   d6be0:	b510      	push	{r4, lr}
   d6be2:	4604      	mov	r4, r0
   d6be4:	f7ff fff2 	bl	d6bcc <_ZN15Adafruit_SH1107D1Ev>
   d6be8:	4620      	mov	r0, r4
   d6bea:	2158      	movs	r1, #88	; 0x58
   d6bec:	f001 f9c4 	bl	d7f78 <_ZdlPvj>
   d6bf0:	4620      	mov	r0, r4
   d6bf2:	bd10      	pop	{r4, pc}

000d6bf4 <_ZN15Adafruit_SH1107C1EttP7TwoWireamm>:
Adafruit_SH1107::Adafruit_SH1107(uint16_t w, uint16_t h, TwoWire *twi,
   d6bf4:	b530      	push	{r4, r5, lr}
   d6bf6:	b085      	sub	sp, #20
   d6bf8:	4604      	mov	r4, r0
    : Adafruit_SH110X(w, h, twi, rst_pin, clkDuring, clkAfter) {}
   d6bfa:	9d0a      	ldr	r5, [sp, #40]	; 0x28
   d6bfc:	9502      	str	r5, [sp, #8]
   d6bfe:	9d09      	ldr	r5, [sp, #36]	; 0x24
   d6c00:	9501      	str	r5, [sp, #4]
   d6c02:	f99d 5020 	ldrsb.w	r5, [sp, #32]
   d6c06:	9500      	str	r5, [sp, #0]
   d6c08:	f7ff ffbc 	bl	d6b84 <_ZN15Adafruit_SH110XC1EttP7TwoWireamm>
   d6c0c:	4b02      	ldr	r3, [pc, #8]	; (d6c18 <_ZN15Adafruit_SH1107C1EttP7TwoWireamm+0x24>)
   d6c0e:	6023      	str	r3, [r4, #0]
   d6c10:	4620      	mov	r0, r4
   d6c12:	b005      	add	sp, #20
   d6c14:	bd30      	pop	{r4, r5, pc}
   d6c16:	bf00      	nop
   d6c18:	000db04c 	.word	0x000db04c

000d6c1c <_ZN15Adafruit_SH11075beginEhb>:
    @return true on successful allocation/init, false otherwise.
            Well-behaved code should check the return value before
            proceeding.
    @note   MUST call this function before any drawing or updates!
*/
bool Adafruit_SH1107::begin(uint8_t addr, bool reset) {
   d6c1c:	b530      	push	{r4, r5, lr}
   d6c1e:	4604      	mov	r4, r0
   d6c20:	b085      	sub	sp, #20

  Adafruit_GrayOLED::_init(addr, reset);
   d6c22:	f7ff faad 	bl	d6180 <_ZN17Adafruit_GrayOLED5_initEhb>

  setContrast(0x2F);
   d6c26:	212f      	movs	r1, #47	; 0x2f
   d6c28:	4620      	mov	r0, r4
   d6c2a:	f7ff fb12 	bl	d6252 <_ZN17Adafruit_GrayOLED11setContrastEh>

  // the featherwing with 128x64 oled is 'rotated' so to make the splash right,
  // rotate!
  if (WIDTH == 64 && HEIGHT == 128) {
   d6c2e:	68a2      	ldr	r2, [r4, #8]
   d6c30:	4b2f      	ldr	r3, [pc, #188]	; (d6cf0 <_ZN15Adafruit_SH11075beginEhb+0xd4>)
   d6c32:	429a      	cmp	r2, r3
   d6c34:	d121      	bne.n	d6c7a <_ZN15Adafruit_SH11075beginEhb+0x5e>
    setRotation(1);
   d6c36:	6823      	ldr	r3, [r4, #0]
   d6c38:	2101      	movs	r1, #1
   d6c3a:	6b1b      	ldr	r3, [r3, #48]	; 0x30
   d6c3c:	4620      	mov	r0, r4
   d6c3e:	4798      	blx	r3
    drawBitmap((HEIGHT - splash2_width) / 2, (WIDTH - splash2_height) / 2,
   d6c40:	f9b4 2008 	ldrsh.w	r2, [r4, #8]
   d6c44:	f9b4 100a 	ldrsh.w	r1, [r4, #10]
   d6c48:	2320      	movs	r3, #32
   d6c4a:	3a20      	subs	r2, #32
   d6c4c:	3973      	subs	r1, #115	; 0x73
   d6c4e:	2501      	movs	r5, #1
   d6c50:	e9cd 3501 	strd	r3, r5, [sp, #4]
   d6c54:	eb02 72d2 	add.w	r2, r2, r2, lsr #31
   d6c58:	2373      	movs	r3, #115	; 0x73
   d6c5a:	eb01 71d1 	add.w	r1, r1, r1, lsr #31
   d6c5e:	9300      	str	r3, [sp, #0]
   d6c60:	f341 014f 	sbfx	r1, r1, #1, #16
   d6c64:	4b23      	ldr	r3, [pc, #140]	; (d6cf4 <_ZN15Adafruit_SH11075beginEhb+0xd8>)
   d6c66:	4620      	mov	r0, r4
   d6c68:	f342 024f 	sbfx	r2, r2, #1, #16
   d6c6c:	f7ff fc96 	bl	d659c <_ZN12Adafruit_GFX10drawBitmapEssPKhsst>
               splash2_data, splash2_width, splash2_height, 1);
    setRotation(0);
   d6c70:	6823      	ldr	r3, [r4, #0]
   d6c72:	2100      	movs	r1, #0
   d6c74:	6b1b      	ldr	r3, [r3, #48]	; 0x30
   d6c76:	4620      	mov	r0, r4
   d6c78:	4798      	blx	r3
  }
  if (WIDTH == 128 && HEIGHT == 128) {
   d6c7a:	68a3      	ldr	r3, [r4, #8]
   d6c7c:	f1b3 1f80 	cmp.w	r3, #8388736	; 0x800080
   d6c80:	d117      	bne.n	d6cb2 <_ZN15Adafruit_SH11075beginEhb+0x96>
    drawBitmap((HEIGHT - splash2_width) / 2, (WIDTH - splash2_height) / 2,
   d6c82:	f9b4 2008 	ldrsh.w	r2, [r4, #8]
   d6c86:	f9b4 100a 	ldrsh.w	r1, [r4, #10]
   d6c8a:	2320      	movs	r3, #32
   d6c8c:	2001      	movs	r0, #1
   d6c8e:	3a20      	subs	r2, #32
   d6c90:	3973      	subs	r1, #115	; 0x73
   d6c92:	e9cd 3001 	strd	r3, r0, [sp, #4]
   d6c96:	eb02 72d2 	add.w	r2, r2, r2, lsr #31
   d6c9a:	2373      	movs	r3, #115	; 0x73
   d6c9c:	eb01 71d1 	add.w	r1, r1, r1, lsr #31
   d6ca0:	9300      	str	r3, [sp, #0]
   d6ca2:	f342 024f 	sbfx	r2, r2, #1, #16
   d6ca6:	4b13      	ldr	r3, [pc, #76]	; (d6cf4 <_ZN15Adafruit_SH11075beginEhb+0xd8>)
   d6ca8:	f341 014f 	sbfx	r1, r1, #1, #16
   d6cac:	4620      	mov	r0, r4
   d6cae:	f7ff fc75 	bl	d659c <_ZN12Adafruit_GFX10drawBitmapEssPKhsst>
      SH110X_DISPLAYALLON_RESUME, // 0xa4
      SH110X_NORMALDISPLAY,       // 0xa6
  };
  // clang-format on

  if (!oled_commandList(init, sizeof(init))) {
   d6cb2:	4911      	ldr	r1, [pc, #68]	; (d6cf8 <_ZN15Adafruit_SH11075beginEhb+0xdc>)
   d6cb4:	2216      	movs	r2, #22
   d6cb6:	4620      	mov	r0, r4
   d6cb8:	f7ff fa25 	bl	d6106 <_ZN17Adafruit_GrayOLED16oled_commandListEPKhh>
   d6cbc:	4605      	mov	r5, r0
   d6cbe:	b918      	cbnz	r0, d6cc8 <_ZN15Adafruit_SH11075beginEhb+0xac>
    return false;
   d6cc0:	2500      	movs	r5, #0

  delay(100);                     // 100ms delay recommended
  oled_command(SH110X_DISPLAYON); // 0xaf

  return true; // Success
}
   d6cc2:	4628      	mov	r0, r5
   d6cc4:	b005      	add	sp, #20
   d6cc6:	bd30      	pop	{r4, r5, pc}
  if (WIDTH == 128 && HEIGHT == 128) {
   d6cc8:	68a3      	ldr	r3, [r4, #8]
   d6cca:	f1b3 1f80 	cmp.w	r3, #8388736	; 0x800080
   d6cce:	d007      	beq.n	d6ce0 <_ZN15Adafruit_SH11075beginEhb+0xc4>
  delay(100);                     // 100ms delay recommended
   d6cd0:	2064      	movs	r0, #100	; 0x64
   d6cd2:	f000 fd03 	bl	d76dc <delay>
  oled_command(SH110X_DISPLAYON); // 0xaf
   d6cd6:	21af      	movs	r1, #175	; 0xaf
   d6cd8:	4620      	mov	r0, r4
   d6cda:	f7ff f9e9 	bl	d60b0 <_ZN17Adafruit_GrayOLED12oled_commandEh>
  return true; // Success
   d6cde:	e7f0      	b.n	d6cc2 <_ZN15Adafruit_SH11075beginEhb+0xa6>
    if (!oled_commandList(init_128x128, sizeof(init_128x128))) {
   d6ce0:	4906      	ldr	r1, [pc, #24]	; (d6cfc <_ZN15Adafruit_SH11075beginEhb+0xe0>)
   d6ce2:	2204      	movs	r2, #4
   d6ce4:	4620      	mov	r0, r4
   d6ce6:	f7ff fa0e 	bl	d6106 <_ZN17Adafruit_GrayOLED16oled_commandListEPKhh>
   d6cea:	2800      	cmp	r0, #0
   d6cec:	d1f0      	bne.n	d6cd0 <_ZN15Adafruit_SH11075beginEhb+0xb4>
   d6cee:	e7e7      	b.n	d6cc0 <_ZN15Adafruit_SH11075beginEhb+0xa4>
   d6cf0:	00800040 	.word	0x00800040
   d6cf4:	000dae64 	.word	0x000dae64
   d6cf8:	000db0a4 	.word	0x000db0a4
   d6cfc:	000db0a0 	.word	0x000db0a0

000d6d00 <netdb_freeaddrinfo>:

DYNALIB_BEGIN(hal_netdb)

DYNALIB_FN(0, hal_netdb, netdb_gethostbyname, struct hostent*(const char*))
DYNALIB_FN(1, hal_netdb, netdb_gethostbyname_r, int(const char*, struct hostent*, char*, size_t, struct hostent**, int*))
DYNALIB_FN(2, hal_netdb, netdb_freeaddrinfo, void(struct addrinfo*))
   d6d00:	b508      	push	{r3, lr}
   d6d02:	4b02      	ldr	r3, [pc, #8]	; (d6d0c <netdb_freeaddrinfo+0xc>)
   d6d04:	681b      	ldr	r3, [r3, #0]
   d6d06:	689b      	ldr	r3, [r3, #8]
   d6d08:	9301      	str	r3, [sp, #4]
   d6d0a:	bd08      	pop	{r3, pc}
   d6d0c:	00030268 	.word	0x00030268

000d6d10 <netdb_getaddrinfo>:
DYNALIB_FN(3, hal_netdb, netdb_getaddrinfo, int(const char*, const char*, const struct addrinfo*, struct addrinfo**))
   d6d10:	b508      	push	{r3, lr}
   d6d12:	4b02      	ldr	r3, [pc, #8]	; (d6d1c <netdb_getaddrinfo+0xc>)
   d6d14:	681b      	ldr	r3, [r3, #0]
   d6d16:	68db      	ldr	r3, [r3, #12]
   d6d18:	9301      	str	r3, [sp, #4]
   d6d1a:	bd08      	pop	{r3, pc}
   d6d1c:	00030268 	.word	0x00030268

000d6d20 <HAL_Pin_Mode>:

DYNALIB_BEGIN(hal_gpio)

DYNALIB_FN(0, hal_gpio, HAL_Pin_Map, Hal_Pin_Info*(void))
DYNALIB_FN(1, hal_gpio, HAL_Validate_Pin_Function, PinFunction(pin_t, PinFunction))
DYNALIB_FN(2, hal_gpio, HAL_Pin_Mode, void(pin_t, PinMode))
   d6d20:	b508      	push	{r3, lr}
   d6d22:	4b02      	ldr	r3, [pc, #8]	; (d6d2c <HAL_Pin_Mode+0xc>)
   d6d24:	681b      	ldr	r3, [r3, #0]
   d6d26:	689b      	ldr	r3, [r3, #8]
   d6d28:	9301      	str	r3, [sp, #4]
   d6d2a:	bd08      	pop	{r3, pc}
   d6d2c:	0003022c 	.word	0x0003022c

000d6d30 <HAL_Get_Pin_Mode>:
DYNALIB_FN(3, hal_gpio, HAL_Get_Pin_Mode, PinMode(pin_t))
   d6d30:	b508      	push	{r3, lr}
   d6d32:	4b02      	ldr	r3, [pc, #8]	; (d6d3c <HAL_Get_Pin_Mode+0xc>)
   d6d34:	681b      	ldr	r3, [r3, #0]
   d6d36:	68db      	ldr	r3, [r3, #12]
   d6d38:	9301      	str	r3, [sp, #4]
   d6d3a:	bd08      	pop	{r3, pc}
   d6d3c:	0003022c 	.word	0x0003022c

000d6d40 <HAL_GPIO_Write>:
DYNALIB_FN(4, hal_gpio, HAL_GPIO_Write, void(pin_t, uint8_t))
   d6d40:	b508      	push	{r3, lr}
   d6d42:	4b02      	ldr	r3, [pc, #8]	; (d6d4c <HAL_GPIO_Write+0xc>)
   d6d44:	681b      	ldr	r3, [r3, #0]
   d6d46:	691b      	ldr	r3, [r3, #16]
   d6d48:	9301      	str	r3, [sp, #4]
   d6d4a:	bd08      	pop	{r3, pc}
   d6d4c:	0003022c 	.word	0x0003022c

000d6d50 <HAL_GPIO_Read>:
DYNALIB_FN(5, hal_gpio, HAL_GPIO_Read, int32_t(pin_t))
   d6d50:	b508      	push	{r3, lr}
   d6d52:	4b02      	ldr	r3, [pc, #8]	; (d6d5c <HAL_GPIO_Read+0xc>)
   d6d54:	681b      	ldr	r3, [r3, #0]
   d6d56:	695b      	ldr	r3, [r3, #20]
   d6d58:	9301      	str	r3, [sp, #4]
   d6d5a:	bd08      	pop	{r3, pc}
   d6d5c:	0003022c 	.word	0x0003022c

000d6d60 <HAL_RNG_GetRandomNumber>:

DYNALIB_BEGIN(hal)

#if PLATFORM_ID > 3
DYNALIB_FN(0, hal, HAL_RNG_Configuration, void(void))
DYNALIB_FN(1, hal, HAL_RNG_GetRandomNumber, uint32_t(void))
   d6d60:	b508      	push	{r3, lr}
   d6d62:	4b02      	ldr	r3, [pc, #8]	; (d6d6c <HAL_RNG_GetRandomNumber+0xc>)
   d6d64:	681b      	ldr	r3, [r3, #0]
   d6d66:	685b      	ldr	r3, [r3, #4]
   d6d68:	9301      	str	r3, [sp, #4]
   d6d6a:	bd08      	pop	{r3, pc}
   d6d6c:	00030218 	.word	0x00030218

000d6d70 <HAL_Delay_Microseconds>:
#else
#define BASE_IDX 0
#endif

DYNALIB_FN(BASE_IDX + 0, hal, HAL_Delay_Milliseconds, void(uint32_t))
DYNALIB_FN(BASE_IDX + 1, hal, HAL_Delay_Microseconds, void(uint32_t))
   d6d70:	b508      	push	{r3, lr}
   d6d72:	4b02      	ldr	r3, [pc, #8]	; (d6d7c <HAL_Delay_Microseconds+0xc>)
   d6d74:	681b      	ldr	r3, [r3, #0]
   d6d76:	68db      	ldr	r3, [r3, #12]
   d6d78:	9301      	str	r3, [sp, #4]
   d6d7a:	bd08      	pop	{r3, pc}
   d6d7c:	00030218 	.word	0x00030218

000d6d80 <HAL_Timer_Get_Milli_Seconds>:
DYNALIB_FN(BASE_IDX + 2, hal, HAL_Timer_Get_Micro_Seconds, system_tick_t(void))
DYNALIB_FN(BASE_IDX + 3, hal, HAL_Timer_Get_Milli_Seconds, system_tick_t(void))
   d6d80:	b508      	push	{r3, lr}
   d6d82:	4b02      	ldr	r3, [pc, #8]	; (d6d8c <HAL_Timer_Get_Milli_Seconds+0xc>)
   d6d84:	681b      	ldr	r3, [r3, #0]
   d6d86:	695b      	ldr	r3, [r3, #20]
   d6d88:	9301      	str	r3, [sp, #4]
   d6d8a:	bd08      	pop	{r3, pc}
   d6d8c:	00030218 	.word	0x00030218

000d6d90 <os_thread_yield>:

#if PLATFORM_THREADING
DYNALIB_FN(0, hal_concurrent, __gthread_equal, bool(__gthread_t, __gthread_t))
DYNALIB_FN(1, hal_concurrent, os_thread_create, os_result_t(os_thread_t*, const char*, os_thread_prio_t, os_thread_fn_t, void*, size_t))
DYNALIB_FN(2, hal_concurrent, os_thread_is_current, bool(os_thread_t))
DYNALIB_FN(3, hal_concurrent, os_thread_yield, os_result_t(void))
   d6d90:	b508      	push	{r3, lr}
   d6d92:	4b02      	ldr	r3, [pc, #8]	; (d6d9c <os_thread_yield+0xc>)
   d6d94:	681b      	ldr	r3, [r3, #0]
   d6d96:	68db      	ldr	r3, [r3, #12]
   d6d98:	9301      	str	r3, [sp, #4]
   d6d9a:	bd08      	pop	{r3, pc}
   d6d9c:	00030248 	.word	0x00030248

000d6da0 <os_mutex_recursive_create>:
DYNALIB_FN(13, hal_concurrent, os_mutex_destroy, int(os_mutex_t))
DYNALIB_FN(14, hal_concurrent, os_mutex_lock, int(os_mutex_t))
DYNALIB_FN(15, hal_concurrent, os_mutex_trylock, int(os_mutex_t))
DYNALIB_FN(16, hal_concurrent, os_mutex_unlock, int(os_mutex_t))

DYNALIB_FN(17, hal_concurrent, os_mutex_recursive_create, int(os_mutex_recursive_t*))
   d6da0:	b508      	push	{r3, lr}
   d6da2:	4b02      	ldr	r3, [pc, #8]	; (d6dac <os_mutex_recursive_create+0xc>)
   d6da4:	681b      	ldr	r3, [r3, #0]
   d6da6:	6c5b      	ldr	r3, [r3, #68]	; 0x44
   d6da8:	9301      	str	r3, [sp, #4]
   d6daa:	bd08      	pop	{r3, pc}
   d6dac:	00030248 	.word	0x00030248

000d6db0 <inet_inet_ntop>:
DYNALIB_FN(0, hal_inet, inet_inet_addr, in_addr_t(const char*))
DYNALIB_FN(1, hal_inet, inet_inet_aton, int(const char*, struct in_addr*))
DYNALIB_FN(2, hal_inet, inet_inet_network, in_addr_t(const char*))
DYNALIB_FN(3, hal_inet, inet_inet_ntoa, char*(struct in_addr))
DYNALIB_FN(4, hal_inet, inet_inet_ntoa_r, char*(struct in_addr, char*, socklen_t))
DYNALIB_FN(5, hal_inet, inet_inet_ntop, const char*(int, const void*, char*, socklen_t))
   d6db0:	b508      	push	{r3, lr}
   d6db2:	4b02      	ldr	r3, [pc, #8]	; (d6dbc <inet_inet_ntop+0xc>)
   d6db4:	681b      	ldr	r3, [r3, #0]
   d6db6:	695b      	ldr	r3, [r3, #20]
   d6db8:	9301      	str	r3, [sp, #4]
   d6dba:	bd08      	pop	{r3, pc}
   d6dbc:	00030264 	.word	0x00030264

000d6dc0 <hal_usart_init>:
#define BASE_IDX 6 // Base index for all subsequent functions
#else
#define BASE_IDX 0
#endif

DYNALIB_FN(BASE_IDX + 0, hal_usart, hal_usart_init, void(hal_usart_interface_t, hal_usart_ring_buffer_t*, hal_usart_ring_buffer_t*))
   d6dc0:	b508      	push	{r3, lr}
   d6dc2:	4b02      	ldr	r3, [pc, #8]	; (d6dcc <hal_usart_init+0xc>)
   d6dc4:	681b      	ldr	r3, [r3, #0]
   d6dc6:	681b      	ldr	r3, [r3, #0]
   d6dc8:	9301      	str	r3, [sp, #4]
   d6dca:	bd08      	pop	{r3, pc}
   d6dcc:	0003023c 	.word	0x0003023c

000d6dd0 <hal_usart_write>:
DYNALIB_FN(BASE_IDX + 1, hal_usart, hal_usart_begin, void(hal_usart_interface_t, uint32_t))
DYNALIB_FN(BASE_IDX + 2, hal_usart, hal_usart_end, void(hal_usart_interface_t))
DYNALIB_FN(BASE_IDX + 3, hal_usart, hal_usart_write, uint32_t(hal_usart_interface_t, uint8_t))
   d6dd0:	b508      	push	{r3, lr}
   d6dd2:	4b02      	ldr	r3, [pc, #8]	; (d6ddc <hal_usart_write+0xc>)
   d6dd4:	681b      	ldr	r3, [r3, #0]
   d6dd6:	68db      	ldr	r3, [r3, #12]
   d6dd8:	9301      	str	r3, [sp, #4]
   d6dda:	bd08      	pop	{r3, pc}
   d6ddc:	0003023c 	.word	0x0003023c

000d6de0 <hal_usart_available>:
DYNALIB_FN(BASE_IDX + 4, hal_usart, hal_usart_available, int32_t(hal_usart_interface_t))
   d6de0:	b508      	push	{r3, lr}
   d6de2:	4b02      	ldr	r3, [pc, #8]	; (d6dec <hal_usart_available+0xc>)
   d6de4:	681b      	ldr	r3, [r3, #0]
   d6de6:	691b      	ldr	r3, [r3, #16]
   d6de8:	9301      	str	r3, [sp, #4]
   d6dea:	bd08      	pop	{r3, pc}
   d6dec:	0003023c 	.word	0x0003023c

000d6df0 <hal_usart_read>:
DYNALIB_FN(BASE_IDX + 5, hal_usart, hal_usart_read, int32_t(hal_usart_interface_t))
   d6df0:	b508      	push	{r3, lr}
   d6df2:	4b02      	ldr	r3, [pc, #8]	; (d6dfc <hal_usart_read+0xc>)
   d6df4:	681b      	ldr	r3, [r3, #0]
   d6df6:	695b      	ldr	r3, [r3, #20]
   d6df8:	9301      	str	r3, [sp, #4]
   d6dfa:	bd08      	pop	{r3, pc}
   d6dfc:	0003023c 	.word	0x0003023c

000d6e00 <hal_usart_peek>:
DYNALIB_FN(BASE_IDX + 6, hal_usart, hal_usart_peek, int32_t(hal_usart_interface_t))
   d6e00:	b508      	push	{r3, lr}
   d6e02:	4b02      	ldr	r3, [pc, #8]	; (d6e0c <hal_usart_peek+0xc>)
   d6e04:	681b      	ldr	r3, [r3, #0]
   d6e06:	699b      	ldr	r3, [r3, #24]
   d6e08:	9301      	str	r3, [sp, #4]
   d6e0a:	bd08      	pop	{r3, pc}
   d6e0c:	0003023c 	.word	0x0003023c

000d6e10 <hal_usart_flush>:
DYNALIB_FN(BASE_IDX + 7, hal_usart, hal_usart_flush, void(hal_usart_interface_t))
   d6e10:	b508      	push	{r3, lr}
   d6e12:	4b02      	ldr	r3, [pc, #8]	; (d6e1c <hal_usart_flush+0xc>)
   d6e14:	681b      	ldr	r3, [r3, #0]
   d6e16:	69db      	ldr	r3, [r3, #28]
   d6e18:	9301      	str	r3, [sp, #4]
   d6e1a:	bd08      	pop	{r3, pc}
   d6e1c:	0003023c 	.word	0x0003023c

000d6e20 <hal_usart_is_enabled>:
DYNALIB_FN(BASE_IDX + 8, hal_usart, hal_usart_is_enabled, bool(hal_usart_interface_t))
   d6e20:	b508      	push	{r3, lr}
   d6e22:	4b02      	ldr	r3, [pc, #8]	; (d6e2c <hal_usart_is_enabled+0xc>)
   d6e24:	681b      	ldr	r3, [r3, #0]
   d6e26:	6a1b      	ldr	r3, [r3, #32]
   d6e28:	9301      	str	r3, [sp, #4]
   d6e2a:	bd08      	pop	{r3, pc}
   d6e2c:	0003023c 	.word	0x0003023c

000d6e30 <hal_usart_available_data_for_write>:
DYNALIB_FN(BASE_IDX + 9, hal_usart, hal_usart_half_duplex, void(hal_usart_interface_t, bool))
DYNALIB_FN(BASE_IDX + 10, hal_usart, hal_usart_available_data_for_write, int32_t(hal_usart_interface_t))
   d6e30:	b508      	push	{r3, lr}
   d6e32:	4b02      	ldr	r3, [pc, #8]	; (d6e3c <hal_usart_available_data_for_write+0xc>)
   d6e34:	681b      	ldr	r3, [r3, #0]
   d6e36:	6a9b      	ldr	r3, [r3, #40]	; 0x28
   d6e38:	9301      	str	r3, [sp, #4]
   d6e3a:	bd08      	pop	{r3, pc}
   d6e3c:	0003023c 	.word	0x0003023c

000d6e40 <hal_i2c_set_speed>:
#define BASE_IDX 16 // Base index for all subsequent functions
#else
#define BASE_IDX 0
#endif

DYNALIB_FN(BASE_IDX + 0, hal_i2c, hal_i2c_set_speed, void(hal_i2c_interface_t, uint32_t, void*))
   d6e40:	b508      	push	{r3, lr}
   d6e42:	4b02      	ldr	r3, [pc, #8]	; (d6e4c <hal_i2c_set_speed+0xc>)
   d6e44:	681b      	ldr	r3, [r3, #0]
   d6e46:	681b      	ldr	r3, [r3, #0]
   d6e48:	9301      	str	r3, [sp, #4]
   d6e4a:	bd08      	pop	{r3, pc}
   d6e4c:	00030228 	.word	0x00030228

000d6e50 <hal_i2c_begin>:
DYNALIB_FN(BASE_IDX + 1, hal_i2c, hal_i2c_enable_dma_mode, void(hal_i2c_interface_t, bool, void*))
DYNALIB_FN(BASE_IDX + 2, hal_i2c, hal_i2c_stretch_clock, void(hal_i2c_interface_t, bool, void*))
DYNALIB_FN(BASE_IDX + 3, hal_i2c, hal_i2c_begin, void(hal_i2c_interface_t, hal_i2c_mode_t, uint8_t, void*))
   d6e50:	b508      	push	{r3, lr}
   d6e52:	4b02      	ldr	r3, [pc, #8]	; (d6e5c <hal_i2c_begin+0xc>)
   d6e54:	681b      	ldr	r3, [r3, #0]
   d6e56:	68db      	ldr	r3, [r3, #12]
   d6e58:	9301      	str	r3, [sp, #4]
   d6e5a:	bd08      	pop	{r3, pc}
   d6e5c:	00030228 	.word	0x00030228

000d6e60 <hal_i2c_begin_transmission>:
DYNALIB_FN(BASE_IDX + 4, hal_i2c, hal_i2c_end, void(hal_i2c_interface_t, void*))
DYNALIB_FN(BASE_IDX + 5, hal_i2c, hal_i2c_request, uint32_t(hal_i2c_interface_t, uint8_t, uint8_t, uint8_t, void*))
DYNALIB_FN(BASE_IDX + 6, hal_i2c, hal_i2c_begin_transmission, void(hal_i2c_interface_t, uint8_t, const hal_i2c_transmission_config_t*))
   d6e60:	b508      	push	{r3, lr}
   d6e62:	4b02      	ldr	r3, [pc, #8]	; (d6e6c <hal_i2c_begin_transmission+0xc>)
   d6e64:	681b      	ldr	r3, [r3, #0]
   d6e66:	699b      	ldr	r3, [r3, #24]
   d6e68:	9301      	str	r3, [sp, #4]
   d6e6a:	bd08      	pop	{r3, pc}
   d6e6c:	00030228 	.word	0x00030228

000d6e70 <hal_i2c_end_transmission>:
DYNALIB_FN(BASE_IDX + 7, hal_i2c, hal_i2c_end_transmission, uint8_t(hal_i2c_interface_t, uint8_t, void*))
   d6e70:	b508      	push	{r3, lr}
   d6e72:	4b02      	ldr	r3, [pc, #8]	; (d6e7c <hal_i2c_end_transmission+0xc>)
   d6e74:	681b      	ldr	r3, [r3, #0]
   d6e76:	69db      	ldr	r3, [r3, #28]
   d6e78:	9301      	str	r3, [sp, #4]
   d6e7a:	bd08      	pop	{r3, pc}
   d6e7c:	00030228 	.word	0x00030228

000d6e80 <hal_i2c_write>:
DYNALIB_FN(BASE_IDX + 8, hal_i2c, hal_i2c_write, uint32_t(hal_i2c_interface_t, uint8_t, void*))
   d6e80:	b508      	push	{r3, lr}
   d6e82:	4b02      	ldr	r3, [pc, #8]	; (d6e8c <hal_i2c_write+0xc>)
   d6e84:	681b      	ldr	r3, [r3, #0]
   d6e86:	6a1b      	ldr	r3, [r3, #32]
   d6e88:	9301      	str	r3, [sp, #4]
   d6e8a:	bd08      	pop	{r3, pc}
   d6e8c:	00030228 	.word	0x00030228

000d6e90 <hal_i2c_available>:
DYNALIB_FN(BASE_IDX + 9, hal_i2c, hal_i2c_available, int32_t(hal_i2c_interface_t, void*))
   d6e90:	b508      	push	{r3, lr}
   d6e92:	4b02      	ldr	r3, [pc, #8]	; (d6e9c <hal_i2c_available+0xc>)
   d6e94:	681b      	ldr	r3, [r3, #0]
   d6e96:	6a5b      	ldr	r3, [r3, #36]	; 0x24
   d6e98:	9301      	str	r3, [sp, #4]
   d6e9a:	bd08      	pop	{r3, pc}
   d6e9c:	00030228 	.word	0x00030228

000d6ea0 <hal_i2c_read>:
DYNALIB_FN(BASE_IDX + 10, hal_i2c, hal_i2c_read, int32_t(hal_i2c_interface_t, void*))
   d6ea0:	b508      	push	{r3, lr}
   d6ea2:	4b02      	ldr	r3, [pc, #8]	; (d6eac <hal_i2c_read+0xc>)
   d6ea4:	681b      	ldr	r3, [r3, #0]
   d6ea6:	6a9b      	ldr	r3, [r3, #40]	; 0x28
   d6ea8:	9301      	str	r3, [sp, #4]
   d6eaa:	bd08      	pop	{r3, pc}
   d6eac:	00030228 	.word	0x00030228

000d6eb0 <hal_i2c_peek>:
DYNALIB_FN(BASE_IDX + 11, hal_i2c, hal_i2c_peek, int32_t(hal_i2c_interface_t, void*))
   d6eb0:	b508      	push	{r3, lr}
   d6eb2:	4b02      	ldr	r3, [pc, #8]	; (d6ebc <hal_i2c_peek+0xc>)
   d6eb4:	681b      	ldr	r3, [r3, #0]
   d6eb6:	6adb      	ldr	r3, [r3, #44]	; 0x2c
   d6eb8:	9301      	str	r3, [sp, #4]
   d6eba:	bd08      	pop	{r3, pc}
   d6ebc:	00030228 	.word	0x00030228

000d6ec0 <hal_i2c_flush>:
DYNALIB_FN(BASE_IDX + 12, hal_i2c, hal_i2c_flush, void(hal_i2c_interface_t, void*))
   d6ec0:	b508      	push	{r3, lr}
   d6ec2:	4b02      	ldr	r3, [pc, #8]	; (d6ecc <hal_i2c_flush+0xc>)
   d6ec4:	681b      	ldr	r3, [r3, #0]
   d6ec6:	6b1b      	ldr	r3, [r3, #48]	; 0x30
   d6ec8:	9301      	str	r3, [sp, #4]
   d6eca:	bd08      	pop	{r3, pc}
   d6ecc:	00030228 	.word	0x00030228

000d6ed0 <hal_i2c_is_enabled>:
DYNALIB_FN(BASE_IDX + 13, hal_i2c, hal_i2c_is_enabled, bool(hal_i2c_interface_t, void*))
   d6ed0:	b508      	push	{r3, lr}
   d6ed2:	4b02      	ldr	r3, [pc, #8]	; (d6edc <hal_i2c_is_enabled+0xc>)
   d6ed4:	681b      	ldr	r3, [r3, #0]
   d6ed6:	6b5b      	ldr	r3, [r3, #52]	; 0x34
   d6ed8:	9301      	str	r3, [sp, #4]
   d6eda:	bd08      	pop	{r3, pc}
   d6edc:	00030228 	.word	0x00030228

000d6ee0 <hal_i2c_init>:
DYNALIB_FN(BASE_IDX + 14, hal_i2c, hal_i2c_set_callback_on_received, void(hal_i2c_interface_t, void(*)(int), void*))
DYNALIB_FN(BASE_IDX + 15, hal_i2c, hal_i2c_set_callback_on_requested, void(hal_i2c_interface_t, void(*)(void), void*))
DYNALIB_FN(BASE_IDX + 16, hal_i2c, hal_i2c_init, int(hal_i2c_interface_t, const hal_i2c_config_t*))
   d6ee0:	b508      	push	{r3, lr}
   d6ee2:	4b02      	ldr	r3, [pc, #8]	; (d6eec <hal_i2c_init+0xc>)
   d6ee4:	681b      	ldr	r3, [r3, #0]
   d6ee6:	6c1b      	ldr	r3, [r3, #64]	; 0x40
   d6ee8:	9301      	str	r3, [sp, #4]
   d6eea:	bd08      	pop	{r3, pc}
   d6eec:	00030228 	.word	0x00030228

000d6ef0 <hal_i2c_request_ex>:
DYNALIB_FN(BASE_IDX + 17, hal_i2c, hal_i2c_reset, uint8_t(hal_i2c_interface_t, uint32_t, void*))
DYNALIB_FN(BASE_IDX + 18, hal_i2c, hal_i2c_lock, int32_t(hal_i2c_interface_t, void*))
DYNALIB_FN(BASE_IDX + 19, hal_i2c, hal_i2c_unlock, int32_t(hal_i2c_interface_t, void*))
DYNALIB_FN(BASE_IDX + 20, hal_i2c, hal_i2c_request_ex, int32_t(hal_i2c_interface_t, const hal_i2c_transmission_config_t*, void*))
   d6ef0:	b508      	push	{r3, lr}
   d6ef2:	4b02      	ldr	r3, [pc, #8]	; (d6efc <hal_i2c_request_ex+0xc>)
   d6ef4:	681b      	ldr	r3, [r3, #0]
   d6ef6:	6d1b      	ldr	r3, [r3, #80]	; 0x50
   d6ef8:	9301      	str	r3, [sp, #4]
   d6efa:	bd08      	pop	{r3, pc}
   d6efc:	00030228 	.word	0x00030228

000d6f00 <hal_spi_begin>:
// New HAL functions must be added to the end of this list.
// GNINRAW

DYNALIB_BEGIN(hal_spi)

DYNALIB_FN(0, hal_spi, hal_spi_begin, void(hal_spi_interface_t, uint16_t))
   d6f00:	b508      	push	{r3, lr}
   d6f02:	4b02      	ldr	r3, [pc, #8]	; (d6f0c <hal_spi_begin+0xc>)
   d6f04:	681b      	ldr	r3, [r3, #0]
   d6f06:	681b      	ldr	r3, [r3, #0]
   d6f08:	9301      	str	r3, [sp, #4]
   d6f0a:	bd08      	pop	{r3, pc}
   d6f0c:	00030230 	.word	0x00030230

000d6f10 <hal_spi_transfer>:
DYNALIB_FN(1, hal_spi, hal_spi_end, void(hal_spi_interface_t))
DYNALIB_FN(2, hal_spi, hal_spi_set_bit_order, void(hal_spi_interface_t, uint8_t))
DYNALIB_FN(3, hal_spi, hal_spi_set_data_mode, void(hal_spi_interface_t, uint8_t))
DYNALIB_FN(4, hal_spi, hal_spi_set_clock_divider, void(hal_spi_interface_t, uint8_t))
DYNALIB_FN(5, hal_spi, hal_spi_transfer, uint16_t(hal_spi_interface_t, uint16_t))
   d6f10:	b508      	push	{r3, lr}
   d6f12:	4b02      	ldr	r3, [pc, #8]	; (d6f1c <hal_spi_transfer+0xc>)
   d6f14:	681b      	ldr	r3, [r3, #0]
   d6f16:	695b      	ldr	r3, [r3, #20]
   d6f18:	9301      	str	r3, [sp, #4]
   d6f1a:	bd08      	pop	{r3, pc}
   d6f1c:	00030230 	.word	0x00030230

000d6f20 <hal_spi_init>:
DYNALIB_FN(6, hal_spi, hal_spi_is_enabled_deprecated, bool(void))
DYNALIB_FN(7, hal_spi, hal_spi_init, void(hal_spi_interface_t))
   d6f20:	b508      	push	{r3, lr}
   d6f22:	4b02      	ldr	r3, [pc, #8]	; (d6f2c <hal_spi_init+0xc>)
   d6f24:	681b      	ldr	r3, [r3, #0]
   d6f26:	69db      	ldr	r3, [r3, #28]
   d6f28:	9301      	str	r3, [sp, #4]
   d6f2a:	bd08      	pop	{r3, pc}
   d6f2c:	00030230 	.word	0x00030230

000d6f30 <hal_spi_is_enabled>:
DYNALIB_FN(8, hal_spi, hal_spi_is_enabled, bool(hal_spi_interface_t))
   d6f30:	b508      	push	{r3, lr}
   d6f32:	4b02      	ldr	r3, [pc, #8]	; (d6f3c <hal_spi_is_enabled+0xc>)
   d6f34:	681b      	ldr	r3, [r3, #0]
   d6f36:	6a1b      	ldr	r3, [r3, #32]
   d6f38:	9301      	str	r3, [sp, #4]
   d6f3a:	bd08      	pop	{r3, pc}
   d6f3c:	00030230 	.word	0x00030230

000d6f40 <hal_spi_info>:
DYNALIB_FN(9, hal_spi, hal_spi_info, void(hal_spi_interface_t, hal_spi_info_t*, void*))
   d6f40:	b508      	push	{r3, lr}
   d6f42:	4b02      	ldr	r3, [pc, #8]	; (d6f4c <hal_spi_info+0xc>)
   d6f44:	681b      	ldr	r3, [r3, #0]
   d6f46:	6a5b      	ldr	r3, [r3, #36]	; 0x24
   d6f48:	9301      	str	r3, [sp, #4]
   d6f4a:	bd08      	pop	{r3, pc}
   d6f4c:	00030230 	.word	0x00030230

000d6f50 <hal_spi_transfer_dma>:
DYNALIB_FN(10, hal_spi, hal_spi_transfer_dma, void(hal_spi_interface_t, void*, void*, uint32_t, hal_spi_dma_user_callback))
   d6f50:	b508      	push	{r3, lr}
   d6f52:	4b02      	ldr	r3, [pc, #8]	; (d6f5c <hal_spi_transfer_dma+0xc>)
   d6f54:	681b      	ldr	r3, [r3, #0]
   d6f56:	6a9b      	ldr	r3, [r3, #40]	; 0x28
   d6f58:	9301      	str	r3, [sp, #4]
   d6f5a:	bd08      	pop	{r3, pc}
   d6f5c:	00030230 	.word	0x00030230

000d6f60 <hal_spi_transfer_dma_status>:
DYNALIB_FN(11, hal_spi, hal_spi_begin_ext, void(hal_spi_interface_t, hal_spi_mode_t, uint16_t, void*))
DYNALIB_FN(12, hal_spi, hal_spi_set_callback_on_selected, void(hal_spi_interface_t, hal_spi_select_user_callback, void*))
DYNALIB_FN(13, hal_spi, hal_spi_transfer_dma_cancel, void(hal_spi_interface_t))
DYNALIB_FN(14, hal_spi, hal_spi_transfer_dma_status, int32_t(hal_spi_interface_t, hal_spi_transfer_status_t*))
   d6f60:	b508      	push	{r3, lr}
   d6f62:	4b02      	ldr	r3, [pc, #8]	; (d6f6c <hal_spi_transfer_dma_status+0xc>)
   d6f64:	681b      	ldr	r3, [r3, #0]
   d6f66:	6b9b      	ldr	r3, [r3, #56]	; 0x38
   d6f68:	9301      	str	r3, [sp, #4]
   d6f6a:	bd08      	pop	{r3, pc}
   d6f6c:	00030230 	.word	0x00030230

000d6f70 <hal_spi_set_settings>:
DYNALIB_FN(15, hal_spi, hal_spi_set_settings, int32_t(hal_spi_interface_t, uint8_t, uint8_t, uint8_t, uint8_t, void*))
   d6f70:	b508      	push	{r3, lr}
   d6f72:	4b02      	ldr	r3, [pc, #8]	; (d6f7c <hal_spi_set_settings+0xc>)
   d6f74:	681b      	ldr	r3, [r3, #0]
   d6f76:	6bdb      	ldr	r3, [r3, #60]	; 0x3c
   d6f78:	9301      	str	r3, [sp, #4]
   d6f7a:	bd08      	pop	{r3, pc}
   d6f7c:	00030230 	.word	0x00030230

000d6f80 <hal_spi_acquire>:
#if HAL_PLATFORM_SPI_HAL_THREAD_SAFETY
DYNALIB_FN(16, hal_spi, hal_spi_acquire, int32_t(hal_spi_interface_t, const hal_spi_acquire_config_t*))
   d6f80:	b508      	push	{r3, lr}
   d6f82:	4b02      	ldr	r3, [pc, #8]	; (d6f8c <hal_spi_acquire+0xc>)
   d6f84:	681b      	ldr	r3, [r3, #0]
   d6f86:	6c1b      	ldr	r3, [r3, #64]	; 0x40
   d6f88:	9301      	str	r3, [sp, #4]
   d6f8a:	bd08      	pop	{r3, pc}
   d6f8c:	00030230 	.word	0x00030230

000d6f90 <hal_spi_release>:
DYNALIB_FN(17, hal_spi, hal_spi_release, int32_t(hal_spi_interface_t, void*))
   d6f90:	b508      	push	{r3, lr}
   d6f92:	4b02      	ldr	r3, [pc, #8]	; (d6f9c <hal_spi_release+0xc>)
   d6f94:	681b      	ldr	r3, [r3, #0]
   d6f96:	6c5b      	ldr	r3, [r3, #68]	; 0x44
   d6f98:	9301      	str	r3, [sp, #4]
   d6f9a:	bd08      	pop	{r3, pc}
   d6f9c:	00030230 	.word	0x00030230

000d6fa0 <HAL_USB_USART_Init>:
#endif

DYNALIB_BEGIN(hal_usb)

#ifdef USB_CDC_ENABLE
DYNALIB_FN(0, hal_usb, HAL_USB_USART_Init, void(HAL_USB_USART_Serial, const HAL_USB_USART_Config*))
   d6fa0:	b508      	push	{r3, lr}
   d6fa2:	4b02      	ldr	r3, [pc, #8]	; (d6fac <HAL_USB_USART_Init+0xc>)
   d6fa4:	681b      	ldr	r3, [r3, #0]
   d6fa6:	681b      	ldr	r3, [r3, #0]
   d6fa8:	9301      	str	r3, [sp, #4]
   d6faa:	bd08      	pop	{r3, pc}
   d6fac:	0003024c 	.word	0x0003024c

000d6fb0 <HAL_USB_USART_Begin>:
DYNALIB_FN(1, hal_usb, HAL_USB_USART_Begin, void(HAL_USB_USART_Serial, uint32_t, void *))
   d6fb0:	b508      	push	{r3, lr}
   d6fb2:	4b02      	ldr	r3, [pc, #8]	; (d6fbc <HAL_USB_USART_Begin+0xc>)
   d6fb4:	681b      	ldr	r3, [r3, #0]
   d6fb6:	685b      	ldr	r3, [r3, #4]
   d6fb8:	9301      	str	r3, [sp, #4]
   d6fba:	bd08      	pop	{r3, pc}
   d6fbc:	0003024c 	.word	0x0003024c

000d6fc0 <HAL_USB_USART_Available_Data>:
DYNALIB_FN(2, hal_usb, HAL_USB_USART_End, void(HAL_USB_USART_Serial))
DYNALIB_FN(3, hal_usb, HAL_USB_USART_Baud_Rate, unsigned int(HAL_USB_USART_Serial))
DYNALIB_FN(4, hal_usb, HAL_USB_USART_Available_Data, int32_t(HAL_USB_USART_Serial))
   d6fc0:	b508      	push	{r3, lr}
   d6fc2:	4b02      	ldr	r3, [pc, #8]	; (d6fcc <HAL_USB_USART_Available_Data+0xc>)
   d6fc4:	681b      	ldr	r3, [r3, #0]
   d6fc6:	691b      	ldr	r3, [r3, #16]
   d6fc8:	9301      	str	r3, [sp, #4]
   d6fca:	bd08      	pop	{r3, pc}
   d6fcc:	0003024c 	.word	0x0003024c

000d6fd0 <HAL_USB_USART_Available_Data_For_Write>:
DYNALIB_FN(5, hal_usb, HAL_USB_USART_Available_Data_For_Write, int32_t(HAL_USB_USART_Serial))
   d6fd0:	b508      	push	{r3, lr}
   d6fd2:	4b02      	ldr	r3, [pc, #8]	; (d6fdc <HAL_USB_USART_Available_Data_For_Write+0xc>)
   d6fd4:	681b      	ldr	r3, [r3, #0]
   d6fd6:	695b      	ldr	r3, [r3, #20]
   d6fd8:	9301      	str	r3, [sp, #4]
   d6fda:	bd08      	pop	{r3, pc}
   d6fdc:	0003024c 	.word	0x0003024c

000d6fe0 <HAL_USB_USART_Receive_Data>:
DYNALIB_FN(6, hal_usb, HAL_USB_USART_Receive_Data, int32_t(HAL_USB_USART_Serial, uint8_t))
   d6fe0:	b508      	push	{r3, lr}
   d6fe2:	4b02      	ldr	r3, [pc, #8]	; (d6fec <HAL_USB_USART_Receive_Data+0xc>)
   d6fe4:	681b      	ldr	r3, [r3, #0]
   d6fe6:	699b      	ldr	r3, [r3, #24]
   d6fe8:	9301      	str	r3, [sp, #4]
   d6fea:	bd08      	pop	{r3, pc}
   d6fec:	0003024c 	.word	0x0003024c

000d6ff0 <HAL_USB_USART_Send_Data>:
DYNALIB_FN(7, hal_usb, HAL_USB_USART_Send_Data, int32_t(HAL_USB_USART_Serial, uint8_t))
   d6ff0:	b508      	push	{r3, lr}
   d6ff2:	4b02      	ldr	r3, [pc, #8]	; (d6ffc <HAL_USB_USART_Send_Data+0xc>)
   d6ff4:	681b      	ldr	r3, [r3, #0]
   d6ff6:	69db      	ldr	r3, [r3, #28]
   d6ff8:	9301      	str	r3, [sp, #4]
   d6ffa:	bd08      	pop	{r3, pc}
   d6ffc:	0003024c 	.word	0x0003024c

000d7000 <HAL_USB_USART_Flush_Data>:
DYNALIB_FN(8, hal_usb, HAL_USB_USART_Flush_Data, void(HAL_USB_USART_Serial))
   d7000:	b508      	push	{r3, lr}
   d7002:	4b02      	ldr	r3, [pc, #8]	; (d700c <HAL_USB_USART_Flush_Data+0xc>)
   d7004:	681b      	ldr	r3, [r3, #0]
   d7006:	6a1b      	ldr	r3, [r3, #32]
   d7008:	9301      	str	r3, [sp, #4]
   d700a:	bd08      	pop	{r3, pc}
   d700c:	0003024c 	.word	0x0003024c

000d7010 <HAL_USB_USART_Is_Enabled>:
DYNALIB_FN(9, hal_usb, HAL_USB_USART_Is_Enabled, bool(HAL_USB_USART_Serial))
   d7010:	b508      	push	{r3, lr}
   d7012:	4b02      	ldr	r3, [pc, #8]	; (d701c <HAL_USB_USART_Is_Enabled+0xc>)
   d7014:	681b      	ldr	r3, [r3, #0]
   d7016:	6a5b      	ldr	r3, [r3, #36]	; 0x24
   d7018:	9301      	str	r3, [sp, #4]
   d701a:	bd08      	pop	{r3, pc}
   d701c:	0003024c 	.word	0x0003024c

000d7020 <panic_>:
DYNALIB_FN(9, services, LED_Toggle, void(Led_TypeDef))
DYNALIB_FN(10, services, LED_Fade, void(Led_TypeDef))
DYNALIB_FN(11, services, Get_LED_Brightness, uint8_t(void))

DYNALIB_FN(12, services, set_logger_output, void(debug_output_fn, LoggerOutputLevel)) // Deprecated
DYNALIB_FN(13, services, panic_, void(ePanicCode, void*, void(*)(uint32_t)))
   d7020:	b508      	push	{r3, lr}
   d7022:	4b02      	ldr	r3, [pc, #8]	; (d702c <panic_+0xc>)
   d7024:	681b      	ldr	r3, [r3, #0]
   d7026:	6b5b      	ldr	r3, [r3, #52]	; 0x34
   d7028:	9301      	str	r3, [sp, #4]
   d702a:	bd08      	pop	{r3, pc}
   d702c:	00030260 	.word	0x00030260

000d7030 <set_system_mode>:
#endif

DYNALIB_BEGIN(system)

DYNALIB_FN(0, system, system_mode, System_Mode_TypeDef(void))
DYNALIB_FN(1, system, set_system_mode, void(System_Mode_TypeDef))
   d7030:	b508      	push	{r3, lr}
   d7032:	4b02      	ldr	r3, [pc, #8]	; (d703c <set_system_mode+0xc>)
   d7034:	681b      	ldr	r3, [r3, #0]
   d7036:	685b      	ldr	r3, [r3, #4]
   d7038:	9301      	str	r3, [sp, #4]
   d703a:	bd08      	pop	{r3, pc}
   d703c:	00030220 	.word	0x00030220

000d7040 <system_delay_ms>:

DYNALIB_FN(2, system, set_ymodem_serial_flash_update_handler, void(ymodem_serial_flash_update_handler))
DYNALIB_FN(3, system, system_firmwareUpdate, bool(Stream*, void*))
DYNALIB_FN(4, system, system_fileTransfer, bool(system_file_transfer_t*, void*))

DYNALIB_FN(5, system, system_delay_ms, void(unsigned long, bool))
   d7040:	b508      	push	{r3, lr}
   d7042:	4b02      	ldr	r3, [pc, #8]	; (d704c <system_delay_ms+0xc>)
   d7044:	681b      	ldr	r3, [r3, #0]
   d7046:	695b      	ldr	r3, [r3, #20]
   d7048:	9301      	str	r3, [sp, #4]
   d704a:	bd08      	pop	{r3, pc}
   d704c:	00030220 	.word	0x00030220

000d7050 <system_ctrl_set_app_request_handler>:
DYNALIB_FN(BASE_IDX + 6, system, led_pattern_period, uint16_t(int, int, void*))
DYNALIB_FN(BASE_IDX + 7, system, system_set_tester_handlers, int(system_tester_handlers_t*, void*))
DYNALIB_FN(BASE_IDX + 8, system, system_format_diag_data, int(const uint16_t*, size_t, unsigned, appender_fn, void*, void*))

// Control requests
DYNALIB_FN(BASE_IDX + 9, system, system_ctrl_set_app_request_handler, int(ctrl_request_handler_fn, void*))
   d7050:	b508      	push	{r3, lr}
   d7052:	4b03      	ldr	r3, [pc, #12]	; (d7060 <system_ctrl_set_app_request_handler+0x10>)
   d7054:	681b      	ldr	r3, [r3, #0]
   d7056:	f8d3 3088 	ldr.w	r3, [r3, #136]	; 0x88
   d705a:	9301      	str	r3, [sp, #4]
   d705c:	bd08      	pop	{r3, pc}
   d705e:	0000      	.short	0x0000
   d7060:	00030220 	.word	0x00030220

000d7064 <system_ctrl_set_result>:
DYNALIB_FN(BASE_IDX + 10, system, system_ctrl_alloc_reply_data, int(ctrl_request*, size_t, void*))
DYNALIB_FN(BASE_IDX + 11, system, system_ctrl_free_request_data, void(ctrl_request*, void*))
DYNALIB_FN(BASE_IDX + 12, system, system_ctrl_set_result, void(ctrl_request*, int, ctrl_completion_handler_fn, void*, void*))
   d7064:	b508      	push	{r3, lr}
   d7066:	4b03      	ldr	r3, [pc, #12]	; (d7074 <system_ctrl_set_result+0x10>)
   d7068:	681b      	ldr	r3, [r3, #0]
   d706a:	f8d3 3094 	ldr.w	r3, [r3, #148]	; 0x94
   d706e:	9301      	str	r3, [sp, #4]
   d7070:	bd08      	pop	{r3, pc}
   d7072:	0000      	.short	0x0000
   d7074:	00030220 	.word	0x00030220

000d7078 <network_connect>:
#endif

DYNALIB_BEGIN(system_net)

DYNALIB_FN(0, system_net, network_config, const void*(network_handle_t, uint32_t, void*))
DYNALIB_FN(1, system_net, network_connect, void(network_handle_t, uint32_t, uint32_t, void*))
   d7078:	b508      	push	{r3, lr}
   d707a:	4b02      	ldr	r3, [pc, #8]	; (d7084 <network_connect+0xc>)
   d707c:	681b      	ldr	r3, [r3, #0]
   d707e:	685b      	ldr	r3, [r3, #4]
   d7080:	9301      	str	r3, [sp, #4]
   d7082:	bd08      	pop	{r3, pc}
   d7084:	00030240 	.word	0x00030240

000d7088 <network_connecting>:
DYNALIB_FN(2, system_net, network_connecting, bool(network_handle_t, uint32_t, void*))
   d7088:	b508      	push	{r3, lr}
   d708a:	4b02      	ldr	r3, [pc, #8]	; (d7094 <network_connecting+0xc>)
   d708c:	681b      	ldr	r3, [r3, #0]
   d708e:	689b      	ldr	r3, [r3, #8]
   d7090:	9301      	str	r3, [sp, #4]
   d7092:	bd08      	pop	{r3, pc}
   d7094:	00030240 	.word	0x00030240

000d7098 <network_disconnect>:
DYNALIB_FN(3, system_net, network_disconnect, void(network_handle_t, uint32_t, void*))
   d7098:	b508      	push	{r3, lr}
   d709a:	4b02      	ldr	r3, [pc, #8]	; (d70a4 <network_disconnect+0xc>)
   d709c:	681b      	ldr	r3, [r3, #0]
   d709e:	68db      	ldr	r3, [r3, #12]
   d70a0:	9301      	str	r3, [sp, #4]
   d70a2:	bd08      	pop	{r3, pc}
   d70a4:	00030240 	.word	0x00030240

000d70a8 <network_ready>:
DYNALIB_FN(4, system_net, network_ready, bool(network_handle_t, uint32_t, void*))
   d70a8:	b508      	push	{r3, lr}
   d70aa:	4b02      	ldr	r3, [pc, #8]	; (d70b4 <network_ready+0xc>)
   d70ac:	681b      	ldr	r3, [r3, #0]
   d70ae:	691b      	ldr	r3, [r3, #16]
   d70b0:	9301      	str	r3, [sp, #4]
   d70b2:	bd08      	pop	{r3, pc}
   d70b4:	00030240 	.word	0x00030240

000d70b8 <network_on>:
DYNALIB_FN(5, system_net, network_on, void(network_handle_t, uint32_t, uint32_t, void*))
   d70b8:	b508      	push	{r3, lr}
   d70ba:	4b02      	ldr	r3, [pc, #8]	; (d70c4 <network_on+0xc>)
   d70bc:	681b      	ldr	r3, [r3, #0]
   d70be:	695b      	ldr	r3, [r3, #20]
   d70c0:	9301      	str	r3, [sp, #4]
   d70c2:	bd08      	pop	{r3, pc}
   d70c4:	00030240 	.word	0x00030240

000d70c8 <network_off>:
DYNALIB_FN(6, system_net, network_off, void(network_handle_t, uint32_t, uint32_t, void*))
   d70c8:	b508      	push	{r3, lr}
   d70ca:	4b02      	ldr	r3, [pc, #8]	; (d70d4 <network_off+0xc>)
   d70cc:	681b      	ldr	r3, [r3, #0]
   d70ce:	699b      	ldr	r3, [r3, #24]
   d70d0:	9301      	str	r3, [sp, #4]
   d70d2:	bd08      	pop	{r3, pc}
   d70d4:	00030240 	.word	0x00030240

000d70d8 <network_listen>:
DYNALIB_FN(7, system_net, network_listen, void(network_handle_t, uint32_t, void*))
   d70d8:	b508      	push	{r3, lr}
   d70da:	4b02      	ldr	r3, [pc, #8]	; (d70e4 <network_listen+0xc>)
   d70dc:	681b      	ldr	r3, [r3, #0]
   d70de:	69db      	ldr	r3, [r3, #28]
   d70e0:	9301      	str	r3, [sp, #4]
   d70e2:	bd08      	pop	{r3, pc}
   d70e4:	00030240 	.word	0x00030240

000d70e8 <network_listening>:
DYNALIB_FN(8, system_net, network_listening, bool(network_handle_t, uint32_t, void*))
   d70e8:	b508      	push	{r3, lr}
   d70ea:	4b02      	ldr	r3, [pc, #8]	; (d70f4 <network_listening+0xc>)
   d70ec:	681b      	ldr	r3, [r3, #0]
   d70ee:	6a1b      	ldr	r3, [r3, #32]
   d70f0:	9301      	str	r3, [sp, #4]
   d70f2:	bd08      	pop	{r3, pc}
   d70f4:	00030240 	.word	0x00030240

000d70f8 <network_set_listen_timeout>:
DYNALIB_FN(9, system_net, network_has_credentials, bool(network_handle_t, uint32_t, void*))
DYNALIB_FN(10, system_net, network_set_credentials, int(network_handle_t, uint32_t, NetworkCredentials*, void*))
DYNALIB_FN(11, system_net, network_clear_credentials, bool(network_handle_t, uint32_t, NetworkCredentials*, void*))
DYNALIB_FN(12, system_net, network_set_listen_timeout, void(network_handle_t, uint16_t, void*))
   d70f8:	b508      	push	{r3, lr}
   d70fa:	4b02      	ldr	r3, [pc, #8]	; (d7104 <network_set_listen_timeout+0xc>)
   d70fc:	681b      	ldr	r3, [r3, #0]
   d70fe:	6b1b      	ldr	r3, [r3, #48]	; 0x30
   d7100:	9301      	str	r3, [sp, #4]
   d7102:	bd08      	pop	{r3, pc}
   d7104:	00030240 	.word	0x00030240

000d7108 <network_get_listen_timeout>:
DYNALIB_FN(13, system_net, network_get_listen_timeout, uint16_t(network_handle_t, uint32_t, void*))
   d7108:	b508      	push	{r3, lr}
   d710a:	4b02      	ldr	r3, [pc, #8]	; (d7114 <network_get_listen_timeout+0xc>)
   d710c:	681b      	ldr	r3, [r3, #0]
   d710e:	6b5b      	ldr	r3, [r3, #52]	; 0x34
   d7110:	9301      	str	r3, [sp, #4]
   d7112:	bd08      	pop	{r3, pc}
   d7114:	00030240 	.word	0x00030240

000d7118 <network_is_on>:
DYNALIB_FN(14, system_net, network_set_hostname, int(network_handle_t, uint32_t, const char*, void*))
DYNALIB_FN(15, system_net, network_get_hostname, int(network_handle_t, uint32_t, char*, size_t, void*))
DYNALIB_FN(16, system_net, network_is_on, bool(network_handle_t, void*))
   d7118:	b508      	push	{r3, lr}
   d711a:	4b02      	ldr	r3, [pc, #8]	; (d7124 <network_is_on+0xc>)
   d711c:	681b      	ldr	r3, [r3, #0]
   d711e:	6c1b      	ldr	r3, [r3, #64]	; 0x40
   d7120:	9301      	str	r3, [sp, #4]
   d7122:	bd08      	pop	{r3, pc}
   d7124:	00030240 	.word	0x00030240

000d7128 <network_is_off>:
DYNALIB_FN(17, system_net, network_is_off, bool(network_handle_t, void*))
   d7128:	b508      	push	{r3, lr}
   d712a:	4b02      	ldr	r3, [pc, #8]	; (d7134 <network_is_off+0xc>)
   d712c:	681b      	ldr	r3, [r3, #0]
   d712e:	6c5b      	ldr	r3, [r3, #68]	; 0x44
   d7130:	9301      	str	r3, [sp, #4]
   d7132:	bd08      	pop	{r3, pc}
   d7134:	00030240 	.word	0x00030240

000d7138 <spark_set_random_seed_from_cloud_handler>:
DYNALIB_FN(10, system_cloud, spark_unsubscribe, void(void*))
DYNALIB_FN(11, system_cloud, spark_sync_time, bool(void*))
DYNALIB_FN(12, system_cloud, spark_sync_time_pending, bool(void*))
DYNALIB_FN(13, system_cloud, spark_sync_time_last, system_tick_t(time32_t*, time_t*))
DYNALIB_FN(14, system_cloud, spark_set_connection_property, int(unsigned, unsigned, const void*, void*))
DYNALIB_FN(15, system_cloud, spark_set_random_seed_from_cloud_handler, int(void (*handler)(unsigned int), void*))
   d7138:	b508      	push	{r3, lr}
   d713a:	4b02      	ldr	r3, [pc, #8]	; (d7144 <spark_set_random_seed_from_cloud_handler+0xc>)
   d713c:	681b      	ldr	r3, [r3, #0]
   d713e:	6bdb      	ldr	r3, [r3, #60]	; 0x3c
   d7140:	9301      	str	r3, [sp, #4]
   d7142:	bd08      	pop	{r3, pc}
   d7144:	00030244 	.word	0x00030244

000d7148 <malloc>:
#include "hal_platform.h"
#endif // defined(DYNALIB_EXPORT) || (defined(DYNALIB_IMPORT) && !defined(RT_DYNALIB_NO_DEPENDENCY_BREAKING_IMPORTS))

DYNALIB_BEGIN(rt)

DYNALIB_FN(0, rt, malloc, void*(size_t))
   d7148:	b508      	push	{r3, lr}
   d714a:	4b02      	ldr	r3, [pc, #8]	; (d7154 <malloc+0xc>)
   d714c:	681b      	ldr	r3, [r3, #0]
   d714e:	681b      	ldr	r3, [r3, #0]
   d7150:	9301      	str	r3, [sp, #4]
   d7152:	bd08      	pop	{r3, pc}
   d7154:	0003021c 	.word	0x0003021c

000d7158 <free>:
DYNALIB_FN(1, rt, free, void(void*))
   d7158:	b508      	push	{r3, lr}
   d715a:	4b02      	ldr	r3, [pc, #8]	; (d7164 <free+0xc>)
   d715c:	681b      	ldr	r3, [r3, #0]
   d715e:	685b      	ldr	r3, [r3, #4]
   d7160:	9301      	str	r3, [sp, #4]
   d7162:	bd08      	pop	{r3, pc}
   d7164:	0003021c 	.word	0x0003021c

000d7168 <vsnprintf>:
DYNALIB_FN(4, rt, siprintf, int(char*, const char*, ...))
DYNALIB_FN(5, rt, sscanf, int(const char*, const char*, ...))
DYNALIB_FN(6, rt, siscanf, int(const char*, const char*, ...))
DYNALIB_FN(7, rt, snprintf, int(char*, size_t, const char*, ...))
DYNALIB_FN(8, rt, sniprintf, int(char*, size_t, const char*, ...))
DYNALIB_FN(9, rt, vsnprintf, int(char*, size_t, const char*, va_list))
   d7168:	b508      	push	{r3, lr}
   d716a:	4b02      	ldr	r3, [pc, #8]	; (d7174 <vsnprintf+0xc>)
   d716c:	681b      	ldr	r3, [r3, #0]
   d716e:	6a5b      	ldr	r3, [r3, #36]	; 0x24
   d7170:	9301      	str	r3, [sp, #4]
   d7172:	bd08      	pop	{r3, pc}
   d7174:	0003021c 	.word	0x0003021c

000d7178 <__errno>:
DYNALIB_FN(10, rt, vsniprintf, int(char*, size_t, const char*, va_list))
DYNALIB_FN(11, rt, abort, void(void))
DYNALIB_FN(12, rt, _malloc_r, void*(struct _reent*, size_t))
DYNALIB_FN(13, rt, _free_r, void(struct _reent*, void*))
DYNALIB_FN(14, rt, _realloc_r, void*(struct _reent*, void*, size_t))
DYNALIB_FN(15, rt, __errno, int*())
   d7178:	b508      	push	{r3, lr}
   d717a:	4b02      	ldr	r3, [pc, #8]	; (d7184 <__errno+0xc>)
   d717c:	681b      	ldr	r3, [r3, #0]
   d717e:	6bdb      	ldr	r3, [r3, #60]	; 0x3c
   d7180:	9301      	str	r3, [sp, #4]
   d7182:	bd08      	pop	{r3, pc}
   d7184:	0003021c 	.word	0x0003021c

000d7188 <newlib_impure_ptr_callback>:
// RT is currently being imported into system-part1 from system-part2,
// which is the reverse direction.

#if defined(DYNALIB_EXPORT) || (defined(DYNALIB_IMPORT) && !defined(RT_DYNALIB_NO_DEPENDENCY_BREAKING_IMPORTS))
DYNALIB_FN(16, rt, __assert_func, void(const char*, int, const char*, const char*))
DYNALIB_FN(17, rt, newlib_impure_ptr_callback, void(void (*)(struct _reent*, size_t, uint32_t, void*), void*))
   d7188:	b508      	push	{r3, lr}
   d718a:	4b02      	ldr	r3, [pc, #8]	; (d7194 <newlib_impure_ptr_callback+0xc>)
   d718c:	681b      	ldr	r3, [r3, #0]
   d718e:	6c5b      	ldr	r3, [r3, #68]	; 0x44
   d7190:	9301      	str	r3, [sp, #4]
   d7192:	bd08      	pop	{r3, pc}
   d7194:	0003021c 	.word	0x0003021c

000d7198 <_ZN5spark13EthernetClass9listeningEv>:
    uint16_t getListenTimeout(void) {
        return network_get_listen_timeout(*this, 0, NULL);
    }

    bool listening(void) {
        return network_listening(*this, 0, NULL);
   d7198:	2200      	movs	r2, #0
   d719a:	6840      	ldr	r0, [r0, #4]
   d719c:	4611      	mov	r1, r2
   d719e:	f7ff bfa3 	b.w	d70e8 <network_listening>

000d71a2 <_ZN5spark13EthernetClass16getListenTimeoutEv>:
        return network_get_listen_timeout(*this, 0, NULL);
   d71a2:	2200      	movs	r2, #0
   d71a4:	6840      	ldr	r0, [r0, #4]
   d71a6:	4611      	mov	r1, r2
   d71a8:	f7ff bfae 	b.w	d7108 <network_get_listen_timeout>

000d71ac <_ZN5spark13EthernetClass16setListenTimeoutEt>:
        network_set_listen_timeout(*this, timeout, NULL);
   d71ac:	6840      	ldr	r0, [r0, #4]
   d71ae:	2200      	movs	r2, #0
   d71b0:	f7ff bfa2 	b.w	d70f8 <network_set_listen_timeout>

000d71b4 <_ZN5spark13EthernetClass6listenEb>:
        network_listen(*this, begin ? 0 : 1, NULL);
   d71b4:	6840      	ldr	r0, [r0, #4]
   d71b6:	2200      	movs	r2, #0
   d71b8:	f081 0101 	eor.w	r1, r1, #1
   d71bc:	f7ff bf8c 	b.w	d70d8 <network_listen>

000d71c0 <_ZN5spark13EthernetClass3offEv>:
        network_off(*this, 0, 0, NULL);
   d71c0:	2300      	movs	r3, #0
   d71c2:	6840      	ldr	r0, [r0, #4]
   d71c4:	461a      	mov	r2, r3
   d71c6:	4619      	mov	r1, r3
   d71c8:	f7ff bf7e 	b.w	d70c8 <network_off>

000d71cc <_ZN5spark13EthernetClass2onEv>:
        network_on(*this, 0, 0, NULL);
   d71cc:	2300      	movs	r3, #0
   d71ce:	6840      	ldr	r0, [r0, #4]
   d71d0:	461a      	mov	r2, r3
   d71d2:	4619      	mov	r1, r3
   d71d4:	f7ff bf70 	b.w	d70b8 <network_on>

000d71d8 <_ZN5spark13EthernetClass5readyEv>:
    }

    bool ready() {
        return network_ready(*this, 0,  NULL);
   d71d8:	2200      	movs	r2, #0
   d71da:	6840      	ldr	r0, [r0, #4]
   d71dc:	4611      	mov	r1, r2
   d71de:	f7ff bf63 	b.w	d70a8 <network_ready>

000d71e2 <_ZN5spark13EthernetClass10connectingEv>:
        return network_connecting(*this, 0, NULL);
   d71e2:	2200      	movs	r2, #0
   d71e4:	6840      	ldr	r0, [r0, #4]
   d71e6:	4611      	mov	r1, r2
   d71e8:	f7ff bf4e 	b.w	d7088 <network_connecting>

000d71ec <_ZN5spark13EthernetClass10disconnectEv>:
        network_disconnect(*this, NETWORK_DISCONNECT_REASON_USER, NULL);
   d71ec:	6840      	ldr	r0, [r0, #4]
   d71ee:	2200      	movs	r2, #0
   d71f0:	2102      	movs	r1, #2
   d71f2:	f7ff bf51 	b.w	d7098 <network_disconnect>

000d71f6 <_ZN5spark13EthernetClass7connectEj>:
        network_connect(*this, flags, 0, NULL);
   d71f6:	2300      	movs	r3, #0
   d71f8:	6840      	ldr	r0, [r0, #4]
   d71fa:	461a      	mov	r2, r3
   d71fc:	f7ff bf3c 	b.w	d7078 <network_connect>

000d7200 <_GLOBAL__sub_I__ZN5spark8EthernetE>:
    static NetworkClass& from(network_interface_t nif);

    virtual IPAddress resolve(const char* name);

    explicit NetworkClass(network_interface_t iface)
            : iface_(iface) {
   d7200:	4b02      	ldr	r3, [pc, #8]	; (d720c <_GLOBAL__sub_I__ZN5spark8EthernetE+0xc>)
   d7202:	2203      	movs	r2, #3
   d7204:	605a      	str	r2, [r3, #4]
            NetworkClass(NETWORK_INTERFACE_ETHERNET) {
   d7206:	4a02      	ldr	r2, [pc, #8]	; (d7210 <_GLOBAL__sub_I__ZN5spark8EthernetE+0x10>)
   d7208:	601a      	str	r2, [r3, #0]

namespace spark {

EthernetClass Ethernet;

} // spark
   d720a:	4770      	bx	lr
   d720c:	2003e58c 	.word	0x2003e58c
   d7210:	000db0c4 	.word	0x000db0c4

000d7214 <_ZN8SPIClass4lockEv.isra.0>:
  }

  int lock()
  {
#if HAL_PLATFORM_SPI_HAL_THREAD_SAFETY
    return hal_spi_acquire(_spi, nullptr);
   d7214:	2100      	movs	r1, #0
   d7216:	f7ff beb3 	b.w	d6f80 <hal_spi_acquire>

000d721a <_ZN8SPIClass6unlockEv.isra.0>:
  }

  void unlock()
  {
#if HAL_PLATFORM_SPI_HAL_THREAD_SAFETY
    hal_spi_release(_spi, nullptr);
   d721a:	2100      	movs	r1, #0
   d721c:	f7ff beb8 	b.w	d6f90 <hal_spi_release>

000d7220 <_ZN8SPIClassC1E19hal_spi_interface_t>:
    }
    return particle::SPISettings(info->clock, info->bit_order, info->data_mode);
}
} // namespace

SPIClass::SPIClass(hal_spi_interface_t spi)
   d7220:	b510      	push	{r4, lr}
   d7222:	4604      	mov	r4, r0
   d7224:	4608      	mov	r0, r1
{
    _spi = spi;
   d7226:	7021      	strb	r1, [r4, #0]
    hal_spi_init(_spi);
   d7228:	f7ff fe7a 	bl	d6f20 <hal_spi_init>
    _dividerReference = SPI_CLK_SYSTEM; // 0 indicates the system clock
   d722c:	2300      	movs	r3, #0
   d722e:	6063      	str	r3, [r4, #4]
}
   d7230:	4620      	mov	r0, r4
   d7232:	bd10      	pop	{r4, pc}

000d7234 <_ZN8SPIClass5beginEv>:

void SPIClass::begin()
{
   d7234:	b510      	push	{r4, lr}
   d7236:	4604      	mov	r4, r0
    // TODO: Fetch default pin from HAL
    if (!lock())
   d7238:	7800      	ldrb	r0, [r0, #0]
   d723a:	f7ff ffeb 	bl	d7214 <_ZN8SPIClass4lockEv.isra.0>
   d723e:	b948      	cbnz	r0, d7254 <_ZN8SPIClass5beginEv+0x20>
    {
        hal_spi_begin(_spi, SPI_DEFAULT_SS);
   d7240:	7820      	ldrb	r0, [r4, #0]
   d7242:	f64f 71ff 	movw	r1, #65535	; 0xffff
   d7246:	f7ff fe5b 	bl	d6f00 <hal_spi_begin>
        unlock();
   d724a:	7820      	ldrb	r0, [r4, #0]
    }
}
   d724c:	e8bd 4010 	ldmia.w	sp!, {r4, lr}
        unlock();
   d7250:	f7ff bfe3 	b.w	d721a <_ZN8SPIClass6unlockEv.isra.0>
}
   d7254:	bd10      	pop	{r4, pc}

000d7256 <_ZN8SPIClass14endTransactionEv>:
}

void SPIClass::endTransaction()
{
    // Release peripheral
    unlock();
   d7256:	7800      	ldrb	r0, [r0, #0]
   d7258:	f7ff bfdf 	b.w	d721a <_ZN8SPIClass6unlockEv.isra.0>

000d725c <_ZN8SPIClass19computeClockDividerEjjRhRj>:
void SPIClass::computeClockDivider(unsigned reference, unsigned targetSpeed, uint8_t& divider,
                                   unsigned& clock)
{
    clock = reference;
    uint8_t scale = 0;
    clock >>= 1; // div2 is the first
   d725c:	0840      	lsrs	r0, r0, #1
{
   d725e:	b530      	push	{r4, r5, lr}
    clock >>= 1; // div2 is the first
   d7260:	6018      	str	r0, [r3, #0]
   d7262:	2400      	movs	r4, #0
    while (clock > targetSpeed && scale < 7)
   d7264:	6818      	ldr	r0, [r3, #0]
   d7266:	4288      	cmp	r0, r1
   d7268:	b2e5      	uxtb	r5, r4
   d726a:	d906      	bls.n	d727a <_ZN8SPIClass19computeClockDividerEjjRhRj+0x1e>
   d726c:	3401      	adds	r4, #1
   d726e:	2c08      	cmp	r4, #8
   d7270:	d002      	beq.n	d7278 <_ZN8SPIClass19computeClockDividerEjjRhRj+0x1c>
    {
        clock >>= 1;
   d7272:	0840      	lsrs	r0, r0, #1
   d7274:	6018      	str	r0, [r3, #0]
    while (clock > targetSpeed && scale < 7)
   d7276:	e7f5      	b.n	d7264 <_ZN8SPIClass19computeClockDividerEjjRhRj+0x8>
   d7278:	2507      	movs	r5, #7
        scale++;
    }
    divider = clock_divisors[scale];
   d727a:	4b02      	ldr	r3, [pc, #8]	; (d7284 <_ZN8SPIClass19computeClockDividerEjjRhRj+0x28>)
   d727c:	5d5b      	ldrb	r3, [r3, r5]
   d727e:	7013      	strb	r3, [r2, #0]
}
   d7280:	bd30      	pop	{r4, r5, pc}
   d7282:	bf00      	nop
   d7284:	000db0f8 	.word	0x000db0f8

000d7288 <_ZN8SPIClass16beginTransactionERKN8particle11SPISettingsE>:
{
   d7288:	e92d 43f0 	stmdb	sp!, {r4, r5, r6, r7, r8, r9, lr}
   d728c:	4606      	mov	r6, r0
   d728e:	b08f      	sub	sp, #60	; 0x3c
    CHECK(lock());
   d7290:	7800      	ldrb	r0, [r0, #0]
{
   d7292:	460c      	mov	r4, r1
    CHECK(lock());
   d7294:	f7ff ffbe 	bl	d7214 <_ZN8SPIClass4lockEv.isra.0>
   d7298:	2800      	cmp	r0, #0
   d729a:	db1b      	blt.n	d72d4 <_ZN8SPIClass16beginTransactionERKN8particle11SPISettingsE+0x4c>
    querySpiInfo(_spi, &spi_info);
   d729c:	7835      	ldrb	r5, [r6, #0]
    memset(info, 0, sizeof(hal_spi_info_t));
   d729e:	2214      	movs	r2, #20
   d72a0:	2100      	movs	r1, #0
   d72a2:	a809      	add	r0, sp, #36	; 0x24
   d72a4:	f002 ffe4 	bl	da270 <memset>
    info->version = HAL_SPI_INFO_VERSION_1;
   d72a8:	230b      	movs	r3, #11
    hal_spi_info(spi, info, nullptr);
   d72aa:	2200      	movs	r2, #0
   d72ac:	a909      	add	r1, sp, #36	; 0x24
   d72ae:	4628      	mov	r0, r5
    info->version = HAL_SPI_INFO_VERSION_1;
   d72b0:	f8ad 3024 	strh.w	r3, [sp, #36]	; 0x24
    hal_spi_info(spi, info, nullptr);
   d72b4:	f7ff fe44 	bl	d6f40 <hal_spi_info>
    if (!info || !info->enabled || info->default_settings)
   d72b8:	f89d 302d 	ldrb.w	r3, [sp, #45]	; 0x2d
   d72bc:	b113      	cbz	r3, d72c4 <_ZN8SPIClass16beginTransactionERKN8particle11SPISettingsE+0x3c>
   d72be:	f89d 502c 	ldrb.w	r5, [sp, #44]	; 0x2c
   d72c2:	b155      	cbz	r5, d72da <_ZN8SPIClass16beginTransactionERKN8particle11SPISettingsE+0x52>
  {
   d72c4:	2700      	movs	r7, #0
   d72c6:	46b9      	mov	r9, r7
   d72c8:	46b8      	mov	r8, r7
   d72ca:	2501      	movs	r5, #1
    if (default_ && other.default_)
   d72cc:	7923      	ldrb	r3, [r4, #4]
   d72ce:	b15d      	cbz	r5, d72e8 <_ZN8SPIClass16beginTransactionERKN8particle11SPISettingsE+0x60>
   d72d0:	b1c3      	cbz	r3, d7304 <_ZN8SPIClass16beginTransactionERKN8particle11SPISettingsE+0x7c>
    return 0;
   d72d2:	2000      	movs	r0, #0
}
   d72d4:	b00f      	add	sp, #60	; 0x3c
   d72d6:	e8bd 83f0 	ldmia.w	sp!, {r4, r5, r6, r7, r8, r9, pc}
    return particle::SPISettings(info->clock, info->bit_order, info->data_mode);
   d72da:	f8dd 8030 	ldr.w	r8, [sp, #48]	; 0x30
   d72de:	f89d 9034 	ldrb.w	r9, [sp, #52]	; 0x34
   d72e2:	f89d 7035 	ldrb.w	r7, [sp, #53]	; 0x35
  }
   d72e6:	e7f1      	b.n	d72cc <_ZN8SPIClass16beginTransactionERKN8particle11SPISettingsE+0x44>
    if (default_ == other.default_ &&
   d72e8:	2b00      	cmp	r3, #0
   d72ea:	d135      	bne.n	d7358 <_ZN8SPIClass16beginTransactionERKN8particle11SPISettingsE+0xd0>
   d72ec:	68a3      	ldr	r3, [r4, #8]
   d72ee:	4543      	cmp	r3, r8
   d72f0:	d108      	bne.n	d7304 <_ZN8SPIClass16beginTransactionERKN8particle11SPISettingsE+0x7c>
        bitOrder_ == other.bitOrder_ &&
   d72f2:	f88d 9020 	strb.w	r9, [sp, #32]
   d72f6:	f88d 7021 	strb.w	r7, [sp, #33]	; 0x21
   d72fa:	f8bd 2020 	ldrh.w	r2, [sp, #32]
   d72fe:	89a3      	ldrh	r3, [r4, #12]
   d7300:	429a      	cmp	r2, r3
   d7302:	d0e6      	beq.n	d72d2 <_ZN8SPIClass16beginTransactionERKN8particle11SPISettingsE+0x4a>
            uint8_t divisor = 0;
   d7304:	2300      	movs	r3, #0
            computeClockDivider((unsigned int)spi_info.system_clock, settings.clock_, divisor,
   d7306:	68a1      	ldr	r1, [r4, #8]
            uint8_t divisor = 0;
   d7308:	f88d 300f 	strb.w	r3, [sp, #15]
            computeClockDivider((unsigned int)spi_info.system_clock, settings.clock_, divisor,
   d730c:	980a      	ldr	r0, [sp, #40]	; 0x28
   d730e:	ab04      	add	r3, sp, #16
   d7310:	f10d 020f 	add.w	r2, sp, #15
   d7314:	f7ff ffa2 	bl	d725c <_ZN8SPIClass19computeClockDividerEjjRhRj>
    if (default_ && other.default_)
   d7318:	7921      	ldrb	r1, [r4, #4]
   d731a:	b985      	cbnz	r5, d733e <_ZN8SPIClass16beginTransactionERKN8particle11SPISettingsE+0xb6>
    if (default_ == other.default_ &&
   d731c:	b989      	cbnz	r1, d7342 <_ZN8SPIClass16beginTransactionERKN8particle11SPISettingsE+0xba>
   d731e:	68a3      	ldr	r3, [r4, #8]
   d7320:	4543      	cmp	r3, r8
   d7322:	d30e      	bcc.n	d7342 <_ZN8SPIClass16beginTransactionERKN8particle11SPISettingsE+0xba>
        bitOrder_ == other.bitOrder_ &&
   d7324:	f88d 9020 	strb.w	r9, [sp, #32]
   d7328:	f88d 7021 	strb.w	r7, [sp, #33]	; 0x21
   d732c:	f8bd 2020 	ldrh.w	r2, [sp, #32]
   d7330:	89a3      	ldrh	r3, [r4, #12]
   d7332:	429a      	cmp	r2, r3
   d7334:	d105      	bne.n	d7342 <_ZN8SPIClass16beginTransactionERKN8particle11SPISettingsE+0xba>
            if (!(spi_settings <= settings && clock == spi_settings.clock_))
   d7336:	9b04      	ldr	r3, [sp, #16]
   d7338:	4543      	cmp	r3, r8
   d733a:	d102      	bne.n	d7342 <_ZN8SPIClass16beginTransactionERKN8particle11SPISettingsE+0xba>
   d733c:	e7c9      	b.n	d72d2 <_ZN8SPIClass16beginTransactionERKN8particle11SPISettingsE+0x4a>
    if (default_ && other.default_)
   d733e:	2900      	cmp	r1, #0
   d7340:	d1f9      	bne.n	d7336 <_ZN8SPIClass16beginTransactionERKN8particle11SPISettingsE+0xae>
                hal_spi_set_settings(_spi, settings.default_, divisor, settings.bitOrder_,
   d7342:	2300      	movs	r3, #0
   d7344:	9301      	str	r3, [sp, #4]
   d7346:	7b63      	ldrb	r3, [r4, #13]
   d7348:	9300      	str	r3, [sp, #0]
   d734a:	f89d 200f 	ldrb.w	r2, [sp, #15]
   d734e:	7b23      	ldrb	r3, [r4, #12]
            hal_spi_set_settings(_spi, settings.default_, 0, 0, 0, nullptr);
   d7350:	7830      	ldrb	r0, [r6, #0]
   d7352:	f7ff fe0d 	bl	d6f70 <hal_spi_set_settings>
   d7356:	e7bc      	b.n	d72d2 <_ZN8SPIClass16beginTransactionERKN8particle11SPISettingsE+0x4a>
   d7358:	e9cd 5500 	strd	r5, r5, [sp]
   d735c:	462b      	mov	r3, r5
   d735e:	462a      	mov	r2, r5
   d7360:	2101      	movs	r1, #1
   d7362:	e7f5      	b.n	d7350 <_ZN8SPIClass16beginTransactionERKN8particle11SPISettingsE+0xc8>

000d7364 <_ZN8SPIClass8transferEh>:

    return clock;
}

byte SPIClass::transfer(byte _data)
{
   d7364:	b508      	push	{r3, lr}
    return static_cast<byte>(hal_spi_transfer(_spi, _data));
   d7366:	7800      	ldrb	r0, [r0, #0]
   d7368:	f7ff fdd2 	bl	d6f10 <hal_spi_transfer>
}
   d736c:	b2c0      	uxtb	r0, r0
   d736e:	bd08      	pop	{r3, pc}

000d7370 <_ZN8SPIClass8transferEPvS0_jPFvvE>:

void SPIClass::transfer(void* tx_buffer, void* rx_buffer, size_t length,
                        wiring_spi_dma_transfercomplete_callback_t user_callback)
{
   d7370:	b530      	push	{r4, r5, lr}
   d7372:	b087      	sub	sp, #28
   d7374:	4604      	mov	r4, r0
   d7376:	9d0a      	ldr	r5, [sp, #40]	; 0x28
    hal_spi_transfer_dma(_spi, tx_buffer, rx_buffer, length, user_callback);
   d7378:	9500      	str	r5, [sp, #0]
   d737a:	7800      	ldrb	r0, [r0, #0]
   d737c:	f7ff fde8 	bl	d6f50 <hal_spi_transfer_dma>
    if (user_callback == NULL)
   d7380:	b93d      	cbnz	r5, d7392 <_ZN8SPIClass8transferEPvS0_jPFvvE+0x22>
    {
        hal_spi_transfer_status_t st;
        do
        {
            hal_spi_transfer_dma_status(_spi, &st);
   d7382:	7820      	ldrb	r0, [r4, #0]
   d7384:	a902      	add	r1, sp, #8
   d7386:	f7ff fdeb 	bl	d6f60 <hal_spi_transfer_dma_status>
        } while (st.transfer_ongoing);
   d738a:	f89d 3014 	ldrb.w	r3, [sp, #20]
   d738e:	07db      	lsls	r3, r3, #31
   d7390:	d4f7      	bmi.n	d7382 <_ZN8SPIClass8transferEPvS0_jPFvvE+0x12>
    }
}
   d7392:	b007      	add	sp, #28
   d7394:	bd30      	pop	{r4, r5, pc}
	...

000d7398 <_GLOBAL__sub_I_System>:
} // namespace particle

// particle::Flag<TagT, ValueT>
template<typename TagT, typename ValueT>
inline particle::Flag<TagT, ValueT>::Flag(ValueT val) :
        val_(val) {
   d7398:	4b05      	ldr	r3, [pc, #20]	; (d73b0 <_GLOBAL__sub_I_System+0x18>)
   d739a:	2202      	movs	r2, #2
   d739c:	601a      	str	r2, [r3, #0]

class SystemSleepResult {
public:
    SystemSleepResult()
            : wakeupSource_(nullptr),
              error_(SYSTEM_ERROR_NONE) {
   d739e:	4b05      	ldr	r3, [pc, #20]	; (d73b4 <_GLOBAL__sub_I_System+0x1c>)
    SleepResult() {}
   d73a0:	4a05      	ldr	r2, [pc, #20]	; (d73b8 <_GLOBAL__sub_I_System+0x20>)
   d73a2:	609a      	str	r2, [r3, #8]
              error_(SYSTEM_ERROR_NONE) {
   d73a4:	2000      	movs	r0, #0
   d73a6:	6018      	str	r0, [r3, #0]
   d73a8:	8098      	strh	r0, [r3, #4]
    SleepResult() {}
   d73aa:	7198      	strb	r0, [r3, #6]

class SystemClass {
public:

    SystemClass(System_Mode_TypeDef mode = DEFAULT) {
        set_system_mode(mode);
   d73ac:	f7ff be40 	b.w	d7030 <set_system_mode>
   d73b0:	2003e5a0 	.word	0x2003e5a0
   d73b4:	2003e594 	.word	0x2003e594
   d73b8:	ffff0000 	.word	0xffff0000

000d73bc <_GLOBAL__sub_I__ZN8particle3ble13WiringBleLock6mutex_E>:
    /**
     * Creates a shared mutex.
     */
    RecursiveMutex(os_mutex_recursive_t handle) : handle_(handle) {}

    RecursiveMutex() : handle_(nullptr)
   d73bc:	4802      	ldr	r0, [pc, #8]	; (d73c8 <_GLOBAL__sub_I__ZN8particle3ble13WiringBleLock6mutex_E+0xc>)
   d73be:	2300      	movs	r3, #0
   d73c0:	6003      	str	r3, [r0, #0]
    {
        os_mutex_recursive_create(&handle_);
   d73c2:	f7ff bced 	b.w	d6da0 <os_mutex_recursive_create>
   d73c6:	bf00      	nop
   d73c8:	2003e5a4 	.word	0x2003e5a4

000d73cc <_ZN5Print5writeEPKhj>:

// Public Methods //////////////////////////////////////////////////////////////

/* default implementation: may be overridden */
size_t Print::write(const uint8_t *buffer, size_t size)
{
   d73cc:	b5f8      	push	{r3, r4, r5, r6, r7, lr}
   d73ce:	4606      	mov	r6, r0
   d73d0:	460d      	mov	r5, r1
  size_t n = 0;
   d73d2:	188f      	adds	r7, r1, r2
   d73d4:	2400      	movs	r4, #0
  while (size--) {
   d73d6:	42bd      	cmp	r5, r7
   d73d8:	d00c      	beq.n	d73f4 <_ZN5Print5writeEPKhj+0x28>
     int chunk = write(*buffer++);
   d73da:	6833      	ldr	r3, [r6, #0]
   d73dc:	f815 1b01 	ldrb.w	r1, [r5], #1
   d73e0:	689b      	ldr	r3, [r3, #8]
   d73e2:	4630      	mov	r0, r6
   d73e4:	4798      	blx	r3
     if (chunk>=0)
   d73e6:	1e03      	subs	r3, r0, #0
   d73e8:	db01      	blt.n	d73ee <_ZN5Print5writeEPKhj+0x22>
         n += chunk;
   d73ea:	441c      	add	r4, r3
  while (size--) {
   d73ec:	e7f3      	b.n	d73d6 <_ZN5Print5writeEPKhj+0xa>
     int chunk = write(*buffer++);
   d73ee:	2c00      	cmp	r4, #0
   d73f0:	bf08      	it	eq
   d73f2:	461c      	moveq	r4, r3
             n = chunk;
         break;
     }
  }
  return n;
}
   d73f4:	4620      	mov	r0, r4
   d73f6:	bdf8      	pop	{r3, r4, r5, r6, r7, pc}

000d73f8 <_ZN5Print5writeEPKc>:

    int getWriteError() { return write_error; }
    void clearWriteError() { setWriteError(0); }

    virtual size_t write(uint8_t) = 0;
    size_t write(const char *str) {
   d73f8:	b513      	push	{r0, r1, r4, lr}
   d73fa:	4604      	mov	r4, r0
      if (str == NULL) return 0;
      return write((const uint8_t *)str, strlen(str));
    }
   d73fc:	4608      	mov	r0, r1
      if (str == NULL) return 0;
   d73fe:	b159      	cbz	r1, d7418 <_ZN5Print5writeEPKc+0x20>
      return write((const uint8_t *)str, strlen(str));
   d7400:	9101      	str	r1, [sp, #4]
   d7402:	f002 ff61 	bl	da2c8 <strlen>
   d7406:	6823      	ldr	r3, [r4, #0]
   d7408:	9901      	ldr	r1, [sp, #4]
   d740a:	68db      	ldr	r3, [r3, #12]
   d740c:	4602      	mov	r2, r0
   d740e:	4620      	mov	r0, r4
    }
   d7410:	b002      	add	sp, #8
   d7412:	e8bd 4010 	ldmia.w	sp!, {r4, lr}
      return write((const uint8_t *)str, strlen(str));
   d7416:	4718      	bx	r3
    }
   d7418:	b002      	add	sp, #8
   d741a:	bd10      	pop	{r4, pc}

000d741c <_ZN5Print5printEPKc>:

size_t Print::print(const char str[])
{
   d741c:	b508      	push	{r3, lr}
  return write(str);
   d741e:	f7ff ffeb 	bl	d73f8 <_ZN5Print5writeEPKc>
}
   d7422:	bd08      	pop	{r3, pc}

000d7424 <_ZN5Print5printEc>:

size_t Print::print(char c)
{
  return write(c);
   d7424:	6803      	ldr	r3, [r0, #0]
   d7426:	689b      	ldr	r3, [r3, #8]
   d7428:	4718      	bx	r3

000d742a <_ZN5Print5printEPK19__FlashStringHelper>:
 {
   return x.printTo(*this);
 }

size_t Print::print(const __FlashStringHelper* str)
{
   d742a:	b508      	push	{r3, lr}
  return write(str);
   d742c:	f7ff ffe4 	bl	d73f8 <_ZN5Print5writeEPKc>
  return print(reinterpret_cast<const char*>(str));
}
   d7430:	bd08      	pop	{r3, pc}

000d7432 <_ZN5Print7printlnEv>:

size_t Print::println(void)
{
   d7432:	b538      	push	{r3, r4, r5, lr}
  size_t n = print('\r');
   d7434:	210d      	movs	r1, #13
{
   d7436:	4605      	mov	r5, r0
  size_t n = print('\r');
   d7438:	f7ff fff4 	bl	d7424 <_ZN5Print5printEc>
  n += print('\n');
   d743c:	210a      	movs	r1, #10
  size_t n = print('\r');
   d743e:	4604      	mov	r4, r0
  n += print('\n');
   d7440:	4628      	mov	r0, r5
   d7442:	f7ff ffef 	bl	d7424 <_ZN5Print5printEc>
  return n;
}
   d7446:	4420      	add	r0, r4
   d7448:	bd38      	pop	{r3, r4, r5, pc}

000d744a <_ZN5Print7printlnEPKc>:

size_t Print::println(const char c[])
{
   d744a:	b538      	push	{r3, r4, r5, lr}
   d744c:	4605      	mov	r5, r0
  return write(str);
   d744e:	f7ff ffd3 	bl	d73f8 <_ZN5Print5writeEPKc>
   d7452:	4604      	mov	r4, r0
  size_t n = print(c);
  n += println();
   d7454:	4628      	mov	r0, r5
   d7456:	f7ff ffec 	bl	d7432 <_ZN5Print7printlnEv>
  return n;
}
   d745a:	4420      	add	r0, r4
   d745c:	bd38      	pop	{r3, r4, r5, pc}

000d745e <_ZN5Print7printlnEPK19__FlashStringHelper>:
   return n;
 }

size_t Print::println(const __FlashStringHelper* str)
{
  return println(reinterpret_cast<const char*>(str));
   d745e:	f7ff bff4 	b.w	d744a <_ZN5Print7printlnEPKc>

000d7462 <_ZN5Print11printNumberEmh>:
}

// Private Methods /////////////////////////////////////////////////////////////

size_t Print::printNumber(unsigned long n, uint8_t base) {
   d7462:	b530      	push	{r4, r5, lr}
   d7464:	b08b      	sub	sp, #44	; 0x2c
  char buf[8 * sizeof(n) + 1]; // Assumes 8-bit chars plus zero byte.
  char *str = &buf[sizeof(buf) - 1];

  *str = '\0';
   d7466:	2300      	movs	r3, #0
   d7468:	f88d 3024 	strb.w	r3, [sp, #36]	; 0x24

  // prevent crash if called with base == 1
  if (base < 2) base = 10;
   d746c:	2a01      	cmp	r2, #1
   d746e:	bf98      	it	ls
   d7470:	220a      	movls	r2, #10
   d7472:	ac09      	add	r4, sp, #36	; 0x24

  do {
   decltype(n) m = n;
   n /= base;
   d7474:	460d      	mov	r5, r1
   d7476:	fbb1 f1f2 	udiv	r1, r1, r2
   char c = m - base * n;
   d747a:	fb01 5312 	mls	r3, r1, r2, r5
   d747e:	f003 03ff 	and.w	r3, r3, #255	; 0xff
   *--str = c < 10 ? c + '0' : c + 'A' - 10;
   d7482:	2b09      	cmp	r3, #9
   d7484:	bf94      	ite	ls
   d7486:	3330      	addls	r3, #48	; 0x30
   d7488:	3337      	addhi	r3, #55	; 0x37
   d748a:	b2db      	uxtb	r3, r3
  } while(n);
   d748c:	42aa      	cmp	r2, r5
   *--str = c < 10 ? c + '0' : c + 'A' - 10;
   d748e:	f804 3d01 	strb.w	r3, [r4, #-1]!
  } while(n);
   d7492:	d9ef      	bls.n	d7474 <_ZN5Print11printNumberEmh+0x12>

  return write(str);
   d7494:	4621      	mov	r1, r4
   d7496:	f7ff ffaf 	bl	d73f8 <_ZN5Print5writeEPKc>
}
   d749a:	b00b      	add	sp, #44	; 0x2c
   d749c:	bd30      	pop	{r4, r5, pc}
	...

000d74a0 <_ZN5Print10printFloatEdh>:

  return write(str);
}

size_t Print::printFloat(double number, uint8_t digits)
{
   d74a0:	e92d 4ff7 	stmdb	sp!, {r0, r1, r2, r4, r5, r6, r7, r8, r9, sl, fp, lr}
   d74a4:	ec55 4b10 	vmov	r4, r5, d0
   d74a8:	4606      	mov	r6, r0
   d74aa:	460f      	mov	r7, r1
  size_t n = 0;

  if (isnan(number)) return print("nan");
   d74ac:	ee10 2a10 	vmov	r2, s0
   d74b0:	ee10 0a10 	vmov	r0, s0
   d74b4:	462b      	mov	r3, r5
   d74b6:	4629      	mov	r1, r5
   d74b8:	f002 fb56 	bl	d9b68 <__aeabi_dcmpun>
   d74bc:	b140      	cbz	r0, d74d0 <_ZN5Print10printFloatEdh+0x30>
  return write(str);
   d74be:	4953      	ldr	r1, [pc, #332]	; (d760c <_ZN5Print10printFloatEdh+0x16c>)
   d74c0:	4630      	mov	r0, r6
   d74c2:	f7ff ff99 	bl	d73f8 <_ZN5Print5writeEPKc>
   d74c6:	4682      	mov	sl, r0
    n += print(toPrint);
    remainder -= toPrint;
  }

  return n;
}
   d74c8:	4650      	mov	r0, sl
   d74ca:	b003      	add	sp, #12
   d74cc:	e8bd 8ff0 	ldmia.w	sp!, {r4, r5, r6, r7, r8, r9, sl, fp, pc}
  && !_GLIBCXX_NO_OBSOLETE_ISINF_ISNAN_DYNAMIC
  using ::isinf;
#else
  constexpr bool
  isinf(double __x)
  { return __builtin_isinf(__x); }
   d74d0:	f025 4900 	bic.w	r9, r5, #2147483648	; 0x80000000
  if (isinf(number)) return print("inf");
   d74d4:	4b4e      	ldr	r3, [pc, #312]	; (d7610 <_ZN5Print10printFloatEdh+0x170>)
   d74d6:	f04f 32ff 	mov.w	r2, #4294967295
   d74da:	4620      	mov	r0, r4
   d74dc:	4649      	mov	r1, r9
   d74de:	f002 fb43 	bl	d9b68 <__aeabi_dcmpun>
   d74e2:	b948      	cbnz	r0, d74f8 <_ZN5Print10printFloatEdh+0x58>
   d74e4:	4b4a      	ldr	r3, [pc, #296]	; (d7610 <_ZN5Print10printFloatEdh+0x170>)
   d74e6:	f04f 32ff 	mov.w	r2, #4294967295
   d74ea:	4620      	mov	r0, r4
   d74ec:	4649      	mov	r1, r9
   d74ee:	f002 fb1d 	bl	d9b2c <__aeabi_dcmple>
   d74f2:	b908      	cbnz	r0, d74f8 <_ZN5Print10printFloatEdh+0x58>
  return write(str);
   d74f4:	4947      	ldr	r1, [pc, #284]	; (d7614 <_ZN5Print10printFloatEdh+0x174>)
   d74f6:	e7e3      	b.n	d74c0 <_ZN5Print10printFloatEdh+0x20>
  if (number > 4294967040.0) return print ("ovf");  // constant determined empirically
   d74f8:	4b47      	ldr	r3, [pc, #284]	; (d7618 <_ZN5Print10printFloatEdh+0x178>)
   d74fa:	f04f 4260 	mov.w	r2, #3758096384	; 0xe0000000
   d74fe:	4620      	mov	r0, r4
   d7500:	4629      	mov	r1, r5
   d7502:	f002 fb27 	bl	d9b54 <__aeabi_dcmpgt>
   d7506:	b108      	cbz	r0, d750c <_ZN5Print10printFloatEdh+0x6c>
  return write(str);
   d7508:	4944      	ldr	r1, [pc, #272]	; (d761c <_ZN5Print10printFloatEdh+0x17c>)
   d750a:	e7d9      	b.n	d74c0 <_ZN5Print10printFloatEdh+0x20>
  if (number <-4294967040.0) return print ("ovf");  // constant determined empirically
   d750c:	4b44      	ldr	r3, [pc, #272]	; (d7620 <_ZN5Print10printFloatEdh+0x180>)
   d750e:	f04f 4260 	mov.w	r2, #3758096384	; 0xe0000000
   d7512:	4620      	mov	r0, r4
   d7514:	4629      	mov	r1, r5
   d7516:	f002 faff 	bl	d9b18 <__aeabi_dcmplt>
   d751a:	2800      	cmp	r0, #0
   d751c:	d1f4      	bne.n	d7508 <_ZN5Print10printFloatEdh+0x68>
  if (number < 0.0)
   d751e:	2200      	movs	r2, #0
   d7520:	2300      	movs	r3, #0
   d7522:	4620      	mov	r0, r4
   d7524:	4629      	mov	r1, r5
   d7526:	f002 faf7 	bl	d9b18 <__aeabi_dcmplt>
   d752a:	b1d0      	cbz	r0, d7562 <_ZN5Print10printFloatEdh+0xc2>
     n += print('-');
   d752c:	212d      	movs	r1, #45	; 0x2d
   d752e:	4630      	mov	r0, r6
   d7530:	f7ff ff78 	bl	d7424 <_ZN5Print5printEc>
     number = -number;
   d7534:	f105 4300 	add.w	r3, r5, #2147483648	; 0x80000000
     n += print('-');
   d7538:	4682      	mov	sl, r0
     number = -number;
   d753a:	461d      	mov	r5, r3
  double rounding = 0.5;
   d753c:	4939      	ldr	r1, [pc, #228]	; (d7624 <_ZN5Print10printFloatEdh+0x184>)
    rounding /= 10.0;
   d753e:	f8df 90ec 	ldr.w	r9, [pc, #236]	; d762c <_ZN5Print10printFloatEdh+0x18c>
  size_t n = 0;
   d7542:	f04f 0b00 	mov.w	fp, #0
  double rounding = 0.5;
   d7546:	2000      	movs	r0, #0
    rounding /= 10.0;
   d7548:	f04f 0800 	mov.w	r8, #0
  for (uint8_t i=0; i<digits; ++i)
   d754c:	fa5f f38b 	uxtb.w	r3, fp
   d7550:	429f      	cmp	r7, r3
   d7552:	d908      	bls.n	d7566 <_ZN5Print10printFloatEdh+0xc6>
    rounding /= 10.0;
   d7554:	4642      	mov	r2, r8
   d7556:	464b      	mov	r3, r9
   d7558:	f002 f996 	bl	d9888 <__aeabi_ddiv>
  for (uint8_t i=0; i<digits; ++i)
   d755c:	f10b 0b01 	add.w	fp, fp, #1
   d7560:	e7f4      	b.n	d754c <_ZN5Print10printFloatEdh+0xac>
  size_t n = 0;
   d7562:	4682      	mov	sl, r0
   d7564:	e7ea      	b.n	d753c <_ZN5Print10printFloatEdh+0x9c>
  number += rounding;
   d7566:	4622      	mov	r2, r4
   d7568:	462b      	mov	r3, r5
   d756a:	f001 fead 	bl	d92c8 <__adddf3>
   d756e:	460d      	mov	r5, r1
   d7570:	4604      	mov	r4, r0
  unsigned long int_part = (unsigned long)number;
   d7572:	f002 fb37 	bl	d9be4 <__aeabi_d2uiz>
   d7576:	4680      	mov	r8, r0
  double remainder = number - (double)int_part;
   d7578:	f001 ffe2 	bl	d9540 <__aeabi_ui2d>
   d757c:	4602      	mov	r2, r0
   d757e:	460b      	mov	r3, r1
   d7580:	4620      	mov	r0, r4
   d7582:	4629      	mov	r1, r5
   d7584:	f001 fe9e 	bl	d92c4 <__aeabi_dsub>
            val = n;
        }
#if __GNUC__ >= 9
#pragma GCC diagnostic pop
#endif // __GNUC__ >= 9
        return printNumber(val, base) + t;
   d7588:	220a      	movs	r2, #10
   d758a:	4604      	mov	r4, r0
   d758c:	460d      	mov	r5, r1
   d758e:	4630      	mov	r0, r6
   d7590:	4641      	mov	r1, r8
   d7592:	f7ff ff66 	bl	d7462 <_ZN5Print11printNumberEmh>
  n += print(int_part);
   d7596:	4482      	add	sl, r0
  if (digits > 0) {
   d7598:	b127      	cbz	r7, d75a4 <_ZN5Print10printFloatEdh+0x104>
  return write(str);
   d759a:	4923      	ldr	r1, [pc, #140]	; (d7628 <_ZN5Print10printFloatEdh+0x188>)
   d759c:	4630      	mov	r0, r6
   d759e:	f7ff ff2b 	bl	d73f8 <_ZN5Print5writeEPKc>
    n += print(".");
   d75a2:	4482      	add	sl, r0
    remainder *= 10.0;
   d75a4:	f8df 9084 	ldr.w	r9, [pc, #132]	; d762c <_ZN5Print10printFloatEdh+0x18c>
   d75a8:	f04f 0800 	mov.w	r8, #0
  while (digits-- > 0)
   d75ac:	3f01      	subs	r7, #1
   d75ae:	b2ff      	uxtb	r7, r7
   d75b0:	2fff      	cmp	r7, #255	; 0xff
   d75b2:	d089      	beq.n	d74c8 <_ZN5Print10printFloatEdh+0x28>
    remainder *= 10.0;
   d75b4:	4642      	mov	r2, r8
   d75b6:	464b      	mov	r3, r9
   d75b8:	4620      	mov	r0, r4
   d75ba:	4629      	mov	r1, r5
   d75bc:	f002 f83a 	bl	d9634 <__aeabi_dmul>
   d75c0:	4604      	mov	r4, r0
   d75c2:	460d      	mov	r5, r1
    int toPrint = int(remainder);
   d75c4:	f002 fae6 	bl	d9b94 <__aeabi_d2iz>
        if (n < 0 && base == 10) {
   d75c8:	f1b0 0b00 	subs.w	fp, r0, #0
   d75cc:	da1a      	bge.n	d7604 <_ZN5Print10printFloatEdh+0x164>
            t = print('-');
   d75ce:	212d      	movs	r1, #45	; 0x2d
   d75d0:	4630      	mov	r0, r6
   d75d2:	f7ff ff27 	bl	d7424 <_ZN5Print5printEc>
            val = -n;
   d75d6:	f1cb 0100 	rsb	r1, fp, #0
            t = print('-');
   d75da:	4603      	mov	r3, r0
        return printNumber(val, base) + t;
   d75dc:	220a      	movs	r2, #10
   d75de:	4630      	mov	r0, r6
   d75e0:	9301      	str	r3, [sp, #4]
   d75e2:	f7ff ff3e 	bl	d7462 <_ZN5Print11printNumberEmh>
   d75e6:	9b01      	ldr	r3, [sp, #4]
   d75e8:	4418      	add	r0, r3
    n += print(toPrint);
   d75ea:	4482      	add	sl, r0
    remainder -= toPrint;
   d75ec:	4658      	mov	r0, fp
   d75ee:	f001 ffb7 	bl	d9560 <__aeabi_i2d>
   d75f2:	4602      	mov	r2, r0
   d75f4:	460b      	mov	r3, r1
   d75f6:	4620      	mov	r0, r4
   d75f8:	4629      	mov	r1, r5
   d75fa:	f001 fe63 	bl	d92c4 <__aeabi_dsub>
   d75fe:	4604      	mov	r4, r0
   d7600:	460d      	mov	r5, r1
  while (digits-- > 0)
   d7602:	e7d3      	b.n	d75ac <_ZN5Print10printFloatEdh+0x10c>
            val = n;
   d7604:	4659      	mov	r1, fp
        size_t t = 0;
   d7606:	2300      	movs	r3, #0
   d7608:	e7e8      	b.n	d75dc <_ZN5Print10printFloatEdh+0x13c>
   d760a:	bf00      	nop
   d760c:	000db100 	.word	0x000db100
   d7610:	7fefffff 	.word	0x7fefffff
   d7614:	000db104 	.word	0x000db104
   d7618:	41efffff 	.word	0x41efffff
   d761c:	000db108 	.word	0x000db108
   d7620:	c1efffff 	.word	0xc1efffff
   d7624:	3fe00000 	.word	0x3fe00000
   d7628:	000da77a 	.word	0x000da77a
   d762c:	40240000 	.word	0x40240000

000d7630 <_ZN5Print5printEfi>:
{
   d7630:	b538      	push	{r3, r4, r5, lr}
   d7632:	4604      	mov	r4, r0
   d7634:	ee10 0a10 	vmov	r0, s0
  return printFloat((double)n, digits);
   d7638:	b2cd      	uxtb	r5, r1
   d763a:	f001 ffa3 	bl	d9584 <__aeabi_f2d>
   d763e:	ec41 0b10 	vmov	d0, r0, r1
   d7642:	4629      	mov	r1, r5
   d7644:	4620      	mov	r0, r4
}
   d7646:	e8bd 4038 	ldmia.w	sp!, {r3, r4, r5, lr}
  return printFloat((double)n, digits);
   d764a:	f7ff bf29 	b.w	d74a0 <_ZN5Print10printFloatEdh>

000d764e <_ZN5Print5printEdi>:
  return printFloat(n, digits);
   d764e:	b2c9      	uxtb	r1, r1
   d7650:	f7ff bf26 	b.w	d74a0 <_ZN5Print10printFloatEdh>

000d7654 <_ZN5Print7vprintfEbPKcSt9__va_list>:

size_t Print::vprintf(bool newline, const char* format, va_list args)
{
   d7654:	e92d 41f0 	stmdb	sp!, {r4, r5, r6, r7, r8, lr}
   d7658:	b086      	sub	sp, #24
   d765a:	af00      	add	r7, sp, #0
   d765c:	4605      	mov	r5, r0
   d765e:	460e      	mov	r6, r1
    const int bufsize = 20;
    char test[bufsize];
    va_list args2;
    va_copy(args2, args);
    size_t n = vsnprintf(test, bufsize, format, args);
   d7660:	1d38      	adds	r0, r7, #4
   d7662:	2114      	movs	r1, #20
{
   d7664:	4614      	mov	r4, r2
    va_copy(args2, args);
   d7666:	603b      	str	r3, [r7, #0]
    size_t n = vsnprintf(test, bufsize, format, args);
   d7668:	f7ff fd7e 	bl	d7168 <vsnprintf>

    if (n<bufsize)
   d766c:	2813      	cmp	r0, #19
   d766e:	d80e      	bhi.n	d768e <_ZN5Print7vprintfEbPKcSt9__va_list+0x3a>
  return write(str);
   d7670:	1d39      	adds	r1, r7, #4
   d7672:	4628      	mov	r0, r5
   d7674:	f7ff fec0 	bl	d73f8 <_ZN5Print5writeEPKc>
   d7678:	4604      	mov	r4, r0
    {
        char bigger[n+1];
        n = vsnprintf(bigger, n+1, format, args2);
        n = print(bigger);
    }
    if (newline)
   d767a:	b11e      	cbz	r6, d7684 <_ZN5Print7vprintfEbPKcSt9__va_list+0x30>
        n += println();
   d767c:	4628      	mov	r0, r5
   d767e:	f7ff fed8 	bl	d7432 <_ZN5Print7printlnEv>
   d7682:	4404      	add	r4, r0

    va_end(args2);
    return n;
}
   d7684:	4620      	mov	r0, r4
   d7686:	3718      	adds	r7, #24
   d7688:	46bd      	mov	sp, r7
   d768a:	e8bd 81f0 	ldmia.w	sp!, {r4, r5, r6, r7, r8, pc}
        char bigger[n+1];
   d768e:	f100 0308 	add.w	r3, r0, #8
   d7692:	f023 0307 	bic.w	r3, r3, #7
        n = print(bigger);
   d7696:	46e8      	mov	r8, sp
        char bigger[n+1];
   d7698:	ebad 0d03 	sub.w	sp, sp, r3
        n = vsnprintf(bigger, n+1, format, args2);
   d769c:	4622      	mov	r2, r4
   d769e:	1c41      	adds	r1, r0, #1
   d76a0:	683b      	ldr	r3, [r7, #0]
   d76a2:	4668      	mov	r0, sp
   d76a4:	f7ff fd60 	bl	d7168 <vsnprintf>
  return write(str);
   d76a8:	4669      	mov	r1, sp
   d76aa:	4628      	mov	r0, r5
   d76ac:	f7ff fea4 	bl	d73f8 <_ZN5Print5writeEPKc>
   d76b0:	4604      	mov	r4, r0
   d76b2:	46c5      	mov	sp, r8
   d76b4:	e7e1      	b.n	d767a <_ZN5Print7vprintfEbPKcSt9__va_list+0x26>
	...

000d76b8 <_GLOBAL__sub_I__ZN5spark3LogE>:
    // This handler doesn't support direct logging
}

// spark::Logger
inline spark::Logger::Logger(const char *name) :
        name_(name) {
   d76b8:	4b01      	ldr	r3, [pc, #4]	; (d76c0 <_GLOBAL__sub_I__ZN5spark3LogE+0x8>)
   d76ba:	4a02      	ldr	r2, [pc, #8]	; (d76c4 <_GLOBAL__sub_I__ZN5spark3LogE+0xc>)
   d76bc:	601a      	str	r2, [r3, #0]
#if Wiring_LogConfig

// spark::
void spark::logProcessControlRequest(ctrl_request* req) {
    JSONRequestHandler::process(req);
}
   d76be:	4770      	bx	lr
   d76c0:	2003e5a8 	.word	0x2003e5a8
   d76c4:	000db10c 	.word	0x000db10c

000d76c8 <_GLOBAL__sub_I_TIME_FORMAT_DEFAULT>:
            calendar_time_cache = Convert_UnixTime_To_CalendarTime(unix_time);
            unix_time_cache = unix_time;
    }
}

const char* TimeClass::format_spec = TIME_FORMAT_DEFAULT;
   d76c8:	4b02      	ldr	r3, [pc, #8]	; (d76d4 <_GLOBAL__sub_I_TIME_FORMAT_DEFAULT+0xc>)
   d76ca:	681a      	ldr	r2, [r3, #0]
   d76cc:	4b02      	ldr	r3, [pc, #8]	; (d76d8 <_GLOBAL__sub_I_TIME_FORMAT_DEFAULT+0x10>)
   d76ce:	601a      	str	r2, [r3, #0]
{
  return isValid();
}


TimeClass Time;
   d76d0:	4770      	bx	lr
   d76d2:	bf00      	nop
   d76d4:	2003e44c 	.word	0x2003e44c
   d76d8:	2003e5ac 	.word	0x2003e5ac

000d76dc <delay>:
    return (value - fromStart) * (toEnd - toStart) / (fromEnd - fromStart) + toStart;
}

void delay(unsigned long ms)
{
    system_delay_ms(ms, false);
   d76dc:	2100      	movs	r1, #0
   d76de:	f7ff bcaf 	b.w	d7040 <system_delay_ms>
	...

000d76e4 <_GLOBAL__sub_I_RGB>:
	static void
	_M_init_functor(_Any_data& __functor, _Functor&& __f, false_type)
	{ __functor._M_access<_Functor*>() = new _Functor(std::move(__f)); }
      };

    _Function_base() : _M_manager(nullptr) { }
   d76e4:	4b01      	ldr	r3, [pc, #4]	; (d76ec <_GLOBAL__sub_I_RGB+0x8>)
   d76e6:	2200      	movs	r2, #0
   d76e8:	609a      	str	r2, [r3, #8]
{
    RGBClass* const d = static_cast<RGBClass*>(data);
    if (d->changeHandler_) {
        d->changeHandler_(r, g, b);
    }
}
   d76ea:	4770      	bx	lr
   d76ec:	2003e5b0 	.word	0x2003e5b0

000d76f0 <_ZZ21module_user_init_hookENUlP6_reentjmPvE_4_FUNES0_jmS1_>:

void module_user_init_hook()
{
#if HAL_PLATFORM_NEWLIB
    newlib_impure_ptr_callback([](struct _reent* r, size_t size, uint32_t version, void* ctx) -> void {
        _impure_ptr = r;
   d76f0:	4b01      	ldr	r3, [pc, #4]	; (d76f8 <_ZZ21module_user_init_hookENUlP6_reentjmPvE_4_FUNES0_jmS1_+0x8>)
   d76f2:	6018      	str	r0, [r3, #0]
    }, nullptr);
   d76f4:	4770      	bx	lr
   d76f6:	bf00      	nop
   d76f8:	2003e454 	.word	0x2003e454

000d76fc <serialEventRun>:
{
   d76fc:	b508      	push	{r3, lr}
    if (serialEvent && Serial.available()>0)
   d76fe:	4b0b      	ldr	r3, [pc, #44]	; (d772c <serialEventRun+0x30>)
   d7700:	b143      	cbz	r3, d7714 <serialEventRun+0x18>
   d7702:	f000 f967 	bl	d79d4 <_Z16_fetch_usbserialv>
   d7706:	6803      	ldr	r3, [r0, #0]
   d7708:	691b      	ldr	r3, [r3, #16]
   d770a:	4798      	blx	r3
   d770c:	2800      	cmp	r0, #0
   d770e:	dd01      	ble.n	d7714 <serialEventRun+0x18>
        serialEvent();
   d7710:	f3af 8000 	nop.w
    if (serialEvent1 && Serial1.available()>0)
   d7714:	4b06      	ldr	r3, [pc, #24]	; (d7730 <serialEventRun+0x34>)
   d7716:	b143      	cbz	r3, d772a <serialEventRun+0x2e>
   d7718:	f000 fa22 	bl	d7b60 <_Z22__fetch_global_Serial1v>
   d771c:	6803      	ldr	r3, [r0, #0]
   d771e:	691b      	ldr	r3, [r3, #16]
   d7720:	4798      	blx	r3
   d7722:	2800      	cmp	r0, #0
   d7724:	dd01      	ble.n	d772a <serialEventRun+0x2e>
        serialEvent1();
   d7726:	f3af 8000 	nop.w
}
   d772a:	bd08      	pop	{r3, pc}
	...

000d7734 <_post_loop>:
{
   d7734:	b508      	push	{r3, lr}
	serialEventRun();
   d7736:	f7ff ffe1 	bl	d76fc <serialEventRun>
		return !timeout_fn;
	}

	static inline system_tick_t current_time()
	{
		return HAL_Timer_Get_Milli_Seconds();
   d773a:	f7ff fb21 	bl	d6d80 <HAL_Timer_Get_Milli_Seconds>
	/**
	 * Lifesign that the application is still working normally.
	 */
	static void checkin()
	{
		last_checkin = current_time();
   d773e:	4b01      	ldr	r3, [pc, #4]	; (d7744 <_post_loop+0x10>)
   d7740:	6018      	str	r0, [r3, #0]
}
   d7742:	bd08      	pop	{r3, pc}
   d7744:	2003e738 	.word	0x2003e738

000d7748 <_Z33system_initialize_user_backup_ramv>:
    memcpy(&link_global_retained_start, &link_global_retained_initial_values, len);
   d7748:	4805      	ldr	r0, [pc, #20]	; (d7760 <_Z33system_initialize_user_backup_ramv+0x18>)
   d774a:	4a06      	ldr	r2, [pc, #24]	; (d7764 <_Z33system_initialize_user_backup_ramv+0x1c>)
   d774c:	4906      	ldr	r1, [pc, #24]	; (d7768 <_Z33system_initialize_user_backup_ramv+0x20>)
{
   d774e:	b508      	push	{r3, lr}
    memcpy(&link_global_retained_start, &link_global_retained_initial_values, len);
   d7750:	1a12      	subs	r2, r2, r0
   d7752:	f002 fd7f 	bl	da254 <memcpy>
    __backup_sram_signature = signature;
   d7756:	4b05      	ldr	r3, [pc, #20]	; (d776c <_Z33system_initialize_user_backup_ramv+0x24>)
   d7758:	4a05      	ldr	r2, [pc, #20]	; (d7770 <_Z33system_initialize_user_backup_ramv+0x28>)
   d775a:	601a      	str	r2, [r3, #0]
}
   d775c:	bd08      	pop	{r3, pc}
   d775e:	bf00      	nop
   d7760:	2003f400 	.word	0x2003f400
   d7764:	2003f404 	.word	0x2003f404
   d7768:	000db298 	.word	0x000db298
   d776c:	2003f400 	.word	0x2003f400
   d7770:	9a271c1e 	.word	0x9a271c1e

000d7774 <_Z27ctrl_request_custom_handlerP12ctrl_request>:
void __attribute((weak)) ctrl_request_custom_handler(ctrl_request* req) {
   d7774:	b507      	push	{r0, r1, r2, lr}
    system_ctrl_set_result(req, SYSTEM_ERROR_NOT_SUPPORTED, nullptr, nullptr, nullptr);
   d7776:	2300      	movs	r3, #0
   d7778:	9300      	str	r3, [sp, #0]
   d777a:	461a      	mov	r2, r3
   d777c:	f06f 0177 	mvn.w	r1, #119	; 0x77
   d7780:	f7ff fc70 	bl	d7064 <system_ctrl_set_result>
}
   d7784:	b003      	add	sp, #12
   d7786:	f85d fb04 	ldr.w	pc, [sp], #4
	...

000d778c <_ZL20ctrl_request_handlerP12ctrl_request>:
static void ctrl_request_handler(ctrl_request* req) {
   d778c:	b507      	push	{r0, r1, r2, lr}
    switch (req->type) {
   d778e:	8843      	ldrh	r3, [r0, #2]
   d7790:	2b0a      	cmp	r3, #10
   d7792:	d008      	beq.n	d77a6 <_ZL20ctrl_request_handlerP12ctrl_request+0x1a>
   d7794:	2b50      	cmp	r3, #80	; 0x50
   d7796:	d10b      	bne.n	d77b0 <_ZL20ctrl_request_handlerP12ctrl_request+0x24>
        if (log_process_ctrl_request_callback) {
   d7798:	4b09      	ldr	r3, [pc, #36]	; (d77c0 <_ZL20ctrl_request_handlerP12ctrl_request+0x34>)
   d779a:	681b      	ldr	r3, [r3, #0]
   d779c:	b14b      	cbz	r3, d77b2 <_ZL20ctrl_request_handlerP12ctrl_request+0x26>
}
   d779e:	b003      	add	sp, #12
   d77a0:	f85d eb04 	ldr.w	lr, [sp], #4
            log_process_ctrl_request_callback(req);
   d77a4:	4718      	bx	r3
        ctrl_request_custom_handler(req);
   d77a6:	f7ff ffe5 	bl	d7774 <_Z27ctrl_request_custom_handlerP12ctrl_request>
}
   d77aa:	b003      	add	sp, #12
   d77ac:	f85d fb04 	ldr.w	pc, [sp], #4
        system_ctrl_set_result(req, SYSTEM_ERROR_NOT_SUPPORTED, nullptr, nullptr, nullptr);
   d77b0:	2300      	movs	r3, #0
   d77b2:	9300      	str	r3, [sp, #0]
   d77b4:	461a      	mov	r2, r3
   d77b6:	f06f 0177 	mvn.w	r1, #119	; 0x77
   d77ba:	f7ff fc53 	bl	d7064 <system_ctrl_set_result>
}
   d77be:	e7f4      	b.n	d77aa <_ZL20ctrl_request_handlerP12ctrl_request+0x1e>
   d77c0:	2003e5c4 	.word	0x2003e5c4

000d77c4 <module_user_init_hook>:
{
   d77c4:	b510      	push	{r4, lr}
    newlib_impure_ptr_callback([](struct _reent* r, size_t size, uint32_t version, void* ctx) -> void {
   d77c6:	4812      	ldr	r0, [pc, #72]	; (d7810 <module_user_init_hook+0x4c>)
   d77c8:	2100      	movs	r1, #0
   d77ca:	f7ff fcdd 	bl	d7188 <newlib_impure_ptr_callback>
#endif // HAL_PLATFORM_NEWLIB

#if HAL_PLATFORM_BACKUP_RAM
    backup_ram_was_valid_ = __backup_sram_signature == signature;
   d77ce:	4b11      	ldr	r3, [pc, #68]	; (d7814 <module_user_init_hook+0x50>)
   d77d0:	681a      	ldr	r2, [r3, #0]
   d77d2:	4b11      	ldr	r3, [pc, #68]	; (d7818 <module_user_init_hook+0x54>)
   d77d4:	429a      	cmp	r2, r3
   d77d6:	4b11      	ldr	r3, [pc, #68]	; (d781c <module_user_init_hook+0x58>)
   d77d8:	bf0c      	ite	eq
   d77da:	2201      	moveq	r2, #1
   d77dc:	2200      	movne	r2, #0
   d77de:	701a      	strb	r2, [r3, #0]
    if (!backup_ram_was_valid_) {
   d77e0:	d001      	beq.n	d77e6 <module_user_init_hook+0x22>
        system_initialize_user_backup_ram();
   d77e2:	f7ff ffb1 	bl	d7748 <_Z33system_initialize_user_backup_ramv>
    }
#endif

#if HAL_PLATFORM_RNG
    // Initialize the default stdlib PRNG using hardware RNG as a seed
    const uint32_t seed = HAL_RNG_GetRandomNumber();
   d77e6:	f7ff fabb 	bl	d6d60 <HAL_RNG_GetRandomNumber>
   d77ea:	4604      	mov	r4, r0
    srand(seed);
   d77ec:	f002 fd48 	bl	da280 <srand>

    // If the user defines random_seed_from_cloud, call it with a seed value
    // generated by a hardware RNG as well.
    if (random_seed_from_cloud) {
   d77f0:	4b0b      	ldr	r3, [pc, #44]	; (d7820 <module_user_init_hook+0x5c>)
   d77f2:	b113      	cbz	r3, d77fa <module_user_init_hook+0x36>
        random_seed_from_cloud(seed);
   d77f4:	4620      	mov	r0, r4
   d77f6:	f3af 8000 	nop.w
    }
#endif
    // Register the random_seed_from_cloud handler
    spark_set_random_seed_from_cloud_handler(&random_seed_from_cloud, nullptr);
   d77fa:	2100      	movs	r1, #0
   d77fc:	4808      	ldr	r0, [pc, #32]	; (d7820 <module_user_init_hook+0x5c>)
   d77fe:	f7ff fc9b 	bl	d7138 <spark_set_random_seed_from_cloud_handler>

    // Register application handler for the control requests
    system_ctrl_set_app_request_handler(ctrl_request_handler, nullptr);
}
   d7802:	e8bd 4010 	ldmia.w	sp!, {r4, lr}
    system_ctrl_set_app_request_handler(ctrl_request_handler, nullptr);
   d7806:	4807      	ldr	r0, [pc, #28]	; (d7824 <module_user_init_hook+0x60>)
   d7808:	2100      	movs	r1, #0
   d780a:	f7ff bc21 	b.w	d7050 <system_ctrl_set_app_request_handler>
   d780e:	bf00      	nop
   d7810:	000d76f1 	.word	0x000d76f1
   d7814:	2003f400 	.word	0x2003f400
   d7818:	9a271c1e 	.word	0x9a271c1e
   d781c:	2003e5c0 	.word	0x2003e5c0
   d7820:	00000000 	.word	0x00000000
   d7824:	000d778d 	.word	0x000d778d

000d7828 <_ZN9IPAddressD1Ev>:
    IPAddress(uint8_t first_octet, uint8_t second_octet, uint8_t third_octet, uint8_t fourth_octet);
    IPAddress(uint32_t address);
    IPAddress(const uint8_t* address);
    IPAddress(const HAL_IPAddress& address);

    virtual ~IPAddress() {}
   d7828:	4770      	bx	lr

000d782a <_ZN9IPAddressD0Ev>:
   d782a:	b510      	push	{r4, lr}
   d782c:	2118      	movs	r1, #24
   d782e:	4604      	mov	r4, r0
   d7830:	f000 fba2 	bl	d7f78 <_ZdlPvj>
   d7834:	4620      	mov	r0, r4
   d7836:	bd10      	pop	{r4, pc}

000d7838 <_ZNK9IPAddress7printToER5Print>:
#endif // Wiring_IPv6
	return address.ipv4==that.address.ipv4;
}

size_t IPAddress::printTo(Print& p) const
{
   d7838:	b5f0      	push	{r4, r5, r6, r7, lr}
#if Wiring_IPv6
#if HAL_USE_INET_HAL_POSIX
	if (address.v==6) {
   d783a:	7d03      	ldrb	r3, [r0, #20]
   d783c:	2b06      	cmp	r3, #6
{
   d783e:	b08d      	sub	sp, #52	; 0x34
   d7840:	460e      	mov	r6, r1
   d7842:	f100 0704 	add.w	r7, r0, #4
   d7846:	f04f 0400 	mov.w	r4, #0
	if (address.v==6) {
   d784a:	d012      	beq.n	d7872 <_ZNK9IPAddress7printToER5Print+0x3a>
   d784c:	f100 0508 	add.w	r5, r0, #8
        return printNumber(val, base) + t;
   d7850:	f815 1d01 	ldrb.w	r1, [r5, #-1]!
   d7854:	220a      	movs	r2, #10
   d7856:	4630      	mov	r0, r6
   d7858:	f7ff fe03 	bl	d7462 <_ZN5Print11printNumberEmh>
#else
#pragma message "HAL_USE_INET_HAL_POSIX is required for IPv6 support in IPAddress::printTo()"
#endif // HAL_USE_INET_HAL_POSIX
#endif // Wiring_IPv6
    size_t n = 0;
    for (int i = 0; i < 4; i++)
   d785c:	42af      	cmp	r7, r5
    {
        if (n)
            n += p.print('.');
        n += p.print((*this)[i], DEC);
   d785e:	4404      	add	r4, r0
    for (int i = 0; i < 4; i++)
   d7860:	d019      	beq.n	d7896 <_ZNK9IPAddress7printToER5Print+0x5e>
        if (n)
   d7862:	2c00      	cmp	r4, #0
   d7864:	d0f4      	beq.n	d7850 <_ZNK9IPAddress7printToER5Print+0x18>
            n += p.print('.');
   d7866:	212e      	movs	r1, #46	; 0x2e
   d7868:	4630      	mov	r0, r6
   d786a:	f7ff fddb 	bl	d7424 <_ZN5Print5printEc>
   d786e:	4404      	add	r4, r0
   d7870:	e7ee      	b.n	d7850 <_ZNK9IPAddress7printToER5Print+0x18>
		inet_inet_ntop(AF_INET6, address.ipv6, buf, sizeof(buf));
   d7872:	232f      	movs	r3, #47	; 0x2f
   d7874:	466a      	mov	r2, sp
   d7876:	4639      	mov	r1, r7
   d7878:	200a      	movs	r0, #10
		buf[0] = 0;
   d787a:	f88d 4000 	strb.w	r4, [sp]
		inet_inet_ntop(AF_INET6, address.ipv6, buf, sizeof(buf));
   d787e:	f7ff fa97 	bl	d6db0 <inet_inet_ntop>
      return write((const uint8_t *)str, strlen(str));
   d7882:	4668      	mov	r0, sp
   d7884:	f002 fd20 	bl	da2c8 <strlen>
   d7888:	6833      	ldr	r3, [r6, #0]
   d788a:	4602      	mov	r2, r0
   d788c:	68db      	ldr	r3, [r3, #12]
   d788e:	4669      	mov	r1, sp
   d7890:	4630      	mov	r0, r6
   d7892:	4798      	blx	r3
   d7894:	4604      	mov	r4, r0
    }
    return n;
}
   d7896:	4620      	mov	r0, r4
   d7898:	b00d      	add	sp, #52	; 0x34
   d789a:	bdf0      	pop	{r4, r5, r6, r7, pc}

000d789c <_ZN9IPAddressC1Ev>:
IPAddress::IPAddress()
   d789c:	b510      	push	{r4, lr}
   d789e:	4b05      	ldr	r3, [pc, #20]	; (d78b4 <_ZN9IPAddressC1Ev+0x18>)
   d78a0:	4604      	mov	r4, r0
        return address;
    }

    virtual size_t printTo(Print& p) const;

    void clear() { memset(&address, 0, sizeof (address)); }
   d78a2:	2211      	movs	r2, #17
   d78a4:	f840 3b04 	str.w	r3, [r0], #4
   d78a8:	2100      	movs	r1, #0
   d78aa:	f002 fce1 	bl	da270 <memset>
}
   d78ae:	4620      	mov	r0, r4
   d78b0:	bd10      	pop	{r4, pc}
   d78b2:	bf00      	nop
   d78b4:	000db134 	.word	0x000db134

000d78b8 <_ZN9IPAddressC1ERK16_HAL_IPAddress_t>:
IPAddress::IPAddress(const HAL_IPAddress& address)
   d78b8:	4603      	mov	r3, r0
   d78ba:	4a07      	ldr	r2, [pc, #28]	; (d78d8 <_ZN9IPAddressC1ERK16_HAL_IPAddress_t+0x20>)
   d78bc:	b510      	push	{r4, lr}
   d78be:	f843 2b04 	str.w	r2, [r3], #4
    memcpy(&this->address, &address, sizeof(address));
   d78c2:	f101 0210 	add.w	r2, r1, #16
   d78c6:	f851 4b04 	ldr.w	r4, [r1], #4
   d78ca:	f843 4b04 	str.w	r4, [r3], #4
   d78ce:	4291      	cmp	r1, r2
   d78d0:	d1f9      	bne.n	d78c6 <_ZN9IPAddressC1ERK16_HAL_IPAddress_t+0xe>
   d78d2:	780a      	ldrb	r2, [r1, #0]
   d78d4:	701a      	strb	r2, [r3, #0]
}
   d78d6:	bd10      	pop	{r4, pc}
   d78d8:	000db134 	.word	0x000db134

000d78dc <_ZN9IPAddress8set_ipv4Ehhhh>:
{
   d78dc:	b510      	push	{r4, lr}
    address.ipv4 = b0<<24 | b1 << 16 | b2 << 8 | b3;
   d78de:	f89d 4008 	ldrb.w	r4, [sp, #8]
   d78e2:	ea44 2303 	orr.w	r3, r4, r3, lsl #8
   d78e6:	ea43 4202 	orr.w	r2, r3, r2, lsl #16
   d78ea:	ea42 6101 	orr.w	r1, r2, r1, lsl #24
        address.v = version;
   d78ee:	2304      	movs	r3, #4
   d78f0:	6041      	str	r1, [r0, #4]
   d78f2:	7503      	strb	r3, [r0, #20]
}
   d78f4:	bd10      	pop	{r4, pc}

000d78f6 <_ZN9IPAddressaSEPKh>:
{
   d78f6:	b513      	push	{r0, r1, r4, lr}
    set_ipv4(address[0], address[1], address[2], address[3]);
   d78f8:	78cb      	ldrb	r3, [r1, #3]
   d78fa:	9300      	str	r3, [sp, #0]
   d78fc:	788b      	ldrb	r3, [r1, #2]
   d78fe:	784a      	ldrb	r2, [r1, #1]
   d7900:	7809      	ldrb	r1, [r1, #0]
   d7902:	f7ff ffeb 	bl	d78dc <_ZN9IPAddress8set_ipv4Ehhhh>
}
   d7906:	b002      	add	sp, #8
   d7908:	bd10      	pop	{r4, pc}

000d790a <_ZN9USBSerial14blockOnOverrunEb>:
  HAL_USB_USART_Flush_Data(_serial);
}

void USBSerial::blockOnOverrun(bool block)
{
  _blocking = block;
   d790a:	7441      	strb	r1, [r0, #17]
}
   d790c:	4770      	bx	lr

000d790e <__tcf_0>:
}

USBSerial& _fetch_usbserial()
{
  HAL_USB_USART_Config conf = acquireSerialBuffer();
	static USBSerial _usbserial(HAL_USB_USART_SERIAL, conf);
   d790e:	4770      	bx	lr

000d7910 <_ZN9USBSerialD1Ev>:
#include "usb_hal.h"
#include "system_task.h"
#include "spark_wiring_startup.h"
#include "concurrent_hal.h"

class USBSerial : public Stream
   d7910:	4770      	bx	lr

000d7912 <_ZN9USBSerial4readEv>:
{
   d7912:	b508      	push	{r3, lr}
	return std::max(-1, (int)HAL_USB_USART_Receive_Data(_serial, false));
   d7914:	2100      	movs	r1, #0
   d7916:	7c00      	ldrb	r0, [r0, #16]
   d7918:	f7ff fb62 	bl	d6fe0 <HAL_USB_USART_Receive_Data>
}
   d791c:	ea40 70e0 	orr.w	r0, r0, r0, asr #31
   d7920:	bd08      	pop	{r3, pc}

000d7922 <_ZN9USBSerial4peekEv>:
{
   d7922:	b508      	push	{r3, lr}
	return std::max(-1, (int)HAL_USB_USART_Receive_Data(_serial, true));
   d7924:	2101      	movs	r1, #1
   d7926:	7c00      	ldrb	r0, [r0, #16]
   d7928:	f7ff fb5a 	bl	d6fe0 <HAL_USB_USART_Receive_Data>
}
   d792c:	ea40 70e0 	orr.w	r0, r0, r0, asr #31
   d7930:	bd08      	pop	{r3, pc}

000d7932 <_ZN9USBSerial17availableForWriteEv>:
{
   d7932:	b508      	push	{r3, lr}
  return std::max(0, (int)HAL_USB_USART_Available_Data_For_Write(_serial));
   d7934:	7c00      	ldrb	r0, [r0, #16]
   d7936:	f7ff fb4b 	bl	d6fd0 <HAL_USB_USART_Available_Data_For_Write>
}
   d793a:	ea20 70e0 	bic.w	r0, r0, r0, asr #31
   d793e:	bd08      	pop	{r3, pc}

000d7940 <_ZN9USBSerial9availableEv>:
{
   d7940:	b508      	push	{r3, lr}
	return std::max(0, (int)HAL_USB_USART_Available_Data(_serial));
   d7942:	7c00      	ldrb	r0, [r0, #16]
   d7944:	f7ff fb3c 	bl	d6fc0 <HAL_USB_USART_Available_Data>
}
   d7948:	ea20 70e0 	bic.w	r0, r0, r0, asr #31
   d794c:	bd08      	pop	{r3, pc}

000d794e <_ZN9USBSerial5writeEh>:
{
   d794e:	b513      	push	{r0, r1, r4, lr}
   d7950:	4604      	mov	r4, r0
  if (HAL_USB_USART_Available_Data_For_Write(_serial) > 0 || _blocking) {
   d7952:	7c00      	ldrb	r0, [r0, #16]
{
   d7954:	9101      	str	r1, [sp, #4]
  if (HAL_USB_USART_Available_Data_For_Write(_serial) > 0 || _blocking) {
   d7956:	f7ff fb3b 	bl	d6fd0 <HAL_USB_USART_Available_Data_For_Write>
   d795a:	2800      	cmp	r0, #0
   d795c:	9901      	ldr	r1, [sp, #4]
   d795e:	dc01      	bgt.n	d7964 <_ZN9USBSerial5writeEh+0x16>
   d7960:	7c60      	ldrb	r0, [r4, #17]
   d7962:	b120      	cbz	r0, d796e <_ZN9USBSerial5writeEh+0x20>
    return std::max(0, (int)HAL_USB_USART_Send_Data(_serial, byte));
   d7964:	7c20      	ldrb	r0, [r4, #16]
   d7966:	f7ff fb43 	bl	d6ff0 <HAL_USB_USART_Send_Data>
   d796a:	ea20 70e0 	bic.w	r0, r0, r0, asr #31
}
   d796e:	b002      	add	sp, #8
   d7970:	bd10      	pop	{r4, pc}

000d7972 <_ZN9USBSerial5flushEv>:
  HAL_USB_USART_Flush_Data(_serial);
   d7972:	7c00      	ldrb	r0, [r0, #16]
   d7974:	f7ff bb44 	b.w	d7000 <HAL_USB_USART_Flush_Data>

000d7978 <_ZN9USBSerialD0Ev>:
   d7978:	b510      	push	{r4, lr}
   d797a:	2114      	movs	r1, #20
   d797c:	4604      	mov	r4, r0
   d797e:	f000 fafb 	bl	d7f78 <_ZdlPvj>
   d7982:	4620      	mov	r0, r4
   d7984:	bd10      	pop	{r4, pc}
	...

000d7988 <_ZN9USBSerialC1E20HAL_USB_USART_SerialRK20HAL_USB_USART_Config>:
USBSerial::USBSerial(HAL_USB_USART_Serial serial, const HAL_USB_USART_Config& conf)
   d7988:	b510      	push	{r4, lr}
    virtual int available() = 0;
    virtual int read() = 0;
    virtual int peek() = 0;
    virtual void flush() = 0;

    Stream() {_timeout=1000;}
   d798a:	f44f 737a 	mov.w	r3, #1000	; 0x3e8
   d798e:	4604      	mov	r4, r0
   d7990:	4608      	mov	r0, r1
   d7992:	2100      	movs	r1, #0
   d7994:	e9c4 1301 	strd	r1, r3, [r4, #4]
   d7998:	4b04      	ldr	r3, [pc, #16]	; (d79ac <_ZN9USBSerialC1E20HAL_USB_USART_SerialRK20HAL_USB_USART_Config+0x24>)
   d799a:	6023      	str	r3, [r4, #0]
  _blocking = true;
   d799c:	2301      	movs	r3, #1
  _serial = serial;
   d799e:	7420      	strb	r0, [r4, #16]
  _blocking = true;
   d79a0:	7463      	strb	r3, [r4, #17]
  HAL_USB_USART_Init(_serial, &conf);
   d79a2:	4611      	mov	r1, r2
   d79a4:	f7ff fafc 	bl	d6fa0 <HAL_USB_USART_Init>
}
   d79a8:	4620      	mov	r0, r4
   d79aa:	bd10      	pop	{r4, pc}
   d79ac:	000db148 	.word	0x000db148

000d79b0 <_ZN9USBSerial5beginEl>:
    HAL_USB_USART_Begin(_serial, speed, NULL);
   d79b0:	7c00      	ldrb	r0, [r0, #16]
   d79b2:	2200      	movs	r2, #0
   d79b4:	f7ff bafc 	b.w	d6fb0 <HAL_USB_USART_Begin>

000d79b8 <_ZN9USBSerial9isEnabledEv>:
  return HAL_USB_USART_Is_Enabled(_serial);
   d79b8:	7c00      	ldrb	r0, [r0, #16]
   d79ba:	f7ff bb29 	b.w	d7010 <HAL_USB_USART_Is_Enabled>

000d79be <_ZN9USBSerialcvbEv>:
  return isEnabled();
   d79be:	f7ff bffb 	b.w	d79b8 <_ZN9USBSerial9isEnabledEv>

000d79c2 <_Z19acquireSerialBufferv>:
{
   d79c2:	b510      	push	{r4, lr}
  HAL_USB_USART_Config conf = {0};
   d79c4:	2214      	movs	r2, #20
{
   d79c6:	4604      	mov	r4, r0
  HAL_USB_USART_Config conf = {0};
   d79c8:	2100      	movs	r1, #0
   d79ca:	f002 fc51 	bl	da270 <memset>
}
   d79ce:	4620      	mov	r0, r4
   d79d0:	bd10      	pop	{r4, pc}
	...

000d79d4 <_Z16_fetch_usbserialv>:
{
   d79d4:	b510      	push	{r4, lr}
	static USBSerial _usbserial(HAL_USB_USART_SERIAL, conf);
   d79d6:	4c0f      	ldr	r4, [pc, #60]	; (d7a14 <_Z16_fetch_usbserialv+0x40>)
{
   d79d8:	b088      	sub	sp, #32
  HAL_USB_USART_Config conf = acquireSerialBuffer();
   d79da:	a803      	add	r0, sp, #12
   d79dc:	f7ff fff1 	bl	d79c2 <_Z19acquireSerialBufferv>
	static USBSerial _usbserial(HAL_USB_USART_SERIAL, conf);
   d79e0:	7821      	ldrb	r1, [r4, #0]
   d79e2:	f3bf 8f5b 	dmb	ish
   d79e6:	f011 0101 	ands.w	r1, r1, #1
   d79ea:	d10f      	bne.n	d7a0c <_Z16_fetch_usbserialv+0x38>
   d79ec:	4620      	mov	r0, r4
   d79ee:	9101      	str	r1, [sp, #4]
   d79f0:	f7fc fb62 	bl	d40b8 <__cxa_guard_acquire>
   d79f4:	9901      	ldr	r1, [sp, #4]
   d79f6:	b148      	cbz	r0, d7a0c <_Z16_fetch_usbserialv+0x38>
   d79f8:	aa03      	add	r2, sp, #12
   d79fa:	4807      	ldr	r0, [pc, #28]	; (d7a18 <_Z16_fetch_usbserialv+0x44>)
   d79fc:	f7ff ffc4 	bl	d7988 <_ZN9USBSerialC1E20HAL_USB_USART_SerialRK20HAL_USB_USART_Config>
   d7a00:	4620      	mov	r0, r4
   d7a02:	f7fc fb5e 	bl	d40c2 <__cxa_guard_release>
   d7a06:	4805      	ldr	r0, [pc, #20]	; (d7a1c <_Z16_fetch_usbserialv+0x48>)
   d7a08:	f002 fc1e 	bl	da248 <atexit>
	return _usbserial;
}
   d7a0c:	4802      	ldr	r0, [pc, #8]	; (d7a18 <_Z16_fetch_usbserialv+0x44>)
   d7a0e:	b008      	add	sp, #32
   d7a10:	bd10      	pop	{r4, pc}
   d7a12:	bf00      	nop
   d7a14:	2003e5c8 	.word	0x2003e5c8
   d7a18:	2003e5cc 	.word	0x2003e5cc
   d7a1c:	000d790f 	.word	0x000d790f

000d7a20 <_ZN5spark13CellularClass5readyEv>:
        return network_listening(*this, 0, NULL);
    }

    bool ready()
    {
        return network_ready(*this, 0,  NULL);
   d7a20:	2200      	movs	r2, #0
   d7a22:	6840      	ldr	r0, [r0, #4]
   d7a24:	4611      	mov	r1, r2
   d7a26:	f7ff bb3f 	b.w	d70a8 <network_ready>

000d7a2a <_ZN5spark13CellularClass9listeningEv>:
        return network_listening(*this, 0, NULL);
   d7a2a:	2200      	movs	r2, #0
   d7a2c:	6840      	ldr	r0, [r0, #4]
   d7a2e:	4611      	mov	r1, r2
   d7a30:	f7ff bb5a 	b.w	d70e8 <network_listening>

000d7a34 <_ZN5spark13CellularClass16getListenTimeoutEv>:
        return network_get_listen_timeout(*this, 0, NULL);
   d7a34:	2200      	movs	r2, #0
   d7a36:	6840      	ldr	r0, [r0, #4]
   d7a38:	4611      	mov	r1, r2
   d7a3a:	f7ff bb65 	b.w	d7108 <network_get_listen_timeout>

000d7a3e <_ZN5spark13CellularClass16setListenTimeoutEt>:
        network_set_listen_timeout(*this, timeout, NULL);
   d7a3e:	6840      	ldr	r0, [r0, #4]
   d7a40:	2200      	movs	r2, #0
   d7a42:	f7ff bb59 	b.w	d70f8 <network_set_listen_timeout>

000d7a46 <_ZN5spark13CellularClass6listenEb>:
        network_listen(*this, begin ? 0 : 1, NULL);
   d7a46:	6840      	ldr	r0, [r0, #4]
   d7a48:	2200      	movs	r2, #0
   d7a4a:	f081 0101 	eor.w	r1, r1, #1
   d7a4e:	f7ff bb43 	b.w	d70d8 <network_listen>

000d7a52 <_ZN5spark13CellularClass3offEv>:
        network_off(*this, 0, 0, NULL);
   d7a52:	2300      	movs	r3, #0
   d7a54:	6840      	ldr	r0, [r0, #4]
   d7a56:	461a      	mov	r2, r3
   d7a58:	4619      	mov	r1, r3
   d7a5a:	f7ff bb35 	b.w	d70c8 <network_off>

000d7a5e <_ZN5spark13CellularClass2onEv>:
        network_on(*this, 0, 0, NULL);
   d7a5e:	2300      	movs	r3, #0
   d7a60:	6840      	ldr	r0, [r0, #4]
   d7a62:	461a      	mov	r2, r3
   d7a64:	4619      	mov	r1, r3
   d7a66:	f7ff bb27 	b.w	d70b8 <network_on>

000d7a6a <_ZN5spark13CellularClass10connectingEv>:
        return network_connecting(*this, 0, NULL);
   d7a6a:	2200      	movs	r2, #0
   d7a6c:	6840      	ldr	r0, [r0, #4]
   d7a6e:	4611      	mov	r1, r2
   d7a70:	f7ff bb0a 	b.w	d7088 <network_connecting>

000d7a74 <_ZN5spark13CellularClass10disconnectEv>:
        network_disconnect(*this, NETWORK_DISCONNECT_REASON_USER, NULL);
   d7a74:	6840      	ldr	r0, [r0, #4]
   d7a76:	2200      	movs	r2, #0
   d7a78:	2102      	movs	r1, #2
   d7a7a:	f7ff bb0d 	b.w	d7098 <network_disconnect>

000d7a7e <_ZN5spark13CellularClass7connectEj>:
        network_connect(*this, flags, 0, NULL);
   d7a7e:	2300      	movs	r3, #0
   d7a80:	6840      	ldr	r0, [r0, #4]
   d7a82:	461a      	mov	r2, r3
   d7a84:	f7ff baf8 	b.w	d7078 <network_connect>

000d7a88 <_GLOBAL__sub_I__ZN5spark13CellularClass4RSSIEv>:
    int tx_total;
    int rx_total;

    CellularDataHal()
    {
        memset(this, 0, sizeof(*this));
   d7a88:	4b08      	ldr	r3, [pc, #32]	; (d7aac <_GLOBAL__sub_I__ZN5spark13CellularClass4RSSIEv+0x24>)
        return (band_get.ok = true);
    }

    CellularClass Cellular;
    // NetworkClass& Network = Cellular;
}
   d7a8a:	b510      	push	{r4, lr}
   d7a8c:	2428      	movs	r4, #40	; 0x28
   d7a8e:	4622      	mov	r2, r4
   d7a90:	4618      	mov	r0, r3
   d7a92:	2100      	movs	r1, #0
   d7a94:	f002 fbec 	bl	da270 <memset>
   d7a98:	4b05      	ldr	r3, [pc, #20]	; (d7ab0 <_GLOBAL__sub_I__ZN5spark13CellularClass4RSSIEv+0x28>)
        cid = -1;
        size = sizeof(*this);
   d7a9a:	8004      	strh	r4, [r0, #0]
        cid = -1;
   d7a9c:	f04f 32ff 	mov.w	r2, #4294967295
   d7aa0:	6042      	str	r2, [r0, #4]
   d7aa2:	2204      	movs	r2, #4
   d7aa4:	605a      	str	r2, [r3, #4]
            NetworkClass(NETWORK_INTERFACE_CELLULAR) {
   d7aa6:	4a03      	ldr	r2, [pc, #12]	; (d7ab4 <_GLOBAL__sub_I__ZN5spark13CellularClass4RSSIEv+0x2c>)
   d7aa8:	601a      	str	r2, [r3, #0]
   d7aaa:	bd10      	pop	{r4, pc}
   d7aac:	2003e5e8 	.word	0x2003e5e8
   d7ab0:	2003e5e0 	.word	0x2003e5e0
   d7ab4:	000db178 	.word	0x000db178

000d7ab8 <_ZN11USARTSerialD1Ev>:
private:
  hal_usart_interface_t _serial;
  bool _blocking;
public:
  USARTSerial(hal_usart_interface_t serial, hal_usart_ring_buffer_t *rx_buffer, hal_usart_ring_buffer_t *tx_buffer);
  virtual ~USARTSerial() {};
   d7ab8:	4770      	bx	lr

000d7aba <_ZN11USARTSerial14blockOnOverrunEb>:
    hal_usart_half_duplex(_serial, Enable);
}

void USARTSerial::blockOnOverrun(bool block)
{
  _blocking = block;
   d7aba:	7441      	strb	r1, [r0, #17]
}
   d7abc:	4770      	bx	lr

000d7abe <__tcf_0>:
#endif

USARTSerial& __fetch_global_Serial1()
{
#if ((MODULE_FUNCTION == MOD_FUNC_USER_PART) || (MODULE_FUNCTION == MOD_FUNC_MONO_FIRMWARE))
	static USARTSerial serial1(HAL_USART_SERIAL1, &serial1_rx_buffer, &serial1_tx_buffer);
   d7abe:	4770      	bx	lr

000d7ac0 <_ZN11USARTSerial17availableForWriteEv>:
{
   d7ac0:	b508      	push	{r3, lr}
  return std::max(0, (int)hal_usart_available_data_for_write(_serial));
   d7ac2:	7c00      	ldrb	r0, [r0, #16]
   d7ac4:	f7ff f9b4 	bl	d6e30 <hal_usart_available_data_for_write>
}
   d7ac8:	ea20 70e0 	bic.w	r0, r0, r0, asr #31
   d7acc:	bd08      	pop	{r3, pc}

000d7ace <_ZN11USARTSerial9availableEv>:
{
   d7ace:	b508      	push	{r3, lr}
  return std::max(0, (int)hal_usart_available(_serial));
   d7ad0:	7c00      	ldrb	r0, [r0, #16]
   d7ad2:	f7ff f985 	bl	d6de0 <hal_usart_available>
}
   d7ad6:	ea20 70e0 	bic.w	r0, r0, r0, asr #31
   d7ada:	bd08      	pop	{r3, pc}

000d7adc <_ZN11USARTSerial4peekEv>:
{
   d7adc:	b508      	push	{r3, lr}
  return std::max(-1, (int)hal_usart_peek(_serial));
   d7ade:	7c00      	ldrb	r0, [r0, #16]
   d7ae0:	f7ff f98e 	bl	d6e00 <hal_usart_peek>
}
   d7ae4:	ea40 70e0 	orr.w	r0, r0, r0, asr #31
   d7ae8:	bd08      	pop	{r3, pc}

000d7aea <_ZN11USARTSerial4readEv>:
{
   d7aea:	b508      	push	{r3, lr}
  return std::max(-1, (int)hal_usart_read(_serial));
   d7aec:	7c00      	ldrb	r0, [r0, #16]
   d7aee:	f7ff f97f 	bl	d6df0 <hal_usart_read>
}
   d7af2:	ea40 70e0 	orr.w	r0, r0, r0, asr #31
   d7af6:	bd08      	pop	{r3, pc}

000d7af8 <_ZN11USARTSerial5flushEv>:
  hal_usart_flush(_serial);
   d7af8:	7c00      	ldrb	r0, [r0, #16]
   d7afa:	f7ff b989 	b.w	d6e10 <hal_usart_flush>

000d7afe <_ZN11USARTSerial5writeEh>:
{
   d7afe:	b537      	push	{r0, r1, r2, r4, r5, lr}
  if (_blocking || hal_usart_available_data_for_write(_serial) > 0) {
   d7b00:	7c45      	ldrb	r5, [r0, #17]
{
   d7b02:	4604      	mov	r4, r0
  if (_blocking || hal_usart_available_data_for_write(_serial) > 0) {
   d7b04:	b12d      	cbz	r5, d7b12 <_ZN11USARTSerial5writeEh+0x14>
	  return hal_usart_write(_serial, c);
   d7b06:	7c20      	ldrb	r0, [r4, #16]
}
   d7b08:	b003      	add	sp, #12
   d7b0a:	e8bd 4030 	ldmia.w	sp!, {r4, r5, lr}
	  return hal_usart_write(_serial, c);
   d7b0e:	f7ff b95f 	b.w	d6dd0 <hal_usart_write>
  if (_blocking || hal_usart_available_data_for_write(_serial) > 0) {
   d7b12:	7c00      	ldrb	r0, [r0, #16]
   d7b14:	9101      	str	r1, [sp, #4]
   d7b16:	f7ff f98b 	bl	d6e30 <hal_usart_available_data_for_write>
   d7b1a:	2800      	cmp	r0, #0
   d7b1c:	9901      	ldr	r1, [sp, #4]
   d7b1e:	dcf2      	bgt.n	d7b06 <_ZN11USARTSerial5writeEh+0x8>
}
   d7b20:	4628      	mov	r0, r5
   d7b22:	b003      	add	sp, #12
   d7b24:	bd30      	pop	{r4, r5, pc}

000d7b26 <_ZN11USARTSerialD0Ev>:
   d7b26:	b510      	push	{r4, lr}
   d7b28:	2114      	movs	r1, #20
   d7b2a:	4604      	mov	r4, r0
   d7b2c:	f000 fa24 	bl	d7f78 <_ZdlPvj>
   d7b30:	4620      	mov	r0, r4
   d7b32:	bd10      	pop	{r4, pc}

000d7b34 <_ZN11USARTSerialC1E21hal_usart_interface_tP23hal_usart_ring_buffer_tS2_>:
USARTSerial::USARTSerial(hal_usart_interface_t serial, hal_usart_ring_buffer_t *rx_buffer, hal_usart_ring_buffer_t *tx_buffer)
   d7b34:	b510      	push	{r4, lr}
   d7b36:	f04f 0c00 	mov.w	ip, #0
   d7b3a:	4604      	mov	r4, r0
   d7b3c:	4608      	mov	r0, r1
   d7b3e:	4611      	mov	r1, r2
   d7b40:	f44f 727a 	mov.w	r2, #1000	; 0x3e8
   d7b44:	e9c4 c201 	strd	ip, r2, [r4, #4]
   d7b48:	4a04      	ldr	r2, [pc, #16]	; (d7b5c <_ZN11USARTSerialC1E21hal_usart_interface_tP23hal_usart_ring_buffer_tS2_+0x28>)
   d7b4a:	6022      	str	r2, [r4, #0]
  _blocking = true;
   d7b4c:	2201      	movs	r2, #1
  _serial = serial;
   d7b4e:	7420      	strb	r0, [r4, #16]
  _blocking = true;
   d7b50:	7462      	strb	r2, [r4, #17]
  hal_usart_init(serial, rx_buffer, tx_buffer);
   d7b52:	461a      	mov	r2, r3
   d7b54:	f7ff f934 	bl	d6dc0 <hal_usart_init>
}
   d7b58:	4620      	mov	r0, r4
   d7b5a:	bd10      	pop	{r4, pc}
   d7b5c:	000db1b4 	.word	0x000db1b4

000d7b60 <_Z22__fetch_global_Serial1v>:
{
   d7b60:	b513      	push	{r0, r1, r4, lr}
	static USARTSerial serial1(HAL_USART_SERIAL1, &serial1_rx_buffer, &serial1_tx_buffer);
   d7b62:	4c0d      	ldr	r4, [pc, #52]	; (d7b98 <_Z22__fetch_global_Serial1v+0x38>)
   d7b64:	7821      	ldrb	r1, [r4, #0]
   d7b66:	f3bf 8f5b 	dmb	ish
   d7b6a:	f011 0101 	ands.w	r1, r1, #1
   d7b6e:	d110      	bne.n	d7b92 <_Z22__fetch_global_Serial1v+0x32>
   d7b70:	4620      	mov	r0, r4
   d7b72:	9101      	str	r1, [sp, #4]
   d7b74:	f7fc faa0 	bl	d40b8 <__cxa_guard_acquire>
   d7b78:	9901      	ldr	r1, [sp, #4]
   d7b7a:	b150      	cbz	r0, d7b92 <_Z22__fetch_global_Serial1v+0x32>
   d7b7c:	4b07      	ldr	r3, [pc, #28]	; (d7b9c <_Z22__fetch_global_Serial1v+0x3c>)
   d7b7e:	4a08      	ldr	r2, [pc, #32]	; (d7ba0 <_Z22__fetch_global_Serial1v+0x40>)
   d7b80:	4808      	ldr	r0, [pc, #32]	; (d7ba4 <_Z22__fetch_global_Serial1v+0x44>)
   d7b82:	f7ff ffd7 	bl	d7b34 <_ZN11USARTSerialC1E21hal_usart_interface_tP23hal_usart_ring_buffer_tS2_>
   d7b86:	4620      	mov	r0, r4
   d7b88:	f7fc fa9b 	bl	d40c2 <__cxa_guard_release>
   d7b8c:	4806      	ldr	r0, [pc, #24]	; (d7ba8 <_Z22__fetch_global_Serial1v+0x48>)
   d7b8e:	f002 fb5b 	bl	da248 <atexit>
    serial1_tx_buffer = new hal_usart_ring_buffer_t();
  }
  static USARTSerial serial1(HAL_USART_SERIAL1, serial1_rx_buffer, serial1_tx_buffer);
#endif
	return serial1;
}
   d7b92:	4804      	ldr	r0, [pc, #16]	; (d7ba4 <_Z22__fetch_global_Serial1v+0x44>)
   d7b94:	b002      	add	sp, #8
   d7b96:	bd10      	pop	{r4, pc}
   d7b98:	2003e610 	.word	0x2003e610
   d7b9c:	2003e698 	.word	0x2003e698
   d7ba0:	2003e614 	.word	0x2003e614
   d7ba4:	2003e71c 	.word	0x2003e71c
   d7ba8:	000d7abf 	.word	0x000d7abf

000d7bac <_ZN7TwoWireD1Ev>:
private:
  hal_i2c_interface_t _i2c;

public:
  TwoWire(hal_i2c_interface_t i2c, const hal_i2c_config_t& config);
  virtual ~TwoWire() {};
   d7bac:	4770      	bx	lr

000d7bae <_ZN7TwoWire5writeEPKhj>:

// must be called in:
// slave tx event callback
// or after beginTransmission(address)
size_t TwoWire::write(const uint8_t *data, size_t quantity)
{
   d7bae:	b5f8      	push	{r3, r4, r5, r6, r7, lr}
   d7bb0:	4606      	mov	r6, r0
   d7bb2:	4615      	mov	r5, r2
   d7bb4:	460c      	mov	r4, r1
   d7bb6:	188f      	adds	r7, r1, r2
  // in master/slave transmitter mode
  for(size_t i = 0; i < quantity; ++i)
   d7bb8:	42bc      	cmp	r4, r7
   d7bba:	d006      	beq.n	d7bca <_ZN7TwoWire5writeEPKhj+0x1c>
  {
    write(data[i]);
   d7bbc:	6833      	ldr	r3, [r6, #0]
   d7bbe:	f814 1b01 	ldrb.w	r1, [r4], #1
   d7bc2:	689b      	ldr	r3, [r3, #8]
   d7bc4:	4630      	mov	r0, r6
   d7bc6:	4798      	blx	r3
  for(size_t i = 0; i < quantity; ++i)
   d7bc8:	e7f6      	b.n	d7bb8 <_ZN7TwoWire5writeEPKhj+0xa>
  }

  return quantity;
}
   d7bca:	4628      	mov	r0, r5
   d7bcc:	bdf8      	pop	{r3, r4, r5, r6, r7, pc}

000d7bce <_ZN7TwoWire5writeEh>:
  return hal_i2c_write(_i2c, data, NULL);
   d7bce:	7c00      	ldrb	r0, [r0, #16]
   d7bd0:	2200      	movs	r2, #0
   d7bd2:	f7ff b955 	b.w	d6e80 <hal_i2c_write>

000d7bd6 <_ZN7TwoWire9availableEv>:
// must be called in:
// slave rx event callback
// or after requestFrom(address, numBytes)
int TwoWire::available(void)
{
  return hal_i2c_available(_i2c, NULL);
   d7bd6:	7c00      	ldrb	r0, [r0, #16]
   d7bd8:	2100      	movs	r1, #0
   d7bda:	f7ff b959 	b.w	d6e90 <hal_i2c_available>

000d7bde <_ZN7TwoWire4readEv>:
// must be called in:
// slave rx event callback
// or after requestFrom(address, numBytes)
int TwoWire::read(void)
{
  return hal_i2c_read(_i2c, NULL);
   d7bde:	7c00      	ldrb	r0, [r0, #16]
   d7be0:	2100      	movs	r1, #0
   d7be2:	f7ff b95d 	b.w	d6ea0 <hal_i2c_read>

000d7be6 <_ZN7TwoWire4peekEv>:
// must be called in:
// slave rx event callback
// or after requestFrom(address, numBytes)
int TwoWire::peek(void)
{
  return hal_i2c_peek(_i2c, NULL);
   d7be6:	7c00      	ldrb	r0, [r0, #16]
   d7be8:	2100      	movs	r1, #0
   d7bea:	f7ff b961 	b.w	d6eb0 <hal_i2c_peek>

000d7bee <_ZN7TwoWire5flushEv>:
}

void TwoWire::flush(void)
{
  hal_i2c_flush(_i2c, NULL);
   d7bee:	7c00      	ldrb	r0, [r0, #16]
   d7bf0:	2100      	movs	r1, #0
   d7bf2:	f7ff b965 	b.w	d6ec0 <hal_i2c_flush>

000d7bf6 <_ZN7TwoWireD0Ev>:
   d7bf6:	b510      	push	{r4, lr}
   d7bf8:	2114      	movs	r1, #20
   d7bfa:	4604      	mov	r4, r0
   d7bfc:	f000 f9bc 	bl	d7f78 <_ZdlPvj>
   d7c00:	4620      	mov	r0, r4
   d7c02:	bd10      	pop	{r4, pc}

000d7c04 <_ZN7TwoWireC1E19hal_i2c_interface_tRK16hal_i2c_config_t>:
TwoWire::TwoWire(hal_i2c_interface_t i2c, const hal_i2c_config_t& conf)
   d7c04:	b510      	push	{r4, lr}
   d7c06:	f44f 737a 	mov.w	r3, #1000	; 0x3e8
   d7c0a:	4604      	mov	r4, r0
   d7c0c:	4608      	mov	r0, r1
   d7c0e:	2100      	movs	r1, #0
   d7c10:	e9c4 1301 	strd	r1, r3, [r4, #4]
   d7c14:	4b03      	ldr	r3, [pc, #12]	; (d7c24 <_ZN7TwoWireC1E19hal_i2c_interface_tRK16hal_i2c_config_t+0x20>)
   d7c16:	6023      	str	r3, [r4, #0]
  _i2c = i2c;
   d7c18:	7420      	strb	r0, [r4, #16]
  hal_i2c_init(_i2c, &conf);
   d7c1a:	4611      	mov	r1, r2
   d7c1c:	f7ff f960 	bl	d6ee0 <hal_i2c_init>
}
   d7c20:	4620      	mov	r0, r4
   d7c22:	bd10      	pop	{r4, pc}
   d7c24:	000db1e4 	.word	0x000db1e4

000d7c28 <_ZN7TwoWire8setSpeedEm>:
  hal_i2c_set_speed(_i2c, clockSpeed, NULL);
   d7c28:	7c00      	ldrb	r0, [r0, #16]
   d7c2a:	2200      	movs	r2, #0
   d7c2c:	f7ff b908 	b.w	d6e40 <hal_i2c_set_speed>

000d7c30 <_ZN7TwoWire5beginEv>:
	hal_i2c_begin(_i2c, I2C_MODE_MASTER, 0x00, NULL);
   d7c30:	2300      	movs	r3, #0
   d7c32:	7c00      	ldrb	r0, [r0, #16]
   d7c34:	461a      	mov	r2, r3
   d7c36:	4619      	mov	r1, r3
   d7c38:	f7ff b90a 	b.w	d6e50 <hal_i2c_begin>

000d7c3c <_ZN7TwoWire11requestFromERK16WireTransmission>:
size_t TwoWire::requestFrom(const WireTransmission& transfer) {
   d7c3c:	b57f      	push	{r0, r1, r2, r3, r4, r5, r6, lr}
    hal_i2c_transmission_config_t conf = {
   d7c3e:	2200      	movs	r2, #0
   d7c40:	2314      	movs	r3, #20
   d7c42:	e9cd 2201 	strd	r2, r2, [sp, #4]
   d7c46:	f8ad 3004 	strh.w	r3, [sp, #4]
    };
   d7c4a:	780b      	ldrb	r3, [r1, #0]
   d7c4c:	f88d 3008 	strb.w	r3, [sp, #8]
   d7c50:	684b      	ldr	r3, [r1, #4]
   d7c52:	9303      	str	r3, [sp, #12]
   d7c54:	68cb      	ldr	r3, [r1, #12]
   d7c56:	9304      	str	r3, [sp, #16]
  return hal_i2c_request_ex(_i2c, &conf, nullptr);
   d7c58:	7c00      	ldrb	r0, [r0, #16]
      .flags = (uint32_t)(stop_ ? HAL_I2C_TRANSMISSION_FLAG_STOP : 0)
   d7c5a:	7a0b      	ldrb	r3, [r1, #8]
   d7c5c:	9305      	str	r3, [sp, #20]
   d7c5e:	a901      	add	r1, sp, #4
   d7c60:	f7ff f946 	bl	d6ef0 <hal_i2c_request_ex>
}
   d7c64:	b007      	add	sp, #28
   d7c66:	f85d fb04 	ldr.w	pc, [sp], #4

000d7c6a <_ZN7TwoWire11requestFromEhjh>:
{
   d7c6a:	b51f      	push	{r0, r1, r2, r3, r4, lr}
  return requestFrom(WireTransmission(address).quantity(quantity).stop(sendStop));
   d7c6c:	3b00      	subs	r3, #0
        timeout_{HAL_I2C_DEFAULT_TIMEOUT_MS} {
   d7c6e:	f88d 1000 	strb.w	r1, [sp]
   d7c72:	f04f 0164 	mov.w	r1, #100	; 0x64
   d7c76:	9103      	str	r1, [sp, #12]
   d7c78:	bf18      	it	ne
   d7c7a:	2301      	movne	r3, #1
   d7c7c:	4669      	mov	r1, sp
    size_ = size;
   d7c7e:	9201      	str	r2, [sp, #4]
   d7c80:	f88d 3008 	strb.w	r3, [sp, #8]
   d7c84:	f7ff ffda 	bl	d7c3c <_ZN7TwoWire11requestFromERK16WireTransmission>
}
   d7c88:	b005      	add	sp, #20
   d7c8a:	f85d fb04 	ldr.w	pc, [sp], #4

000d7c8e <_ZN7TwoWire11requestFromEhj>:
  return requestFrom(address, quantity, (uint8_t)true);
   d7c8e:	2301      	movs	r3, #1
   d7c90:	f7ff bfeb 	b.w	d7c6a <_ZN7TwoWire11requestFromEhjh>

000d7c94 <_ZN7TwoWire17beginTransmissionEh>:
	hal_i2c_begin_transmission(_i2c, address, NULL);
   d7c94:	7c00      	ldrb	r0, [r0, #16]
   d7c96:	2200      	movs	r2, #0
   d7c98:	f7ff b8e2 	b.w	d6e60 <hal_i2c_begin_transmission>

000d7c9c <_ZN7TwoWire15endTransmissionEh>:
	return hal_i2c_end_transmission(_i2c, sendStop, NULL);
   d7c9c:	7c00      	ldrb	r0, [r0, #16]
   d7c9e:	2200      	movs	r2, #0
   d7ca0:	f7ff b8e6 	b.w	d6e70 <hal_i2c_end_transmission>

000d7ca4 <_ZN7TwoWire15endTransmissionEv>:
  return endTransmission(true);
   d7ca4:	2101      	movs	r1, #1
   d7ca6:	f7ff bff9 	b.w	d7c9c <_ZN7TwoWire15endTransmissionEh>

000d7caa <_ZN5spark12NetworkClass7connectEj>:
        return Network;
    }
}

void NetworkClass::connect(unsigned flags) {
    network_connect(*this, flags, 0, nullptr);
   d7caa:	2300      	movs	r3, #0
   d7cac:	6840      	ldr	r0, [r0, #4]
   d7cae:	461a      	mov	r2, r3
   d7cb0:	f7ff b9e2 	b.w	d7078 <network_connect>

000d7cb4 <_ZN5spark12NetworkClass10disconnectEv>:
}

void NetworkClass::disconnect() {
    network_disconnect(*this, NETWORK_DISCONNECT_REASON_USER, nullptr);
   d7cb4:	6840      	ldr	r0, [r0, #4]
   d7cb6:	2200      	movs	r2, #0
   d7cb8:	2102      	movs	r1, #2
   d7cba:	f7ff b9ed 	b.w	d7098 <network_disconnect>

000d7cbe <_ZN5spark12NetworkClass10connectingEv>:
}

bool NetworkClass::connecting() {
    return network_connecting(*this, 0, nullptr);
   d7cbe:	2200      	movs	r2, #0
   d7cc0:	6840      	ldr	r0, [r0, #4]
   d7cc2:	4611      	mov	r1, r2
   d7cc4:	f7ff b9e0 	b.w	d7088 <network_connecting>

000d7cc8 <_ZN5spark12NetworkClass5readyEv>:
}

bool NetworkClass::ready() {
    return network_ready(*this, 0, nullptr);
   d7cc8:	2200      	movs	r2, #0
   d7cca:	6840      	ldr	r0, [r0, #4]
   d7ccc:	4611      	mov	r1, r2
   d7cce:	f7ff b9eb 	b.w	d70a8 <network_ready>

000d7cd2 <_ZN5spark12NetworkClass2onEv>:
}

void NetworkClass::on() {
    network_on(*this, 0, 0, nullptr);
   d7cd2:	2300      	movs	r3, #0
   d7cd4:	6840      	ldr	r0, [r0, #4]
   d7cd6:	461a      	mov	r2, r3
   d7cd8:	4619      	mov	r1, r3
   d7cda:	f7ff b9ed 	b.w	d70b8 <network_on>

000d7cde <_ZN5spark12NetworkClass3offEv>:
}

void NetworkClass::off() {
    network_off(*this, 0, 0, nullptr);
   d7cde:	2300      	movs	r3, #0
   d7ce0:	6840      	ldr	r0, [r0, #4]
   d7ce2:	461a      	mov	r2, r3
   d7ce4:	4619      	mov	r1, r3
   d7ce6:	f7ff b9ef 	b.w	d70c8 <network_off>

000d7cea <_ZN5spark12NetworkClass4isOnEv>:
}

bool NetworkClass::isOn() {
    return network_is_on(*this, nullptr);
   d7cea:	6840      	ldr	r0, [r0, #4]
   d7cec:	2100      	movs	r1, #0
   d7cee:	f7ff ba13 	b.w	d7118 <network_is_on>

000d7cf2 <_ZN5spark12NetworkClass5isOffEv>:
}

bool NetworkClass::isOff() {
    return network_is_off(*this, nullptr);
   d7cf2:	6840      	ldr	r0, [r0, #4]
   d7cf4:	2100      	movs	r1, #0
   d7cf6:	f7ff ba17 	b.w	d7128 <network_is_off>

000d7cfa <_ZN5spark12NetworkClass6listenEb>:
}

void NetworkClass::listen(bool begin) {
    network_listen(*this, begin ? 0 : 1, nullptr);
   d7cfa:	6840      	ldr	r0, [r0, #4]
   d7cfc:	2200      	movs	r2, #0
   d7cfe:	f081 0101 	eor.w	r1, r1, #1
   d7d02:	f7ff b9e9 	b.w	d70d8 <network_listen>

000d7d06 <_ZN5spark12NetworkClass16setListenTimeoutEt>:
}

void NetworkClass::setListenTimeout(uint16_t timeout) {
    network_set_listen_timeout(*this, timeout, nullptr);
   d7d06:	6840      	ldr	r0, [r0, #4]
   d7d08:	2200      	movs	r2, #0
   d7d0a:	f7ff b9f5 	b.w	d70f8 <network_set_listen_timeout>

000d7d0e <_ZN5spark12NetworkClass16getListenTimeoutEv>:
}

uint16_t NetworkClass::getListenTimeout() {
    return network_get_listen_timeout(*this, 0, nullptr);
   d7d0e:	2200      	movs	r2, #0
   d7d10:	6840      	ldr	r0, [r0, #4]
   d7d12:	4611      	mov	r1, r2
   d7d14:	f7ff b9f8 	b.w	d7108 <network_get_listen_timeout>

000d7d18 <_ZN5spark12NetworkClass9listeningEv>:
}

bool NetworkClass::listening() {
    return network_listening(*this, 0, nullptr);
   d7d18:	2200      	movs	r2, #0
   d7d1a:	6840      	ldr	r0, [r0, #4]
   d7d1c:	4611      	mov	r1, r2
   d7d1e:	f7ff b9e3 	b.w	d70e8 <network_listening>

000d7d22 <_ZN5spark12NetworkClass7resolveEPKc>:
}

IPAddress NetworkClass::resolve(const char* name) {
   d7d22:	e92d 43f0 	stmdb	sp!, {r4, r5, r6, r7, r8, r9, lr}
    IPAddress addr;
#if HAL_USE_INET_HAL_POSIX
    struct addrinfo *ai = nullptr;
   d7d26:	2400      	movs	r4, #0
IPAddress NetworkClass::resolve(const char* name) {
   d7d28:	b095      	sub	sp, #84	; 0x54
   d7d2a:	4616      	mov	r6, r2
   d7d2c:	460d      	mov	r5, r1
   d7d2e:	4607      	mov	r7, r0
    IPAddress addr;
   d7d30:	f7ff fdb4 	bl	d789c <_ZN9IPAddressC1Ev>
    struct addrinfo hints = {};
   d7d34:	4621      	mov	r1, r4
   d7d36:	2218      	movs	r2, #24
   d7d38:	a80e      	add	r0, sp, #56	; 0x38
    struct addrinfo *ai = nullptr;
   d7d3a:	9400      	str	r4, [sp, #0]
    struct addrinfo hints = {};
   d7d3c:	f002 fa98 	bl	da270 <memset>
    hints.ai_flags = AI_ADDRCONFIG;
   d7d40:	2340      	movs	r3, #64	; 0x40
    hints.ai_family = AF_UNSPEC;
   d7d42:	e9cd 340c 	strd	r3, r4, [sp, #48]	; 0x30
    const int r = getaddrinfo(name, nullptr, &hints, &ai);
   d7d46:	4621      	mov	r1, r4
   d7d48:	466b      	mov	r3, sp
   d7d4a:	aa0c      	add	r2, sp, #48	; 0x30
   d7d4c:	4630      	mov	r0, r6
   d7d4e:	f7fe ffdf 	bl	d6d10 <netdb_getaddrinfo>
    if (!r) {
   d7d52:	4604      	mov	r4, r0
   d7d54:	2800      	cmp	r0, #0
   d7d56:	d146      	bne.n	d7de6 <_ZN5spark12NetworkClass7resolveEPKc+0xc4>
        bool ok = false;
        // This is not really needed if AI_ADDRCONFIG is properly supported
        bool ipv4 = network_ready(*this, NETWORK_READY_TYPE_IPV4, nullptr);
   d7d58:	4602      	mov	r2, r0
   d7d5a:	2101      	movs	r1, #1
   d7d5c:	6868      	ldr	r0, [r5, #4]
   d7d5e:	f7ff f9a3 	bl	d70a8 <network_ready>
        bool ipv6 = network_ready(*this, NETWORK_READY_TYPE_IPV6, nullptr);
   d7d62:	2102      	movs	r1, #2
        bool ipv4 = network_ready(*this, NETWORK_READY_TYPE_IPV4, nullptr);
   d7d64:	4680      	mov	r8, r0
        bool ipv6 = network_ready(*this, NETWORK_READY_TYPE_IPV6, nullptr);
   d7d66:	4622      	mov	r2, r4
   d7d68:	6868      	ldr	r0, [r5, #4]
   d7d6a:	f7ff f99d 	bl	d70a8 <network_ready>
        for (auto cur = ai; cur != nullptr && !ok; cur = cur->ai_next) {
   d7d6e:	9e00      	ldr	r6, [sp, #0]
        bool ipv6 = network_ready(*this, NETWORK_READY_TYPE_IPV6, nullptr);
   d7d70:	4681      	mov	r9, r0
        bool ok = false;
   d7d72:	4621      	mov	r1, r4
        for (auto cur = ai; cur != nullptr && !ok; cur = cur->ai_next) {
   d7d74:	2e00      	cmp	r6, #0
   d7d76:	d036      	beq.n	d7de6 <_ZN5spark12NetworkClass7resolveEPKc+0xc4>
   d7d78:	2900      	cmp	r1, #0
   d7d7a:	d134      	bne.n	d7de6 <_ZN5spark12NetworkClass7resolveEPKc+0xc4>
            // NOTE: using only the first entry that matches the current state of IPv4/IPv6 connectivity
            switch (cur->ai_family) {
   d7d7c:	6873      	ldr	r3, [r6, #4]
   d7d7e:	2b02      	cmp	r3, #2
   d7d80:	d003      	beq.n	d7d8a <_ZN5spark12NetworkClass7resolveEPKc+0x68>
   d7d82:	2b0a      	cmp	r3, #10
   d7d84:	d00b      	beq.n	d7d9e <_ZN5spark12NetworkClass7resolveEPKc+0x7c>
        for (auto cur = ai; cur != nullptr && !ok; cur = cur->ai_next) {
   d7d86:	69f6      	ldr	r6, [r6, #28]
   d7d88:	e7f4      	b.n	d7d74 <_ZN5spark12NetworkClass7resolveEPKc+0x52>
                case AF_INET: {
                    if (!ipv4) {
   d7d8a:	f1b8 0f00 	cmp.w	r8, #0
   d7d8e:	d004      	beq.n	d7d9a <_ZN5spark12NetworkClass7resolveEPKc+0x78>
                        continue;
                    }
                    // NOTE: HAL_IPAddress is little-endian
                    auto in = (struct sockaddr_in*)cur->ai_addr;
                    addr = (const uint8_t*)(&in->sin_addr.s_addr);
   d7d90:	6971      	ldr	r1, [r6, #20]
   d7d92:	4638      	mov	r0, r7
   d7d94:	3104      	adds	r1, #4
   d7d96:	f7ff fdae 	bl	d78f6 <_ZN9IPAddressaSEPKh>
                    ok = true;
                    break;
   d7d9a:	4641      	mov	r1, r8
   d7d9c:	e7f3      	b.n	d7d86 <_ZN5spark12NetworkClass7resolveEPKc+0x64>
                }
                case AF_INET6: {
                    if (!ipv6) {
   d7d9e:	f1b9 0f00 	cmp.w	r9, #0
   d7da2:	d101      	bne.n	d7da8 <_ZN5spark12NetworkClass7resolveEPKc+0x86>
                    auto in6 = (struct sockaddr_in6*)cur->ai_addr;
                    HAL_IPAddress a = {};
                    a.v = 6;
                    memcpy(a.ipv6, in6->sin6_addr.s6_addr, sizeof(a.ipv6));
                    addr = IPAddress(a);
                    ok = true;
   d7da4:	4649      	mov	r1, r9
   d7da6:	e7ee      	b.n	d7d86 <_ZN5spark12NetworkClass7resolveEPKc+0x64>
                    auto in6 = (struct sockaddr_in6*)cur->ai_addr;
   d7da8:	6974      	ldr	r4, [r6, #20]
                    HAL_IPAddress a = {};
   d7daa:	2210      	movs	r2, #16
   d7dac:	a801      	add	r0, sp, #4
   d7dae:	f002 fa5f 	bl	da270 <memset>
                    a.v = 6;
   d7db2:	2306      	movs	r3, #6
   d7db4:	f88d 3014 	strb.w	r3, [sp, #20]
                    memcpy(a.ipv6, in6->sin6_addr.s6_addr, sizeof(a.ipv6));
   d7db8:	ad01      	add	r5, sp, #4
   d7dba:	f104 0308 	add.w	r3, r4, #8
   d7dbe:	3418      	adds	r4, #24
   d7dc0:	6818      	ldr	r0, [r3, #0]
   d7dc2:	6859      	ldr	r1, [r3, #4]
   d7dc4:	462a      	mov	r2, r5
   d7dc6:	c203      	stmia	r2!, {r0, r1}
   d7dc8:	3308      	adds	r3, #8
   d7dca:	42a3      	cmp	r3, r4
   d7dcc:	4615      	mov	r5, r2
   d7dce:	d1f7      	bne.n	d7dc0 <_ZN5spark12NetworkClass7resolveEPKc+0x9e>
                    addr = IPAddress(a);
   d7dd0:	a901      	add	r1, sp, #4
   d7dd2:	a806      	add	r0, sp, #24
class IPAddress : public Printable {
   d7dd4:	ad07      	add	r5, sp, #28
   d7dd6:	f7ff fd6f 	bl	d78b8 <_ZN9IPAddressC1ERK16_HAL_IPAddress_t>
   d7dda:	cd0f      	ldmia	r5!, {r0, r1, r2, r3}
   d7ddc:	1d3c      	adds	r4, r7, #4
   d7dde:	c40f      	stmia	r4!, {r0, r1, r2, r3}
   d7de0:	682b      	ldr	r3, [r5, #0]
   d7de2:	7023      	strb	r3, [r4, #0]
   d7de4:	e7de      	b.n	d7da4 <_ZN5spark12NetworkClass7resolveEPKc+0x82>
                    break;
                }
            }
        }
    }
    freeaddrinfo(ai);
   d7de6:	9800      	ldr	r0, [sp, #0]
   d7de8:	f7fe ff8a 	bl	d6d00 <netdb_freeaddrinfo>
    return Cellular.resolve(name);
#endif // Wiring_Cellular

#endif // HAL_USE_INET_HAL_POSIX
    return addr;
}
   d7dec:	4638      	mov	r0, r7
   d7dee:	b015      	add	sp, #84	; 0x54
   d7df0:	e8bd 83f0 	ldmia.w	sp!, {r4, r5, r6, r7, r8, r9, pc}

000d7df4 <_GLOBAL__sub_I__ZN5spark7NetworkE>:
   d7df4:	4b02      	ldr	r3, [pc, #8]	; (d7e00 <_GLOBAL__sub_I__ZN5spark7NetworkE+0xc>)
   d7df6:	4a03      	ldr	r2, [pc, #12]	; (d7e04 <_GLOBAL__sub_I__ZN5spark7NetworkE+0x10>)
   d7df8:	601a      	str	r2, [r3, #0]
   d7dfa:	2200      	movs	r2, #0
   d7dfc:	605a      	str	r2, [r3, #4]

} // spark
   d7dfe:	4770      	bx	lr
   d7e00:	2003e730 	.word	0x2003e730
   d7e04:	000db20c 	.word	0x000db20c

000d7e08 <pinAvailable>:
/*
 * @brief Perform safety check on desired pin to see if it's already
 * being used.  Return 0 if used, otherwise return 1 if available.
 */
bool pinAvailable(uint16_t pin) {
  if (pin >= TOTAL_PINS) {
   d7e08:	2823      	cmp	r0, #35	; 0x23
bool pinAvailable(uint16_t pin) {
   d7e0a:	b513      	push	{r0, r1, r4, lr}
  if (pin >= TOTAL_PINS) {
   d7e0c:	d902      	bls.n	d7e14 <pinAvailable+0xc>
    return false;
   d7e0e:	2000      	movs	r0, #0
    return false; // 'pin' is used
  }
#endif

  return true; // 'pin' is available
}
   d7e10:	b002      	add	sp, #8
   d7e12:	bd10      	pop	{r4, pc}
  if((pin == SCK || pin == MOSI || pin == MISO) && hal_spi_is_enabled(SPI.interface()) == true)
   d7e14:	f1a0 030b 	sub.w	r3, r0, #11
   d7e18:	2b02      	cmp	r3, #2
   d7e1a:	d81a      	bhi.n	d7e52 <pinAvailable+0x4a>

template <hal_spi_interface_t Interface>
class SpiProxy {
public:
    static SPIClass& instance() {
        static SPIClass instance(Interface);
   d7e1c:	4c17      	ldr	r4, [pc, #92]	; (d7e7c <pinAvailable+0x74>)
   d7e1e:	7821      	ldrb	r1, [r4, #0]
   d7e20:	f3bf 8f5b 	dmb	ish
   d7e24:	f011 0101 	ands.w	r1, r1, #1
   d7e28:	d10b      	bne.n	d7e42 <pinAvailable+0x3a>
   d7e2a:	4620      	mov	r0, r4
   d7e2c:	9101      	str	r1, [sp, #4]
   d7e2e:	f7fc f943 	bl	d40b8 <__cxa_guard_acquire>
   d7e32:	9901      	ldr	r1, [sp, #4]
   d7e34:	b128      	cbz	r0, d7e42 <pinAvailable+0x3a>
   d7e36:	4812      	ldr	r0, [pc, #72]	; (d7e80 <pinAvailable+0x78>)
   d7e38:	f7ff f9f2 	bl	d7220 <_ZN8SPIClassC1E19hal_spi_interface_t>
   d7e3c:	4620      	mov	r0, r4
   d7e3e:	f7fc f940 	bl	d40c2 <__cxa_guard_release>
   d7e42:	4b0f      	ldr	r3, [pc, #60]	; (d7e80 <pinAvailable+0x78>)
   d7e44:	7818      	ldrb	r0, [r3, #0]
   d7e46:	f7ff f873 	bl	d6f30 <hal_spi_is_enabled>
   d7e4a:	2800      	cmp	r0, #0
   d7e4c:	d1df      	bne.n	d7e0e <pinAvailable+0x6>
  return true; // 'pin' is available
   d7e4e:	2001      	movs	r0, #1
   d7e50:	e7de      	b.n	d7e10 <pinAvailable+0x8>
  if((pin == SCL || pin == SDA) && hal_i2c_is_enabled(Wire.interface(), nullptr) == true)
   d7e52:	2801      	cmp	r0, #1
   d7e54:	d809      	bhi.n	d7e6a <pinAvailable+0x62>
   d7e56:	f000 f86b 	bl	d7f30 <_Z19__fetch_global_Wirev>
   d7e5a:	2100      	movs	r1, #0
   d7e5c:	7c00      	ldrb	r0, [r0, #16]
   d7e5e:	f7ff f837 	bl	d6ed0 <hal_i2c_is_enabled>
  if((pin == RX || pin == TX) && hal_usart_is_enabled(Serial1.interface()) == true)
   d7e62:	f080 0001 	eor.w	r0, r0, #1
   d7e66:	b2c0      	uxtb	r0, r0
   d7e68:	e7d2      	b.n	d7e10 <pinAvailable+0x8>
   d7e6a:	3809      	subs	r0, #9
   d7e6c:	2801      	cmp	r0, #1
   d7e6e:	d8ee      	bhi.n	d7e4e <pinAvailable+0x46>
   d7e70:	f7ff fe76 	bl	d7b60 <_Z22__fetch_global_Serial1v>
   d7e74:	7c00      	ldrb	r0, [r0, #16]
   d7e76:	f7fe ffd3 	bl	d6e20 <hal_usart_is_enabled>
   d7e7a:	e7f2      	b.n	d7e62 <pinAvailable+0x5a>
   d7e7c:	2003e580 	.word	0x2003e580
   d7e80:	2003e584 	.word	0x2003e584

000d7e84 <pinMode>:
  if(pin >= TOTAL_PINS || setMode == PIN_MODE_NONE )
   d7e84:	2823      	cmp	r0, #35	; 0x23
{
   d7e86:	b538      	push	{r3, r4, r5, lr}
   d7e88:	4604      	mov	r4, r0
   d7e8a:	460d      	mov	r5, r1
  if(pin >= TOTAL_PINS || setMode == PIN_MODE_NONE )
   d7e8c:	d80a      	bhi.n	d7ea4 <pinMode+0x20>
   d7e8e:	29ff      	cmp	r1, #255	; 0xff
   d7e90:	d008      	beq.n	d7ea4 <pinMode+0x20>
  if( !pinAvailable(pin) ) {
   d7e92:	f7ff ffb9 	bl	d7e08 <pinAvailable>
   d7e96:	b128      	cbz	r0, d7ea4 <pinMode+0x20>
  HAL_Pin_Mode(pin, setMode);
   d7e98:	4629      	mov	r1, r5
   d7e9a:	4620      	mov	r0, r4
}
   d7e9c:	e8bd 4038 	ldmia.w	sp!, {r3, r4, r5, lr}
  HAL_Pin_Mode(pin, setMode);
   d7ea0:	f7fe bf3e 	b.w	d6d20 <HAL_Pin_Mode>
}
   d7ea4:	bd38      	pop	{r3, r4, r5, pc}

000d7ea6 <digitalWrite>:

/*
 * @brief Sets a GPIO pin to HIGH or LOW.
 */
void digitalWrite(pin_t pin, uint8_t value)
{
   d7ea6:	b538      	push	{r3, r4, r5, lr}
   d7ea8:	4604      	mov	r4, r0
   d7eaa:	460d      	mov	r5, r1
    PinMode mode = HAL_Get_Pin_Mode(pin);
   d7eac:	f7fe ff40 	bl	d6d30 <HAL_Get_Pin_Mode>
    if (mode==PIN_MODE_NONE || is_input_mode(mode))
   d7eb0:	28ff      	cmp	r0, #255	; 0xff
   d7eb2:	d010      	beq.n	d7ed6 <digitalWrite+0x30>
            mode == INPUT_PULLDOWN ||
   d7eb4:	2806      	cmp	r0, #6
   d7eb6:	d804      	bhi.n	d7ec2 <digitalWrite+0x1c>
   d7eb8:	234d      	movs	r3, #77	; 0x4d
   d7eba:	fa23 f000 	lsr.w	r0, r3, r0
   d7ebe:	07c3      	lsls	r3, r0, #31
   d7ec0:	d409      	bmi.n	d7ed6 <digitalWrite+0x30>
        return;
  // Safety check
  if( !pinAvailable(pin) ) {
   d7ec2:	4620      	mov	r0, r4
   d7ec4:	f7ff ffa0 	bl	d7e08 <pinAvailable>
   d7ec8:	b128      	cbz	r0, d7ed6 <digitalWrite+0x30>
    return;
  }

  HAL_GPIO_Write(pin, value);
   d7eca:	4629      	mov	r1, r5
   d7ecc:	4620      	mov	r0, r4
}
   d7ece:	e8bd 4038 	ldmia.w	sp!, {r3, r4, r5, lr}
  HAL_GPIO_Write(pin, value);
   d7ed2:	f7fe bf35 	b.w	d6d40 <HAL_GPIO_Write>
}
   d7ed6:	bd38      	pop	{r3, r4, r5, pc}

000d7ed8 <digitalRead>:

/*
 * @brief Reads the value of a GPIO pin. Should return either 1 (HIGH) or 0 (LOW).
 */
int32_t digitalRead(pin_t pin)
{
   d7ed8:	b510      	push	{r4, lr}
   d7eda:	4604      	mov	r4, r0
    PinMode mode = HAL_Get_Pin_Mode(pin);
   d7edc:	f7fe ff28 	bl	d6d30 <HAL_Get_Pin_Mode>
    return mode == AF_OUTPUT_PUSHPULL ||
   d7ee0:	1f03      	subs	r3, r0, #4
    if (is_af_output_mode(mode))
   d7ee2:	b2db      	uxtb	r3, r3
   d7ee4:	2b01      	cmp	r3, #1
   d7ee6:	d908      	bls.n	d7efa <digitalRead+0x22>
        return LOW;

    // Safety check
    if( !pinAvailable(pin) ) {
   d7ee8:	4620      	mov	r0, r4
   d7eea:	f7ff ff8d 	bl	d7e08 <pinAvailable>
   d7eee:	b120      	cbz	r0, d7efa <digitalRead+0x22>
      return LOW;
    }

    return HAL_GPIO_Read(pin);
   d7ef0:	4620      	mov	r0, r4
}
   d7ef2:	e8bd 4010 	ldmia.w	sp!, {r4, lr}
    return HAL_GPIO_Read(pin);
   d7ef6:	f7fe bf2b 	b.w	d6d50 <HAL_GPIO_Read>
}
   d7efa:	2000      	movs	r0, #0
   d7efc:	bd10      	pop	{r4, pc}

000d7efe <__tcf_0>:
}
#endif

TwoWire& __fetch_global_Wire()
{
	static TwoWire wire(HAL_I2C_INTERFACE1, acquireWireBuffer());
   d7efe:	4770      	bx	lr

000d7f00 <_Z17acquireWireBufferv>:
{
   d7f00:	b538      	push	{r3, r4, r5, lr}
	hal_i2c_config_t config = {
   d7f02:	2300      	movs	r3, #0
   d7f04:	2520      	movs	r5, #32
   d7f06:	8043      	strh	r3, [r0, #2]
   d7f08:	2314      	movs	r3, #20
{
   d7f0a:	4604      	mov	r4, r0
	hal_i2c_config_t config = {
   d7f0c:	8003      	strh	r3, [r0, #0]
   d7f0e:	6085      	str	r5, [r0, #8]
   d7f10:	6105      	str	r5, [r0, #16]
		.rx_buffer = new (std::nothrow) uint8_t[I2C_BUFFER_LENGTH],
   d7f12:	4906      	ldr	r1, [pc, #24]	; (d7f2c <_Z17acquireWireBufferv+0x2c>)
   d7f14:	4628      	mov	r0, r5
   d7f16:	f000 f831 	bl	d7f7c <_ZnajRKSt9nothrow_t>
		.tx_buffer = new (std::nothrow) uint8_t[I2C_BUFFER_LENGTH],
   d7f1a:	4904      	ldr	r1, [pc, #16]	; (d7f2c <_Z17acquireWireBufferv+0x2c>)
	};
   d7f1c:	6060      	str	r0, [r4, #4]
		.tx_buffer = new (std::nothrow) uint8_t[I2C_BUFFER_LENGTH],
   d7f1e:	4628      	mov	r0, r5
   d7f20:	f000 f82c 	bl	d7f7c <_ZnajRKSt9nothrow_t>
	};
   d7f24:	60e0      	str	r0, [r4, #12]
}
   d7f26:	4620      	mov	r0, r4
   d7f28:	bd38      	pop	{r3, r4, r5, pc}
   d7f2a:	bf00      	nop
   d7f2c:	000db240 	.word	0x000db240

000d7f30 <_Z19__fetch_global_Wirev>:
{
   d7f30:	b530      	push	{r4, r5, lr}
	static TwoWire wire(HAL_I2C_INTERFACE1, acquireWireBuffer());
   d7f32:	4d0e      	ldr	r5, [pc, #56]	; (d7f6c <_Z19__fetch_global_Wirev+0x3c>)
   d7f34:	7829      	ldrb	r1, [r5, #0]
   d7f36:	f3bf 8f5b 	dmb	ish
   d7f3a:	f011 0401 	ands.w	r4, r1, #1
{
   d7f3e:	b087      	sub	sp, #28
	static TwoWire wire(HAL_I2C_INTERFACE1, acquireWireBuffer());
   d7f40:	d111      	bne.n	d7f66 <_Z19__fetch_global_Wirev+0x36>
   d7f42:	4628      	mov	r0, r5
   d7f44:	f7fc f8b8 	bl	d40b8 <__cxa_guard_acquire>
   d7f48:	b168      	cbz	r0, d7f66 <_Z19__fetch_global_Wirev+0x36>
   d7f4a:	a801      	add	r0, sp, #4
   d7f4c:	f7ff ffd8 	bl	d7f00 <_Z17acquireWireBufferv>
   d7f50:	aa01      	add	r2, sp, #4
   d7f52:	4621      	mov	r1, r4
   d7f54:	4806      	ldr	r0, [pc, #24]	; (d7f70 <_Z19__fetch_global_Wirev+0x40>)
   d7f56:	f7ff fe55 	bl	d7c04 <_ZN7TwoWireC1E19hal_i2c_interface_tRK16hal_i2c_config_t>
   d7f5a:	4628      	mov	r0, r5
   d7f5c:	f7fc f8b1 	bl	d40c2 <__cxa_guard_release>
   d7f60:	4804      	ldr	r0, [pc, #16]	; (d7f74 <_Z19__fetch_global_Wirev+0x44>)
   d7f62:	f002 f971 	bl	da248 <atexit>
	return wire;
}
   d7f66:	4802      	ldr	r0, [pc, #8]	; (d7f70 <_Z19__fetch_global_Wirev+0x40>)
   d7f68:	b007      	add	sp, #28
   d7f6a:	bd30      	pop	{r4, r5, pc}
   d7f6c:	2003e73c 	.word	0x2003e73c
   d7f70:	2003e740 	.word	0x2003e740
   d7f74:	000d7eff 	.word	0x000d7eff

000d7f78 <_ZdlPvj>:
   d7f78:	f7fc b891 	b.w	d409e <_ZdlPv>

000d7f7c <_ZnajRKSt9nothrow_t>:
   d7f7c:	f7fc b88d 	b.w	d409a <_Znaj>

000d7f80 <pow>:
   d7f80:	e92d 4ff0 	stmdb	sp!, {r4, r5, r6, r7, r8, r9, sl, fp, lr}
   d7f84:	ed2d 8b02 	vpush	{d8}
   d7f88:	b08d      	sub	sp, #52	; 0x34
   d7f8a:	ec57 6b10 	vmov	r6, r7, d0
   d7f8e:	ec55 4b11 	vmov	r4, r5, d1
   d7f92:	f000 f9ad 	bl	d82f0 <__ieee754_pow>
   d7f96:	4bae      	ldr	r3, [pc, #696]	; (d8250 <pow+0x2d0>)
   d7f98:	eeb0 8a40 	vmov.f32	s16, s0
   d7f9c:	eef0 8a60 	vmov.f32	s17, s1
   d7fa0:	f993 9000 	ldrsb.w	r9, [r3]
   d7fa4:	f1b9 3fff 	cmp.w	r9, #4294967295
   d7fa8:	d037      	beq.n	d801a <pow+0x9a>
   d7faa:	4622      	mov	r2, r4
   d7fac:	462b      	mov	r3, r5
   d7fae:	4620      	mov	r0, r4
   d7fb0:	4629      	mov	r1, r5
   d7fb2:	f001 fdd9 	bl	d9b68 <__aeabi_dcmpun>
   d7fb6:	4683      	mov	fp, r0
   d7fb8:	bb78      	cbnz	r0, d801a <pow+0x9a>
   d7fba:	4632      	mov	r2, r6
   d7fbc:	463b      	mov	r3, r7
   d7fbe:	4630      	mov	r0, r6
   d7fc0:	4639      	mov	r1, r7
   d7fc2:	f001 fdd1 	bl	d9b68 <__aeabi_dcmpun>
   d7fc6:	4680      	mov	r8, r0
   d7fc8:	2800      	cmp	r0, #0
   d7fca:	f040 8093 	bne.w	d80f4 <pow+0x174>
   d7fce:	f04f 0a00 	mov.w	sl, #0
   d7fd2:	f04f 0b00 	mov.w	fp, #0
   d7fd6:	4630      	mov	r0, r6
   d7fd8:	4639      	mov	r1, r7
   d7fda:	4652      	mov	r2, sl
   d7fdc:	465b      	mov	r3, fp
   d7fde:	f001 fd91 	bl	d9b04 <__aeabi_dcmpeq>
   d7fe2:	b318      	cbz	r0, d802c <pow+0xac>
   d7fe4:	4652      	mov	r2, sl
   d7fe6:	465b      	mov	r3, fp
   d7fe8:	4620      	mov	r0, r4
   d7fea:	4629      	mov	r1, r5
   d7fec:	f001 fd8a 	bl	d9b04 <__aeabi_dcmpeq>
   d7ff0:	9000      	str	r0, [sp, #0]
   d7ff2:	2800      	cmp	r0, #0
   d7ff4:	d057      	beq.n	d80a6 <pow+0x126>
   d7ff6:	4b97      	ldr	r3, [pc, #604]	; (d8254 <pow+0x2d4>)
   d7ff8:	f8cd 8028 	str.w	r8, [sp, #40]	; 0x28
   d7ffc:	2201      	movs	r2, #1
   d7ffe:	e9cd 6704 	strd	r6, r7, [sp, #16]
   d8002:	e9cd 4506 	strd	r4, r5, [sp, #24]
   d8006:	e9cd ab08 	strd	sl, fp, [sp, #32]
   d800a:	9202      	str	r2, [sp, #8]
   d800c:	9303      	str	r3, [sp, #12]
   d800e:	f1b9 0f00 	cmp.w	r9, #0
   d8012:	f000 8089 	beq.w	d8128 <pow+0x1a8>
   d8016:	ed9f 8b8a 	vldr	d8, [pc, #552]	; d8240 <pow+0x2c0>
   d801a:	eeb0 0a48 	vmov.f32	s0, s16
   d801e:	eef0 0a68 	vmov.f32	s1, s17
   d8022:	b00d      	add	sp, #52	; 0x34
   d8024:	ecbd 8b02 	vpop	{d8}
   d8028:	e8bd 8ff0 	ldmia.w	sp!, {r4, r5, r6, r7, r8, r9, sl, fp, pc}
   d802c:	eeb0 0a48 	vmov.f32	s0, s16
   d8030:	eef0 0a68 	vmov.f32	s1, s17
   d8034:	f001 f804 	bl	d9040 <finite>
   d8038:	4680      	mov	r8, r0
   d803a:	2800      	cmp	r0, #0
   d803c:	f000 8082 	beq.w	d8144 <pow+0x1c4>
   d8040:	f04f 0800 	mov.w	r8, #0
   d8044:	f04f 0900 	mov.w	r9, #0
   d8048:	ec51 0b18 	vmov	r0, r1, d8
   d804c:	4642      	mov	r2, r8
   d804e:	464b      	mov	r3, r9
   d8050:	f001 fd58 	bl	d9b04 <__aeabi_dcmpeq>
   d8054:	2800      	cmp	r0, #0
   d8056:	d0e0      	beq.n	d801a <pow+0x9a>
   d8058:	ec47 6b10 	vmov	d0, r6, r7
   d805c:	f000 fff0 	bl	d9040 <finite>
   d8060:	2800      	cmp	r0, #0
   d8062:	d0da      	beq.n	d801a <pow+0x9a>
   d8064:	ec45 4b10 	vmov	d0, r4, r5
   d8068:	f000 ffea 	bl	d9040 <finite>
   d806c:	2800      	cmp	r0, #0
   d806e:	d0d4      	beq.n	d801a <pow+0x9a>
   d8070:	4b77      	ldr	r3, [pc, #476]	; (d8250 <pow+0x2d0>)
   d8072:	4a78      	ldr	r2, [pc, #480]	; (d8254 <pow+0x2d4>)
   d8074:	f993 3000 	ldrsb.w	r3, [r3]
   d8078:	9203      	str	r2, [sp, #12]
   d807a:	2104      	movs	r1, #4
   d807c:	2200      	movs	r2, #0
   d807e:	2b02      	cmp	r3, #2
   d8080:	e9cd 6704 	strd	r6, r7, [sp, #16]
   d8084:	e9cd 4506 	strd	r4, r5, [sp, #24]
   d8088:	e9cd 8908 	strd	r8, r9, [sp, #32]
   d808c:	9102      	str	r1, [sp, #8]
   d808e:	920a      	str	r2, [sp, #40]	; 0x28
   d8090:	d004      	beq.n	d809c <pow+0x11c>
   d8092:	a802      	add	r0, sp, #8
   d8094:	f000 ffe0 	bl	d9058 <matherr>
   d8098:	2800      	cmp	r0, #0
   d809a:	d14a      	bne.n	d8132 <pow+0x1b2>
   d809c:	f7ff f86c 	bl	d7178 <__errno>
   d80a0:	2322      	movs	r3, #34	; 0x22
   d80a2:	6003      	str	r3, [r0, #0]
   d80a4:	e045      	b.n	d8132 <pow+0x1b2>
   d80a6:	ec45 4b10 	vmov	d0, r4, r5
   d80aa:	f000 ffc9 	bl	d9040 <finite>
   d80ae:	2800      	cmp	r0, #0
   d80b0:	d0b3      	beq.n	d801a <pow+0x9a>
   d80b2:	4652      	mov	r2, sl
   d80b4:	465b      	mov	r3, fp
   d80b6:	4620      	mov	r0, r4
   d80b8:	4629      	mov	r1, r5
   d80ba:	f001 fd2d 	bl	d9b18 <__aeabi_dcmplt>
   d80be:	2800      	cmp	r0, #0
   d80c0:	d0ab      	beq.n	d801a <pow+0x9a>
   d80c2:	4b63      	ldr	r3, [pc, #396]	; (d8250 <pow+0x2d0>)
   d80c4:	9900      	ldr	r1, [sp, #0]
   d80c6:	4a63      	ldr	r2, [pc, #396]	; (d8254 <pow+0x2d4>)
   d80c8:	f993 3000 	ldrsb.w	r3, [r3]
   d80cc:	910a      	str	r1, [sp, #40]	; 0x28
   d80ce:	2101      	movs	r1, #1
   d80d0:	e9cd 6704 	strd	r6, r7, [sp, #16]
   d80d4:	e9cd 4506 	strd	r4, r5, [sp, #24]
   d80d8:	e9cd 1202 	strd	r1, r2, [sp, #8]
   d80dc:	2b00      	cmp	r3, #0
   d80de:	d16f      	bne.n	d81c0 <pow+0x240>
   d80e0:	e9cd ab08 	strd	sl, fp, [sp, #32]
   d80e4:	a802      	add	r0, sp, #8
   d80e6:	f000 ffb7 	bl	d9058 <matherr>
   d80ea:	2800      	cmp	r0, #0
   d80ec:	d06e      	beq.n	d81cc <pow+0x24c>
   d80ee:	9b0a      	ldr	r3, [sp, #40]	; 0x28
   d80f0:	b32b      	cbz	r3, d813e <pow+0x1be>
   d80f2:	e020      	b.n	d8136 <pow+0x1b6>
   d80f4:	2200      	movs	r2, #0
   d80f6:	2300      	movs	r3, #0
   d80f8:	4620      	mov	r0, r4
   d80fa:	4629      	mov	r1, r5
   d80fc:	f001 fd02 	bl	d9b04 <__aeabi_dcmpeq>
   d8100:	2800      	cmp	r0, #0
   d8102:	d08a      	beq.n	d801a <pow+0x9a>
   d8104:	ed9f 8b4e 	vldr	d8, [pc, #312]	; d8240 <pow+0x2c0>
   d8108:	4b52      	ldr	r3, [pc, #328]	; (d8254 <pow+0x2d4>)
   d810a:	f8cd b028 	str.w	fp, [sp, #40]	; 0x28
   d810e:	2201      	movs	r2, #1
   d8110:	f1b9 0f02 	cmp.w	r9, #2
   d8114:	e9cd 6704 	strd	r6, r7, [sp, #16]
   d8118:	e9cd 4506 	strd	r4, r5, [sp, #24]
   d811c:	ed8d 8b08 	vstr	d8, [sp, #32]
   d8120:	9202      	str	r2, [sp, #8]
   d8122:	9303      	str	r3, [sp, #12]
   d8124:	f43f af79 	beq.w	d801a <pow+0x9a>
   d8128:	a802      	add	r0, sp, #8
   d812a:	f000 ff95 	bl	d9058 <matherr>
   d812e:	2800      	cmp	r0, #0
   d8130:	d051      	beq.n	d81d6 <pow+0x256>
   d8132:	9b0a      	ldr	r3, [sp, #40]	; 0x28
   d8134:	b11b      	cbz	r3, d813e <pow+0x1be>
   d8136:	f7ff f81f 	bl	d7178 <__errno>
   d813a:	9b0a      	ldr	r3, [sp, #40]	; 0x28
   d813c:	6003      	str	r3, [r0, #0]
   d813e:	ed9d 8b08 	vldr	d8, [sp, #32]
   d8142:	e76a      	b.n	d801a <pow+0x9a>
   d8144:	ec47 6b10 	vmov	d0, r6, r7
   d8148:	f000 ff7a 	bl	d9040 <finite>
   d814c:	2800      	cmp	r0, #0
   d814e:	f43f af77 	beq.w	d8040 <pow+0xc0>
   d8152:	ec45 4b10 	vmov	d0, r4, r5
   d8156:	f000 ff73 	bl	d9040 <finite>
   d815a:	2800      	cmp	r0, #0
   d815c:	f43f af70 	beq.w	d8040 <pow+0xc0>
   d8160:	ec53 2b18 	vmov	r2, r3, d8
   d8164:	ee18 0a10 	vmov	r0, s16
   d8168:	4619      	mov	r1, r3
   d816a:	f001 fcfd 	bl	d9b68 <__aeabi_dcmpun>
   d816e:	4b38      	ldr	r3, [pc, #224]	; (d8250 <pow+0x2d0>)
   d8170:	2800      	cmp	r0, #0
   d8172:	f040 8096 	bne.w	d82a2 <pow+0x322>
   d8176:	f993 8000 	ldrsb.w	r8, [r3]
   d817a:	900a      	str	r0, [sp, #40]	; 0x28
   d817c:	2303      	movs	r3, #3
   d817e:	9302      	str	r3, [sp, #8]
   d8180:	4b34      	ldr	r3, [pc, #208]	; (d8254 <pow+0x2d4>)
   d8182:	9303      	str	r3, [sp, #12]
   d8184:	e9cd 6704 	strd	r6, r7, [sp, #16]
   d8188:	e9cd 4506 	strd	r4, r5, [sp, #24]
   d818c:	f1b8 0f00 	cmp.w	r8, #0
   d8190:	d126      	bne.n	d81e0 <pow+0x260>
   d8192:	f8df 90d0 	ldr.w	r9, [pc, #208]	; d8264 <pow+0x2e4>
   d8196:	f04f 4860 	mov.w	r8, #3758096384	; 0xe0000000
   d819a:	4652      	mov	r2, sl
   d819c:	465b      	mov	r3, fp
   d819e:	4630      	mov	r0, r6
   d81a0:	4639      	mov	r1, r7
   d81a2:	e9cd 8908 	strd	r8, r9, [sp, #32]
   d81a6:	f001 fcb7 	bl	d9b18 <__aeabi_dcmplt>
   d81aa:	bb48      	cbnz	r0, d8200 <pow+0x280>
   d81ac:	a802      	add	r0, sp, #8
   d81ae:	f000 ff53 	bl	d9058 <matherr>
   d81b2:	2800      	cmp	r0, #0
   d81b4:	d19b      	bne.n	d80ee <pow+0x16e>
   d81b6:	f7fe ffdf 	bl	d7178 <__errno>
   d81ba:	2322      	movs	r3, #34	; 0x22
   d81bc:	6003      	str	r3, [r0, #0]
   d81be:	e796      	b.n	d80ee <pow+0x16e>
   d81c0:	4925      	ldr	r1, [pc, #148]	; (d8258 <pow+0x2d8>)
   d81c2:	2000      	movs	r0, #0
   d81c4:	2b02      	cmp	r3, #2
   d81c6:	e9cd 0108 	strd	r0, r1, [sp, #32]
   d81ca:	d18b      	bne.n	d80e4 <pow+0x164>
   d81cc:	f7fe ffd4 	bl	d7178 <__errno>
   d81d0:	2321      	movs	r3, #33	; 0x21
   d81d2:	6003      	str	r3, [r0, #0]
   d81d4:	e78b      	b.n	d80ee <pow+0x16e>
   d81d6:	f7fe ffcf 	bl	d7178 <__errno>
   d81da:	2321      	movs	r3, #33	; 0x21
   d81dc:	6003      	str	r3, [r0, #0]
   d81de:	e7a8      	b.n	d8132 <pow+0x1b2>
   d81e0:	ed9f 7b19 	vldr	d7, [pc, #100]	; d8248 <pow+0x2c8>
   d81e4:	4652      	mov	r2, sl
   d81e6:	465b      	mov	r3, fp
   d81e8:	4630      	mov	r0, r6
   d81ea:	4639      	mov	r1, r7
   d81ec:	ed8d 7b08 	vstr	d7, [sp, #32]
   d81f0:	f001 fc92 	bl	d9b18 <__aeabi_dcmplt>
   d81f4:	2800      	cmp	r0, #0
   d81f6:	d137      	bne.n	d8268 <pow+0x2e8>
   d81f8:	f1b8 0f02 	cmp.w	r8, #2
   d81fc:	d0db      	beq.n	d81b6 <pow+0x236>
   d81fe:	e7d5      	b.n	d81ac <pow+0x22c>
   d8200:	4b16      	ldr	r3, [pc, #88]	; (d825c <pow+0x2dc>)
   d8202:	2200      	movs	r2, #0
   d8204:	4620      	mov	r0, r4
   d8206:	4629      	mov	r1, r5
   d8208:	f001 fa14 	bl	d9634 <__aeabi_dmul>
   d820c:	4602      	mov	r2, r0
   d820e:	460b      	mov	r3, r1
   d8210:	ec43 2b10 	vmov	d0, r2, r3
   d8214:	e9cd 2300 	strd	r2, r3, [sp]
   d8218:	f000 ff2a 	bl	d9070 <rint>
   d821c:	e9dd 2300 	ldrd	r2, r3, [sp]
   d8220:	ec51 0b10 	vmov	r0, r1, d0
   d8224:	f001 fc6e 	bl	d9b04 <__aeabi_dcmpeq>
   d8228:	2800      	cmp	r0, #0
   d822a:	d136      	bne.n	d829a <pow+0x31a>
   d822c:	4b0c      	ldr	r3, [pc, #48]	; (d8260 <pow+0x2e0>)
   d822e:	4908      	ldr	r1, [pc, #32]	; (d8250 <pow+0x2d0>)
   d8230:	f04f 4260 	mov.w	r2, #3758096384	; 0xe0000000
   d8234:	e9cd 2308 	strd	r2, r3, [sp, #32]
   d8238:	f991 8000 	ldrsb.w	r8, [r1]
   d823c:	e7dc      	b.n	d81f8 <pow+0x278>
   d823e:	bf00      	nop
   d8240:	00000000 	.word	0x00000000
   d8244:	3ff00000 	.word	0x3ff00000
   d8248:	00000000 	.word	0x00000000
   d824c:	7ff00000 	.word	0x7ff00000
   d8250:	2003e450 	.word	0x2003e450
   d8254:	000db244 	.word	0x000db244
   d8258:	fff00000 	.word	0xfff00000
   d825c:	3fe00000 	.word	0x3fe00000
   d8260:	c7efffff 	.word	0xc7efffff
   d8264:	47efffff 	.word	0x47efffff
   d8268:	4b1c      	ldr	r3, [pc, #112]	; (d82dc <pow+0x35c>)
   d826a:	2200      	movs	r2, #0
   d826c:	4620      	mov	r0, r4
   d826e:	4629      	mov	r1, r5
   d8270:	f001 f9e0 	bl	d9634 <__aeabi_dmul>
   d8274:	4602      	mov	r2, r0
   d8276:	460b      	mov	r3, r1
   d8278:	ec43 2b10 	vmov	d0, r2, r3
   d827c:	e9cd 2300 	strd	r2, r3, [sp]
   d8280:	f000 fef6 	bl	d9070 <rint>
   d8284:	e9dd 2300 	ldrd	r2, r3, [sp]
   d8288:	ec51 0b10 	vmov	r0, r1, d0
   d828c:	f001 fc3a 	bl	d9b04 <__aeabi_dcmpeq>
   d8290:	b918      	cbnz	r0, d829a <pow+0x31a>
   d8292:	4b13      	ldr	r3, [pc, #76]	; (d82e0 <pow+0x360>)
   d8294:	2200      	movs	r2, #0
   d8296:	e9cd 2308 	strd	r2, r3, [sp, #32]
   d829a:	4b12      	ldr	r3, [pc, #72]	; (d82e4 <pow+0x364>)
   d829c:	f993 8000 	ldrsb.w	r8, [r3]
   d82a0:	e7aa      	b.n	d81f8 <pow+0x278>
   d82a2:	f993 9000 	ldrsb.w	r9, [r3]
   d82a6:	4b10      	ldr	r3, [pc, #64]	; (d82e8 <pow+0x368>)
   d82a8:	f8cd 8028 	str.w	r8, [sp, #40]	; 0x28
   d82ac:	2201      	movs	r2, #1
   d82ae:	e9cd 6704 	strd	r6, r7, [sp, #16]
   d82b2:	e9cd 4506 	strd	r4, r5, [sp, #24]
   d82b6:	e9cd 2302 	strd	r2, r3, [sp, #8]
   d82ba:	f1b9 0f00 	cmp.w	r9, #0
   d82be:	f43f af0f 	beq.w	d80e0 <pow+0x160>
   d82c2:	4652      	mov	r2, sl
   d82c4:	465b      	mov	r3, fp
   d82c6:	4650      	mov	r0, sl
   d82c8:	4659      	mov	r1, fp
   d82ca:	f001 fadd 	bl	d9888 <__aeabi_ddiv>
   d82ce:	f1b9 0f02 	cmp.w	r9, #2
   d82d2:	e9cd 0108 	strd	r0, r1, [sp, #32]
   d82d6:	f43f af79 	beq.w	d81cc <pow+0x24c>
   d82da:	e703      	b.n	d80e4 <pow+0x164>
   d82dc:	3fe00000 	.word	0x3fe00000
   d82e0:	fff00000 	.word	0xfff00000
   d82e4:	2003e450 	.word	0x2003e450
   d82e8:	000db244 	.word	0x000db244
   d82ec:	00000000 	.word	0x00000000

000d82f0 <__ieee754_pow>:
   d82f0:	e92d 4ff0 	stmdb	sp!, {r4, r5, r6, r7, r8, r9, sl, fp, lr}
   d82f4:	ec57 6b11 	vmov	r6, r7, d1
   d82f8:	ed2d 8b0a 	vpush	{d8-d12}
   d82fc:	f027 4a00 	bic.w	sl, r7, #2147483648	; 0x80000000
   d8300:	ea5a 0206 	orrs.w	r2, sl, r6
   d8304:	b089      	sub	sp, #36	; 0x24
   d8306:	d03d      	beq.n	d8384 <__ieee754_pow+0x94>
   d8308:	ec55 4b10 	vmov	r4, r5, d0
   d830c:	4976      	ldr	r1, [pc, #472]	; (d84e8 <__ieee754_pow+0x1f8>)
   d830e:	f025 4800 	bic.w	r8, r5, #2147483648	; 0x80000000
   d8312:	4588      	cmp	r8, r1
   d8314:	ee10 2a10 	vmov	r2, s0
   d8318:	46a9      	mov	r9, r5
   d831a:	dc2c      	bgt.n	d8376 <__ieee754_pow+0x86>
   d831c:	ee11 3a10 	vmov	r3, s2
   d8320:	46bb      	mov	fp, r7
   d8322:	d03a      	beq.n	d839a <__ieee754_pow+0xaa>
   d8324:	458a      	cmp	sl, r1
   d8326:	dc26      	bgt.n	d8376 <__ieee754_pow+0x86>
   d8328:	496f      	ldr	r1, [pc, #444]	; (d84e8 <__ieee754_pow+0x1f8>)
   d832a:	458a      	cmp	sl, r1
   d832c:	d021      	beq.n	d8372 <__ieee754_pow+0x82>
   d832e:	f1b9 0f00 	cmp.w	r9, #0
   d8332:	db3d      	blt.n	d83b0 <__ieee754_pow+0xc0>
   d8334:	2100      	movs	r1, #0
   d8336:	9103      	str	r1, [sp, #12]
   d8338:	2b00      	cmp	r3, #0
   d833a:	d155      	bne.n	d83e8 <__ieee754_pow+0xf8>
   d833c:	4b6a      	ldr	r3, [pc, #424]	; (d84e8 <__ieee754_pow+0x1f8>)
   d833e:	459a      	cmp	sl, r3
   d8340:	f000 80a8 	beq.w	d8494 <__ieee754_pow+0x1a4>
   d8344:	4b69      	ldr	r3, [pc, #420]	; (d84ec <__ieee754_pow+0x1fc>)
   d8346:	459a      	cmp	sl, r3
   d8348:	f000 80b6 	beq.w	d84b8 <__ieee754_pow+0x1c8>
   d834c:	f1bb 4f80 	cmp.w	fp, #1073741824	; 0x40000000
   d8350:	f000 8501 	beq.w	d8d56 <__ieee754_pow+0xa66>
   d8354:	4b66      	ldr	r3, [pc, #408]	; (d84f0 <__ieee754_pow+0x200>)
   d8356:	459b      	cmp	fp, r3
   d8358:	d146      	bne.n	d83e8 <__ieee754_pow+0xf8>
   d835a:	f1b9 0f00 	cmp.w	r9, #0
   d835e:	db43      	blt.n	d83e8 <__ieee754_pow+0xf8>
   d8360:	ec45 4b10 	vmov	d0, r4, r5
   d8364:	b009      	add	sp, #36	; 0x24
   d8366:	ecbd 8b0a 	vpop	{d8-d12}
   d836a:	e8bd 4ff0 	ldmia.w	sp!, {r4, r5, r6, r7, r8, r9, sl, fp, lr}
   d836e:	f000 bd99 	b.w	d8ea4 <__ieee754_sqrt>
   d8372:	2b00      	cmp	r3, #0
   d8374:	d0db      	beq.n	d832e <__ieee754_pow+0x3e>
   d8376:	f108 4840 	add.w	r8, r8, #3221225472	; 0xc0000000
   d837a:	f508 1880 	add.w	r8, r8, #1048576	; 0x100000
   d837e:	ea58 0302 	orrs.w	r3, r8, r2
   d8382:	d10d      	bne.n	d83a0 <__ieee754_pow+0xb0>
   d8384:	ed9f 7b54 	vldr	d7, [pc, #336]	; d84d8 <__ieee754_pow+0x1e8>
   d8388:	ed8d 7b00 	vstr	d7, [sp]
   d838c:	ed9d 0b00 	vldr	d0, [sp]
   d8390:	b009      	add	sp, #36	; 0x24
   d8392:	ecbd 8b0a 	vpop	{d8-d12}
   d8396:	e8bd 8ff0 	ldmia.w	sp!, {r4, r5, r6, r7, r8, r9, sl, fp, pc}
   d839a:	b90c      	cbnz	r4, d83a0 <__ieee754_pow+0xb0>
   d839c:	45c2      	cmp	sl, r8
   d839e:	ddc3      	ble.n	d8328 <__ieee754_pow+0x38>
   d83a0:	4854      	ldr	r0, [pc, #336]	; (d84f4 <__ieee754_pow+0x204>)
   d83a2:	b009      	add	sp, #36	; 0x24
   d83a4:	ecbd 8b0a 	vpop	{d8-d12}
   d83a8:	e8bd 4ff0 	ldmia.w	sp!, {r4, r5, r6, r7, r8, r9, sl, fp, lr}
   d83ac:	f000 be58 	b.w	d9060 <nan>
   d83b0:	4951      	ldr	r1, [pc, #324]	; (d84f8 <__ieee754_pow+0x208>)
   d83b2:	458a      	cmp	sl, r1
   d83b4:	f300 8087 	bgt.w	d84c6 <__ieee754_pow+0x1d6>
   d83b8:	f1a1 7154 	sub.w	r1, r1, #55574528	; 0x3500000
   d83bc:	458a      	cmp	sl, r1
   d83be:	dd0f      	ble.n	d83e0 <__ieee754_pow+0xf0>
   d83c0:	ea4f 512a 	mov.w	r1, sl, asr #20
   d83c4:	f2a1 31ff 	subw	r1, r1, #1023	; 0x3ff
   d83c8:	2914      	cmp	r1, #20
   d83ca:	f340 84ce 	ble.w	d8d6a <__ieee754_pow+0xa7a>
   d83ce:	f1c1 0134 	rsb	r1, r1, #52	; 0x34
   d83d2:	fa23 f001 	lsr.w	r0, r3, r1
   d83d6:	fa00 f101 	lsl.w	r1, r0, r1
   d83da:	4299      	cmp	r1, r3
   d83dc:	f000 8520 	beq.w	d8e20 <__ieee754_pow+0xb30>
   d83e0:	2100      	movs	r1, #0
   d83e2:	9103      	str	r1, [sp, #12]
   d83e4:	2b00      	cmp	r3, #0
   d83e6:	d0ad      	beq.n	d8344 <__ieee754_pow+0x54>
   d83e8:	ec45 4b10 	vmov	d0, r4, r5
   d83ec:	9206      	str	r2, [sp, #24]
   d83ee:	f000 fe1d 	bl	d902c <fabs>
   d83f2:	9a06      	ldr	r2, [sp, #24]
   d83f4:	ed8d 0b00 	vstr	d0, [sp]
   d83f8:	bb5a      	cbnz	r2, d8452 <__ieee754_pow+0x162>
   d83fa:	f1b8 0f00 	cmp.w	r8, #0
   d83fe:	d004      	beq.n	d840a <__ieee754_pow+0x11a>
   d8400:	4b3a      	ldr	r3, [pc, #232]	; (d84ec <__ieee754_pow+0x1fc>)
   d8402:	f029 4240 	bic.w	r2, r9, #3221225472	; 0xc0000000
   d8406:	429a      	cmp	r2, r3
   d8408:	d123      	bne.n	d8452 <__ieee754_pow+0x162>
   d840a:	f1bb 0f00 	cmp.w	fp, #0
   d840e:	da07      	bge.n	d8420 <__ieee754_pow+0x130>
   d8410:	e9dd 2300 	ldrd	r2, r3, [sp]
   d8414:	4935      	ldr	r1, [pc, #212]	; (d84ec <__ieee754_pow+0x1fc>)
   d8416:	2000      	movs	r0, #0
   d8418:	f001 fa36 	bl	d9888 <__aeabi_ddiv>
   d841c:	e9cd 0100 	strd	r0, r1, [sp]
   d8420:	f1b9 0f00 	cmp.w	r9, #0
   d8424:	dab2      	bge.n	d838c <__ieee754_pow+0x9c>
   d8426:	9b03      	ldr	r3, [sp, #12]
   d8428:	f108 4840 	add.w	r8, r8, #3221225472	; 0xc0000000
   d842c:	f508 1880 	add.w	r8, r8, #1048576	; 0x100000
   d8430:	ea58 0303 	orrs.w	r3, r8, r3
   d8434:	f040 84be 	bne.w	d8db4 <__ieee754_pow+0xac4>
   d8438:	e9dd 2300 	ldrd	r2, r3, [sp]
   d843c:	4610      	mov	r0, r2
   d843e:	4619      	mov	r1, r3
   d8440:	f000 ff40 	bl	d92c4 <__aeabi_dsub>
   d8444:	4602      	mov	r2, r0
   d8446:	460b      	mov	r3, r1
   d8448:	f001 fa1e 	bl	d9888 <__aeabi_ddiv>
   d844c:	e9cd 0100 	strd	r0, r1, [sp]
   d8450:	e79c      	b.n	d838c <__ieee754_pow+0x9c>
   d8452:	9a03      	ldr	r2, [sp, #12]
   d8454:	ea4f 73d9 	mov.w	r3, r9, lsr #31
   d8458:	3b01      	subs	r3, #1
   d845a:	9306      	str	r3, [sp, #24]
   d845c:	4313      	orrs	r3, r2
   d845e:	d035      	beq.n	d84cc <__ieee754_pow+0x1dc>
   d8460:	4b26      	ldr	r3, [pc, #152]	; (d84fc <__ieee754_pow+0x20c>)
   d8462:	459a      	cmp	sl, r3
   d8464:	dd4e      	ble.n	d8504 <__ieee754_pow+0x214>
   d8466:	f103 7304 	add.w	r3, r3, #34603008	; 0x2100000
   d846a:	459a      	cmp	sl, r3
   d846c:	4b24      	ldr	r3, [pc, #144]	; (d8500 <__ieee754_pow+0x210>)
   d846e:	f340 83ed 	ble.w	d8c4c <__ieee754_pow+0x95c>
   d8472:	4598      	cmp	r8, r3
   d8474:	f340 836b 	ble.w	d8b4e <__ieee754_pow+0x85e>
   d8478:	f1bb 0f00 	cmp.w	fp, #0
   d847c:	f340 836b 	ble.w	d8b56 <__ieee754_pow+0x866>
   d8480:	a317      	add	r3, pc, #92	; (adr r3, d84e0 <__ieee754_pow+0x1f0>)
   d8482:	e9d3 2300 	ldrd	r2, r3, [r3]
   d8486:	4610      	mov	r0, r2
   d8488:	4619      	mov	r1, r3
   d848a:	f001 f8d3 	bl	d9634 <__aeabi_dmul>
   d848e:	e9cd 0100 	strd	r0, r1, [sp]
   d8492:	e77b      	b.n	d838c <__ieee754_pow+0x9c>
   d8494:	f108 4340 	add.w	r3, r8, #3221225472	; 0xc0000000
   d8498:	f503 1380 	add.w	r3, r3, #1048576	; 0x100000
   d849c:	4313      	orrs	r3, r2
   d849e:	f43f af71 	beq.w	d8384 <__ieee754_pow+0x94>
   d84a2:	4b17      	ldr	r3, [pc, #92]	; (d8500 <__ieee754_pow+0x210>)
   d84a4:	4598      	cmp	r8, r3
   d84a6:	f340 8388 	ble.w	d8bba <__ieee754_pow+0x8ca>
   d84aa:	f1bb 0f00 	cmp.w	fp, #0
   d84ae:	f2c0 8352 	blt.w	d8b56 <__ieee754_pow+0x866>
   d84b2:	e9cd 6700 	strd	r6, r7, [sp]
   d84b6:	e769      	b.n	d838c <__ieee754_pow+0x9c>
   d84b8:	f1bb 0f00 	cmp.w	fp, #0
   d84bc:	f2c0 8441 	blt.w	d8d42 <__ieee754_pow+0xa52>
   d84c0:	e9cd 4500 	strd	r4, r5, [sp]
   d84c4:	e762      	b.n	d838c <__ieee754_pow+0x9c>
   d84c6:	2102      	movs	r1, #2
   d84c8:	9103      	str	r1, [sp, #12]
   d84ca:	e735      	b.n	d8338 <__ieee754_pow+0x48>
   d84cc:	4622      	mov	r2, r4
   d84ce:	462b      	mov	r3, r5
   d84d0:	e7b4      	b.n	d843c <__ieee754_pow+0x14c>
   d84d2:	bf00      	nop
   d84d4:	f3af 8000 	nop.w
   d84d8:	00000000 	.word	0x00000000
   d84dc:	3ff00000 	.word	0x3ff00000
   d84e0:	8800759c 	.word	0x8800759c
   d84e4:	7e37e43c 	.word	0x7e37e43c
   d84e8:	7ff00000 	.word	0x7ff00000
   d84ec:	3ff00000 	.word	0x3ff00000
   d84f0:	3fe00000 	.word	0x3fe00000
   d84f4:	000db248 	.word	0x000db248
   d84f8:	433fffff 	.word	0x433fffff
   d84fc:	41e00000 	.word	0x41e00000
   d8500:	3fefffff 	.word	0x3fefffff
   d8504:	4be4      	ldr	r3, [pc, #912]	; (d8898 <__ieee754_pow+0x5a8>)
   d8506:	ea09 0303 	and.w	r3, r9, r3
   d850a:	2b00      	cmp	r3, #0
   d850c:	f040 8416 	bne.w	d8d3c <__ieee754_pow+0xa4c>
   d8510:	e9dd 0100 	ldrd	r0, r1, [sp]
   d8514:	4be1      	ldr	r3, [pc, #900]	; (d889c <__ieee754_pow+0x5ac>)
   d8516:	2200      	movs	r2, #0
   d8518:	f001 f88c 	bl	d9634 <__aeabi_dmul>
   d851c:	e9cd 0100 	strd	r0, r1, [sp]
   d8520:	f8dd 8004 	ldr.w	r8, [sp, #4]
   d8524:	f06f 0034 	mvn.w	r0, #52	; 0x34
   d8528:	ea4f 5328 	mov.w	r3, r8, asr #20
   d852c:	49dc      	ldr	r1, [pc, #880]	; (d88a0 <__ieee754_pow+0x5b0>)
   d852e:	f3c8 0213 	ubfx	r2, r8, #0, #20
   d8532:	f2a3 33ff 	subw	r3, r3, #1023	; 0x3ff
   d8536:	f042 587f 	orr.w	r8, r2, #1069547520	; 0x3fc00000
   d853a:	1818      	adds	r0, r3, r0
   d853c:	428a      	cmp	r2, r1
   d853e:	9007      	str	r0, [sp, #28]
   d8540:	f448 1840 	orr.w	r8, r8, #3145728	; 0x300000
   d8544:	f340 83e9 	ble.w	d8d1a <__ieee754_pow+0xa2a>
   d8548:	4bd6      	ldr	r3, [pc, #856]	; (d88a4 <__ieee754_pow+0x5b4>)
   d854a:	429a      	cmp	r2, r3
   d854c:	f340 843e 	ble.w	d8dcc <__ieee754_pow+0xadc>
   d8550:	ed9f 7bbb 	vldr	d7, [pc, #748]	; d8840 <__ieee754_pow+0x550>
   d8554:	eeb0 ba47 	vmov.f32	s22, s14
   d8558:	eef0 ba67 	vmov.f32	s23, s15
   d855c:	eeb0 ca47 	vmov.f32	s24, s14
   d8560:	eef0 ca67 	vmov.f32	s25, s15
   d8564:	ed9f 7bb8 	vldr	d7, [pc, #736]	; d8848 <__ieee754_pow+0x558>
   d8568:	3001      	adds	r0, #1
   d856a:	ec54 3b17 	vmov	r3, r4, d7
   d856e:	9007      	str	r0, [sp, #28]
   d8570:	f5a8 1880 	sub.w	r8, r8, #1048576	; 0x100000
   d8574:	f04f 0900 	mov.w	r9, #0
   d8578:	e9dd ab00 	ldrd	sl, fp, [sp]
   d857c:	ec44 3b18 	vmov	d8, r3, r4
   d8580:	461a      	mov	r2, r3
   d8582:	4650      	mov	r0, sl
   d8584:	4623      	mov	r3, r4
   d8586:	4641      	mov	r1, r8
   d8588:	f000 fe9c 	bl	d92c4 <__aeabi_dsub>
   d858c:	ec53 2b18 	vmov	r2, r3, d8
   d8590:	4604      	mov	r4, r0
   d8592:	460d      	mov	r5, r1
   d8594:	4650      	mov	r0, sl
   d8596:	4641      	mov	r1, r8
   d8598:	f000 fe96 	bl	d92c8 <__adddf3>
   d859c:	4602      	mov	r2, r0
   d859e:	460b      	mov	r3, r1
   d85a0:	2000      	movs	r0, #0
   d85a2:	49c1      	ldr	r1, [pc, #772]	; (d88a8 <__ieee754_pow+0x5b8>)
   d85a4:	f001 f970 	bl	d9888 <__aeabi_ddiv>
   d85a8:	ec45 4b1a 	vmov	d10, r4, r5
   d85ac:	ec41 0b19 	vmov	d9, r0, r1
   d85b0:	ec51 0b1a 	vmov	r0, r1, d10
   d85b4:	ec53 2b19 	vmov	r2, r3, d9
   d85b8:	f001 f83c 	bl	d9634 <__aeabi_dmul>
   d85bc:	46c3      	mov	fp, r8
   d85be:	ea4f 0868 	mov.w	r8, r8, asr #1
   d85c2:	f048 5800 	orr.w	r8, r8, #536870912	; 0x20000000
   d85c6:	f508 2300 	add.w	r3, r8, #524288	; 0x80000
   d85ca:	eb03 0509 	add.w	r5, r3, r9
   d85ce:	460a      	mov	r2, r1
   d85d0:	2300      	movs	r3, #0
   d85d2:	4601      	mov	r1, r0
   d85d4:	e9cd 1200 	strd	r1, r2, [sp]
   d85d8:	9300      	str	r3, [sp, #0]
   d85da:	e9dd 8900 	ldrd	r8, r9, [sp]
   d85de:	2400      	movs	r4, #0
   d85e0:	e9cd 1204 	strd	r1, r2, [sp, #16]
   d85e4:	462b      	mov	r3, r5
   d85e6:	4622      	mov	r2, r4
   d85e8:	4640      	mov	r0, r8
   d85ea:	4649      	mov	r1, r9
   d85ec:	f001 f822 	bl	d9634 <__aeabi_dmul>
   d85f0:	4602      	mov	r2, r0
   d85f2:	460b      	mov	r3, r1
   d85f4:	ec51 0b1a 	vmov	r0, r1, d10
   d85f8:	f000 fe64 	bl	d92c4 <__aeabi_dsub>
   d85fc:	ec41 0b17 	vmov	d7, r0, r1
   d8600:	ec53 2b18 	vmov	r2, r3, d8
   d8604:	4620      	mov	r0, r4
   d8606:	4629      	mov	r1, r5
   d8608:	ec55 4b17 	vmov	r4, r5, d7
   d860c:	f000 fe5a 	bl	d92c4 <__aeabi_dsub>
   d8610:	4602      	mov	r2, r0
   d8612:	460b      	mov	r3, r1
   d8614:	4650      	mov	r0, sl
   d8616:	4659      	mov	r1, fp
   d8618:	f000 fe54 	bl	d92c4 <__aeabi_dsub>
   d861c:	4642      	mov	r2, r8
   d861e:	464b      	mov	r3, r9
   d8620:	f001 f808 	bl	d9634 <__aeabi_dmul>
   d8624:	4602      	mov	r2, r0
   d8626:	460b      	mov	r3, r1
   d8628:	4620      	mov	r0, r4
   d862a:	4629      	mov	r1, r5
   d862c:	f000 fe4a 	bl	d92c4 <__aeabi_dsub>
   d8630:	ec53 2b19 	vmov	r2, r3, d9
   d8634:	f000 fffe 	bl	d9634 <__aeabi_dmul>
   d8638:	e9dd ab04 	ldrd	sl, fp, [sp, #16]
   d863c:	4604      	mov	r4, r0
   d863e:	460d      	mov	r5, r1
   d8640:	4652      	mov	r2, sl
   d8642:	465b      	mov	r3, fp
   d8644:	4650      	mov	r0, sl
   d8646:	4659      	mov	r1, fp
   d8648:	f000 fff4 	bl	d9634 <__aeabi_dmul>
   d864c:	a380      	add	r3, pc, #512	; (adr r3, d8850 <__ieee754_pow+0x560>)
   d864e:	e9d3 2300 	ldrd	r2, r3, [r3]
   d8652:	ec45 4b1a 	vmov	d10, r4, r5
   d8656:	4604      	mov	r4, r0
   d8658:	460d      	mov	r5, r1
   d865a:	f000 ffeb 	bl	d9634 <__aeabi_dmul>
   d865e:	a37e      	add	r3, pc, #504	; (adr r3, d8858 <__ieee754_pow+0x568>)
   d8660:	e9d3 2300 	ldrd	r2, r3, [r3]
   d8664:	f000 fe30 	bl	d92c8 <__adddf3>
   d8668:	4622      	mov	r2, r4
   d866a:	462b      	mov	r3, r5
   d866c:	f000 ffe2 	bl	d9634 <__aeabi_dmul>
   d8670:	a37b      	add	r3, pc, #492	; (adr r3, d8860 <__ieee754_pow+0x570>)
   d8672:	e9d3 2300 	ldrd	r2, r3, [r3]
   d8676:	f000 fe27 	bl	d92c8 <__adddf3>
   d867a:	4622      	mov	r2, r4
   d867c:	462b      	mov	r3, r5
   d867e:	f000 ffd9 	bl	d9634 <__aeabi_dmul>
   d8682:	a379      	add	r3, pc, #484	; (adr r3, d8868 <__ieee754_pow+0x578>)
   d8684:	e9d3 2300 	ldrd	r2, r3, [r3]
   d8688:	f000 fe1e 	bl	d92c8 <__adddf3>
   d868c:	4622      	mov	r2, r4
   d868e:	462b      	mov	r3, r5
   d8690:	f000 ffd0 	bl	d9634 <__aeabi_dmul>
   d8694:	a376      	add	r3, pc, #472	; (adr r3, d8870 <__ieee754_pow+0x580>)
   d8696:	e9d3 2300 	ldrd	r2, r3, [r3]
   d869a:	f000 fe15 	bl	d92c8 <__adddf3>
   d869e:	4622      	mov	r2, r4
   d86a0:	462b      	mov	r3, r5
   d86a2:	f000 ffc7 	bl	d9634 <__aeabi_dmul>
   d86a6:	a374      	add	r3, pc, #464	; (adr r3, d8878 <__ieee754_pow+0x588>)
   d86a8:	e9d3 2300 	ldrd	r2, r3, [r3]
   d86ac:	f000 fe0c 	bl	d92c8 <__adddf3>
   d86b0:	4622      	mov	r2, r4
   d86b2:	462b      	mov	r3, r5
   d86b4:	4604      	mov	r4, r0
   d86b6:	460d      	mov	r5, r1
   d86b8:	4610      	mov	r0, r2
   d86ba:	4619      	mov	r1, r3
   d86bc:	f000 ffba 	bl	d9634 <__aeabi_dmul>
   d86c0:	4602      	mov	r2, r0
   d86c2:	460b      	mov	r3, r1
   d86c4:	4620      	mov	r0, r4
   d86c6:	4629      	mov	r1, r5
   d86c8:	f000 ffb4 	bl	d9634 <__aeabi_dmul>
   d86cc:	4642      	mov	r2, r8
   d86ce:	4604      	mov	r4, r0
   d86d0:	460d      	mov	r5, r1
   d86d2:	464b      	mov	r3, r9
   d86d4:	4650      	mov	r0, sl
   d86d6:	4659      	mov	r1, fp
   d86d8:	e9cd ab04 	strd	sl, fp, [sp, #16]
   d86dc:	f000 fdf4 	bl	d92c8 <__adddf3>
   d86e0:	ec53 2b1a 	vmov	r2, r3, d10
   d86e4:	f000 ffa6 	bl	d9634 <__aeabi_dmul>
   d86e8:	4622      	mov	r2, r4
   d86ea:	462b      	mov	r3, r5
   d86ec:	f000 fdec 	bl	d92c8 <__adddf3>
   d86f0:	4642      	mov	r2, r8
   d86f2:	4604      	mov	r4, r0
   d86f4:	460d      	mov	r5, r1
   d86f6:	464b      	mov	r3, r9
   d86f8:	4640      	mov	r0, r8
   d86fa:	4649      	mov	r1, r9
   d86fc:	f000 ff9a 	bl	d9634 <__aeabi_dmul>
   d8700:	ec45 4b19 	vmov	d9, r4, r5
   d8704:	4b69      	ldr	r3, [pc, #420]	; (d88ac <__ieee754_pow+0x5bc>)
   d8706:	2200      	movs	r2, #0
   d8708:	4682      	mov	sl, r0
   d870a:	468b      	mov	fp, r1
   d870c:	f000 fddc 	bl	d92c8 <__adddf3>
   d8710:	ec53 2b19 	vmov	r2, r3, d9
   d8714:	f000 fdd8 	bl	d92c8 <__adddf3>
   d8718:	9c00      	ldr	r4, [sp, #0]
   d871a:	460d      	mov	r5, r1
   d871c:	4622      	mov	r2, r4
   d871e:	462b      	mov	r3, r5
   d8720:	4640      	mov	r0, r8
   d8722:	4649      	mov	r1, r9
   d8724:	f000 ff86 	bl	d9634 <__aeabi_dmul>
   d8728:	4b60      	ldr	r3, [pc, #384]	; (d88ac <__ieee754_pow+0x5bc>)
   d872a:	4680      	mov	r8, r0
   d872c:	4689      	mov	r9, r1
   d872e:	2200      	movs	r2, #0
   d8730:	4620      	mov	r0, r4
   d8732:	4629      	mov	r1, r5
   d8734:	f000 fdc6 	bl	d92c4 <__aeabi_dsub>
   d8738:	4652      	mov	r2, sl
   d873a:	465b      	mov	r3, fp
   d873c:	f000 fdc2 	bl	d92c4 <__aeabi_dsub>
   d8740:	4602      	mov	r2, r0
   d8742:	460b      	mov	r3, r1
   d8744:	ec51 0b19 	vmov	r0, r1, d9
   d8748:	f000 fdbc 	bl	d92c4 <__aeabi_dsub>
   d874c:	e9dd 2304 	ldrd	r2, r3, [sp, #16]
   d8750:	f000 ff70 	bl	d9634 <__aeabi_dmul>
   d8754:	ec49 8b18 	vmov	d8, r8, r9
   d8758:	4622      	mov	r2, r4
   d875a:	4680      	mov	r8, r0
   d875c:	4689      	mov	r9, r1
   d875e:	462b      	mov	r3, r5
   d8760:	ec51 0b1a 	vmov	r0, r1, d10
   d8764:	f000 ff66 	bl	d9634 <__aeabi_dmul>
   d8768:	4602      	mov	r2, r0
   d876a:	460b      	mov	r3, r1
   d876c:	4640      	mov	r0, r8
   d876e:	4649      	mov	r1, r9
   d8770:	f000 fdaa 	bl	d92c8 <__adddf3>
   d8774:	4682      	mov	sl, r0
   d8776:	468b      	mov	fp, r1
   d8778:	4652      	mov	r2, sl
   d877a:	465b      	mov	r3, fp
   d877c:	ec51 0b18 	vmov	r0, r1, d8
   d8780:	f000 fda2 	bl	d92c8 <__adddf3>
   d8784:	9c00      	ldr	r4, [sp, #0]
   d8786:	a33e      	add	r3, pc, #248	; (adr r3, d8880 <__ieee754_pow+0x590>)
   d8788:	e9d3 2300 	ldrd	r2, r3, [r3]
   d878c:	4620      	mov	r0, r4
   d878e:	460d      	mov	r5, r1
   d8790:	f000 ff50 	bl	d9634 <__aeabi_dmul>
   d8794:	ec53 2b18 	vmov	r2, r3, d8
   d8798:	4680      	mov	r8, r0
   d879a:	4689      	mov	r9, r1
   d879c:	4620      	mov	r0, r4
   d879e:	4629      	mov	r1, r5
   d87a0:	f000 fd90 	bl	d92c4 <__aeabi_dsub>
   d87a4:	4602      	mov	r2, r0
   d87a6:	460b      	mov	r3, r1
   d87a8:	4650      	mov	r0, sl
   d87aa:	4659      	mov	r1, fp
   d87ac:	f000 fd8a 	bl	d92c4 <__aeabi_dsub>
   d87b0:	a335      	add	r3, pc, #212	; (adr r3, d8888 <__ieee754_pow+0x598>)
   d87b2:	e9d3 2300 	ldrd	r2, r3, [r3]
   d87b6:	f000 ff3d 	bl	d9634 <__aeabi_dmul>
   d87ba:	ec49 8b19 	vmov	d9, r8, r9
   d87be:	a334      	add	r3, pc, #208	; (adr r3, d8890 <__ieee754_pow+0x5a0>)
   d87c0:	e9d3 2300 	ldrd	r2, r3, [r3]
   d87c4:	4680      	mov	r8, r0
   d87c6:	4689      	mov	r9, r1
   d87c8:	4620      	mov	r0, r4
   d87ca:	4629      	mov	r1, r5
   d87cc:	f000 ff32 	bl	d9634 <__aeabi_dmul>
   d87d0:	4602      	mov	r2, r0
   d87d2:	460b      	mov	r3, r1
   d87d4:	4640      	mov	r0, r8
   d87d6:	4649      	mov	r1, r9
   d87d8:	f000 fd76 	bl	d92c8 <__adddf3>
   d87dc:	ec53 2b1c 	vmov	r2, r3, d12
   d87e0:	f000 fd72 	bl	d92c8 <__adddf3>
   d87e4:	4682      	mov	sl, r0
   d87e6:	9807      	ldr	r0, [sp, #28]
   d87e8:	468b      	mov	fp, r1
   d87ea:	f000 feb9 	bl	d9560 <__aeabi_i2d>
   d87ee:	4652      	mov	r2, sl
   d87f0:	4680      	mov	r8, r0
   d87f2:	4689      	mov	r9, r1
   d87f4:	465b      	mov	r3, fp
   d87f6:	ec51 0b19 	vmov	r0, r1, d9
   d87fa:	f000 fd65 	bl	d92c8 <__adddf3>
   d87fe:	ec53 2b1b 	vmov	r2, r3, d11
   d8802:	f000 fd61 	bl	d92c8 <__adddf3>
   d8806:	4642      	mov	r2, r8
   d8808:	464b      	mov	r3, r9
   d880a:	f000 fd5d 	bl	d92c8 <__adddf3>
   d880e:	9c00      	ldr	r4, [sp, #0]
   d8810:	4642      	mov	r2, r8
   d8812:	464b      	mov	r3, r9
   d8814:	4620      	mov	r0, r4
   d8816:	460d      	mov	r5, r1
   d8818:	f000 fd54 	bl	d92c4 <__aeabi_dsub>
   d881c:	ec53 2b1b 	vmov	r2, r3, d11
   d8820:	f000 fd50 	bl	d92c4 <__aeabi_dsub>
   d8824:	ec53 2b19 	vmov	r2, r3, d9
   d8828:	f000 fd4c 	bl	d92c4 <__aeabi_dsub>
   d882c:	4602      	mov	r2, r0
   d882e:	460b      	mov	r3, r1
   d8830:	4650      	mov	r0, sl
   d8832:	4659      	mov	r1, fp
   d8834:	f000 fd46 	bl	d92c4 <__aeabi_dsub>
   d8838:	4682      	mov	sl, r0
   d883a:	468b      	mov	fp, r1
   d883c:	e038      	b.n	d88b0 <__ieee754_pow+0x5c0>
   d883e:	bf00      	nop
	...
   d884c:	3ff00000 	.word	0x3ff00000
   d8850:	4a454eef 	.word	0x4a454eef
   d8854:	3fca7e28 	.word	0x3fca7e28
   d8858:	93c9db65 	.word	0x93c9db65
   d885c:	3fcd864a 	.word	0x3fcd864a
   d8860:	a91d4101 	.word	0xa91d4101
   d8864:	3fd17460 	.word	0x3fd17460
   d8868:	518f264d 	.word	0x518f264d
   d886c:	3fd55555 	.word	0x3fd55555
   d8870:	db6fabff 	.word	0xdb6fabff
   d8874:	3fdb6db6 	.word	0x3fdb6db6
   d8878:	33333303 	.word	0x33333303
   d887c:	3fe33333 	.word	0x3fe33333
   d8880:	e0000000 	.word	0xe0000000
   d8884:	3feec709 	.word	0x3feec709
   d8888:	dc3a03fd 	.word	0xdc3a03fd
   d888c:	3feec709 	.word	0x3feec709
   d8890:	145b01f5 	.word	0x145b01f5
   d8894:	be3e2fe0 	.word	0xbe3e2fe0
   d8898:	7ff00000 	.word	0x7ff00000
   d889c:	43400000 	.word	0x43400000
   d88a0:	0003988e 	.word	0x0003988e
   d88a4:	000bb679 	.word	0x000bb679
   d88a8:	3ff00000 	.word	0x3ff00000
   d88ac:	40080000 	.word	0x40080000
   d88b0:	9b03      	ldr	r3, [sp, #12]
   d88b2:	9a06      	ldr	r2, [sp, #24]
   d88b4:	3b01      	subs	r3, #1
   d88b6:	4313      	orrs	r3, r2
   d88b8:	f040 8178 	bne.w	d8bac <__ieee754_pow+0x8bc>
   d88bc:	ed9f 7bc4 	vldr	d7, [pc, #784]	; d8bd0 <__ieee754_pow+0x8e0>
   d88c0:	eeb0 9a47 	vmov.f32	s18, s14
   d88c4:	eef0 9a67 	vmov.f32	s19, s15
   d88c8:	2300      	movs	r3, #0
   d88ca:	e9cd 6700 	strd	r6, r7, [sp]
   d88ce:	9300      	str	r3, [sp, #0]
   d88d0:	e9dd 8900 	ldrd	r8, r9, [sp]
   d88d4:	4630      	mov	r0, r6
   d88d6:	4642      	mov	r2, r8
   d88d8:	4639      	mov	r1, r7
   d88da:	464b      	mov	r3, r9
   d88dc:	f000 fcf2 	bl	d92c4 <__aeabi_dsub>
   d88e0:	4622      	mov	r2, r4
   d88e2:	462b      	mov	r3, r5
   d88e4:	f000 fea6 	bl	d9634 <__aeabi_dmul>
   d88e8:	4632      	mov	r2, r6
   d88ea:	463b      	mov	r3, r7
   d88ec:	4606      	mov	r6, r0
   d88ee:	460f      	mov	r7, r1
   d88f0:	4650      	mov	r0, sl
   d88f2:	4659      	mov	r1, fp
   d88f4:	f000 fe9e 	bl	d9634 <__aeabi_dmul>
   d88f8:	4602      	mov	r2, r0
   d88fa:	460b      	mov	r3, r1
   d88fc:	4630      	mov	r0, r6
   d88fe:	4639      	mov	r1, r7
   d8900:	f000 fce2 	bl	d92c8 <__adddf3>
   d8904:	4642      	mov	r2, r8
   d8906:	4682      	mov	sl, r0
   d8908:	468b      	mov	fp, r1
   d890a:	464b      	mov	r3, r9
   d890c:	4620      	mov	r0, r4
   d890e:	4629      	mov	r1, r5
   d8910:	f000 fe90 	bl	d9634 <__aeabi_dmul>
   d8914:	4606      	mov	r6, r0
   d8916:	460f      	mov	r7, r1
   d8918:	463b      	mov	r3, r7
   d891a:	4650      	mov	r0, sl
   d891c:	4659      	mov	r1, fp
   d891e:	4632      	mov	r2, r6
   d8920:	f000 fcd2 	bl	d92c8 <__adddf3>
   d8924:	4bc4      	ldr	r3, [pc, #784]	; (d8c38 <__ieee754_pow+0x948>)
   d8926:	4299      	cmp	r1, r3
   d8928:	4604      	mov	r4, r0
   d892a:	460d      	mov	r5, r1
   d892c:	4688      	mov	r8, r1
   d892e:	f340 8117 	ble.w	d8b60 <__ieee754_pow+0x870>
   d8932:	f101 433f 	add.w	r3, r1, #3204448256	; 0xbf000000
   d8936:	f503 03e0 	add.w	r3, r3, #7340032	; 0x700000
   d893a:	4303      	orrs	r3, r0
   d893c:	f040 822a 	bne.w	d8d94 <__ieee754_pow+0xaa4>
   d8940:	a3a5      	add	r3, pc, #660	; (adr r3, d8bd8 <__ieee754_pow+0x8e8>)
   d8942:	e9d3 2300 	ldrd	r2, r3, [r3]
   d8946:	4650      	mov	r0, sl
   d8948:	4659      	mov	r1, fp
   d894a:	f000 fcbd 	bl	d92c8 <__adddf3>
   d894e:	4632      	mov	r2, r6
   d8950:	ec41 0b18 	vmov	d8, r0, r1
   d8954:	463b      	mov	r3, r7
   d8956:	4620      	mov	r0, r4
   d8958:	4629      	mov	r1, r5
   d895a:	f000 fcb3 	bl	d92c4 <__aeabi_dsub>
   d895e:	4602      	mov	r2, r0
   d8960:	460b      	mov	r3, r1
   d8962:	ec51 0b18 	vmov	r0, r1, d8
   d8966:	f001 f8f5 	bl	d9b54 <__aeabi_dcmpgt>
   d896a:	2800      	cmp	r0, #0
   d896c:	f040 8212 	bne.w	d8d94 <__ieee754_pow+0xaa4>
   d8970:	f3c8 530a 	ubfx	r3, r8, #20, #11
   d8974:	f44f 1280 	mov.w	r2, #1048576	; 0x100000
   d8978:	f2a3 33fe 	subw	r3, r3, #1022	; 0x3fe
   d897c:	fa42 f303 	asr.w	r3, r2, r3
   d8980:	4443      	add	r3, r8
   d8982:	49ae      	ldr	r1, [pc, #696]	; (d8c3c <__ieee754_pow+0x94c>)
   d8984:	f3c3 520a 	ubfx	r2, r3, #20, #11
   d8988:	f2a2 32ff 	subw	r2, r2, #1023	; 0x3ff
   d898c:	fa41 fc02 	asr.w	ip, r1, r2
   d8990:	f3c3 0513 	ubfx	r5, r3, #0, #20
   d8994:	ea23 010c 	bic.w	r1, r3, ip
   d8998:	f1c2 0414 	rsb	r4, r2, #20
   d899c:	f445 1580 	orr.w	r5, r5, #1048576	; 0x100000
   d89a0:	f1b8 0f00 	cmp.w	r8, #0
   d89a4:	460b      	mov	r3, r1
   d89a6:	fa45 f104 	asr.w	r1, r5, r4
   d89aa:	9103      	str	r1, [sp, #12]
   d89ac:	f04f 0000 	mov.w	r0, #0
   d89b0:	bfb8      	it	lt
   d89b2:	4249      	neglt	r1, r1
   d89b4:	4602      	mov	r2, r0
   d89b6:	bfb8      	it	lt
   d89b8:	9103      	strlt	r1, [sp, #12]
   d89ba:	4630      	mov	r0, r6
   d89bc:	4639      	mov	r1, r7
   d89be:	f000 fc81 	bl	d92c4 <__aeabi_dsub>
   d89c2:	4606      	mov	r6, r0
   d89c4:	460f      	mov	r7, r1
   d89c6:	463b      	mov	r3, r7
   d89c8:	4650      	mov	r0, sl
   d89ca:	4659      	mov	r1, fp
   d89cc:	4632      	mov	r2, r6
   d89ce:	f000 fc7b 	bl	d92c8 <__adddf3>
   d89d2:	9b03      	ldr	r3, [sp, #12]
   d89d4:	051b      	lsls	r3, r3, #20
   d89d6:	9300      	str	r3, [sp, #0]
   d89d8:	460d      	mov	r5, r1
   d89da:	2400      	movs	r4, #0
   d89dc:	a380      	add	r3, pc, #512	; (adr r3, d8be0 <__ieee754_pow+0x8f0>)
   d89de:	e9d3 2300 	ldrd	r2, r3, [r3]
   d89e2:	4620      	mov	r0, r4
   d89e4:	4629      	mov	r1, r5
   d89e6:	f000 fe25 	bl	d9634 <__aeabi_dmul>
   d89ea:	4632      	mov	r2, r6
   d89ec:	4680      	mov	r8, r0
   d89ee:	4689      	mov	r9, r1
   d89f0:	463b      	mov	r3, r7
   d89f2:	4620      	mov	r0, r4
   d89f4:	4629      	mov	r1, r5
   d89f6:	f000 fc65 	bl	d92c4 <__aeabi_dsub>
   d89fa:	4602      	mov	r2, r0
   d89fc:	460b      	mov	r3, r1
   d89fe:	4650      	mov	r0, sl
   d8a00:	4659      	mov	r1, fp
   d8a02:	f000 fc5f 	bl	d92c4 <__aeabi_dsub>
   d8a06:	a378      	add	r3, pc, #480	; (adr r3, d8be8 <__ieee754_pow+0x8f8>)
   d8a08:	e9d3 2300 	ldrd	r2, r3, [r3]
   d8a0c:	f000 fe12 	bl	d9634 <__aeabi_dmul>
   d8a10:	a377      	add	r3, pc, #476	; (adr r3, d8bf0 <__ieee754_pow+0x900>)
   d8a12:	e9d3 2300 	ldrd	r2, r3, [r3]
   d8a16:	4606      	mov	r6, r0
   d8a18:	460f      	mov	r7, r1
   d8a1a:	4620      	mov	r0, r4
   d8a1c:	4629      	mov	r1, r5
   d8a1e:	f000 fe09 	bl	d9634 <__aeabi_dmul>
   d8a22:	4602      	mov	r2, r0
   d8a24:	460b      	mov	r3, r1
   d8a26:	4630      	mov	r0, r6
   d8a28:	4639      	mov	r1, r7
   d8a2a:	f000 fc4d 	bl	d92c8 <__adddf3>
   d8a2e:	4606      	mov	r6, r0
   d8a30:	460f      	mov	r7, r1
   d8a32:	4632      	mov	r2, r6
   d8a34:	463b      	mov	r3, r7
   d8a36:	4640      	mov	r0, r8
   d8a38:	4649      	mov	r1, r9
   d8a3a:	f000 fc45 	bl	d92c8 <__adddf3>
   d8a3e:	4642      	mov	r2, r8
   d8a40:	464b      	mov	r3, r9
   d8a42:	4604      	mov	r4, r0
   d8a44:	460d      	mov	r5, r1
   d8a46:	f000 fc3d 	bl	d92c4 <__aeabi_dsub>
   d8a4a:	4602      	mov	r2, r0
   d8a4c:	460b      	mov	r3, r1
   d8a4e:	4630      	mov	r0, r6
   d8a50:	4639      	mov	r1, r7
   d8a52:	f000 fc37 	bl	d92c4 <__aeabi_dsub>
   d8a56:	4622      	mov	r2, r4
   d8a58:	4682      	mov	sl, r0
   d8a5a:	468b      	mov	fp, r1
   d8a5c:	462b      	mov	r3, r5
   d8a5e:	4620      	mov	r0, r4
   d8a60:	4629      	mov	r1, r5
   d8a62:	f000 fde7 	bl	d9634 <__aeabi_dmul>
   d8a66:	a364      	add	r3, pc, #400	; (adr r3, d8bf8 <__ieee754_pow+0x908>)
   d8a68:	e9d3 2300 	ldrd	r2, r3, [r3]
   d8a6c:	4606      	mov	r6, r0
   d8a6e:	460f      	mov	r7, r1
   d8a70:	f000 fde0 	bl	d9634 <__aeabi_dmul>
   d8a74:	a362      	add	r3, pc, #392	; (adr r3, d8c00 <__ieee754_pow+0x910>)
   d8a76:	e9d3 2300 	ldrd	r2, r3, [r3]
   d8a7a:	f000 fc23 	bl	d92c4 <__aeabi_dsub>
   d8a7e:	4632      	mov	r2, r6
   d8a80:	463b      	mov	r3, r7
   d8a82:	f000 fdd7 	bl	d9634 <__aeabi_dmul>
   d8a86:	a360      	add	r3, pc, #384	; (adr r3, d8c08 <__ieee754_pow+0x918>)
   d8a88:	e9d3 2300 	ldrd	r2, r3, [r3]
   d8a8c:	f000 fc1c 	bl	d92c8 <__adddf3>
   d8a90:	4632      	mov	r2, r6
   d8a92:	463b      	mov	r3, r7
   d8a94:	f000 fdce 	bl	d9634 <__aeabi_dmul>
   d8a98:	a35d      	add	r3, pc, #372	; (adr r3, d8c10 <__ieee754_pow+0x920>)
   d8a9a:	e9d3 2300 	ldrd	r2, r3, [r3]
   d8a9e:	f000 fc11 	bl	d92c4 <__aeabi_dsub>
   d8aa2:	4632      	mov	r2, r6
   d8aa4:	463b      	mov	r3, r7
   d8aa6:	f000 fdc5 	bl	d9634 <__aeabi_dmul>
   d8aaa:	a35b      	add	r3, pc, #364	; (adr r3, d8c18 <__ieee754_pow+0x928>)
   d8aac:	e9d3 2300 	ldrd	r2, r3, [r3]
   d8ab0:	f000 fc0a 	bl	d92c8 <__adddf3>
   d8ab4:	4632      	mov	r2, r6
   d8ab6:	463b      	mov	r3, r7
   d8ab8:	f000 fdbc 	bl	d9634 <__aeabi_dmul>
   d8abc:	4602      	mov	r2, r0
   d8abe:	460b      	mov	r3, r1
   d8ac0:	4620      	mov	r0, r4
   d8ac2:	4629      	mov	r1, r5
   d8ac4:	f000 fbfe 	bl	d92c4 <__aeabi_dsub>
   d8ac8:	4606      	mov	r6, r0
   d8aca:	460f      	mov	r7, r1
   d8acc:	4632      	mov	r2, r6
   d8ace:	463b      	mov	r3, r7
   d8ad0:	4620      	mov	r0, r4
   d8ad2:	4629      	mov	r1, r5
   d8ad4:	f000 fdae 	bl	d9634 <__aeabi_dmul>
   d8ad8:	2200      	movs	r2, #0
   d8ada:	4680      	mov	r8, r0
   d8adc:	4689      	mov	r9, r1
   d8ade:	f04f 4380 	mov.w	r3, #1073741824	; 0x40000000
   d8ae2:	4630      	mov	r0, r6
   d8ae4:	4639      	mov	r1, r7
   d8ae6:	f000 fbed 	bl	d92c4 <__aeabi_dsub>
   d8aea:	4602      	mov	r2, r0
   d8aec:	460b      	mov	r3, r1
   d8aee:	4640      	mov	r0, r8
   d8af0:	4649      	mov	r1, r9
   d8af2:	f000 fec9 	bl	d9888 <__aeabi_ddiv>
   d8af6:	4652      	mov	r2, sl
   d8af8:	4606      	mov	r6, r0
   d8afa:	460f      	mov	r7, r1
   d8afc:	465b      	mov	r3, fp
   d8afe:	4620      	mov	r0, r4
   d8b00:	4629      	mov	r1, r5
   d8b02:	f000 fd97 	bl	d9634 <__aeabi_dmul>
   d8b06:	4652      	mov	r2, sl
   d8b08:	465b      	mov	r3, fp
   d8b0a:	f000 fbdd 	bl	d92c8 <__adddf3>
   d8b0e:	4602      	mov	r2, r0
   d8b10:	460b      	mov	r3, r1
   d8b12:	4630      	mov	r0, r6
   d8b14:	4639      	mov	r1, r7
   d8b16:	f000 fbd5 	bl	d92c4 <__aeabi_dsub>
   d8b1a:	4622      	mov	r2, r4
   d8b1c:	462b      	mov	r3, r5
   d8b1e:	f000 fbd1 	bl	d92c4 <__aeabi_dsub>
   d8b22:	4602      	mov	r2, r0
   d8b24:	460b      	mov	r3, r1
   d8b26:	2000      	movs	r0, #0
   d8b28:	4945      	ldr	r1, [pc, #276]	; (d8c40 <__ieee754_pow+0x950>)
   d8b2a:	f000 fbcb 	bl	d92c4 <__aeabi_dsub>
   d8b2e:	460b      	mov	r3, r1
   d8b30:	9900      	ldr	r1, [sp, #0]
   d8b32:	4419      	add	r1, r3
   d8b34:	f5b1 1f80 	cmp.w	r1, #1048576	; 0x100000
   d8b38:	4602      	mov	r2, r0
   d8b3a:	f2c0 8169 	blt.w	d8e10 <__ieee754_pow+0xb20>
   d8b3e:	4610      	mov	r0, r2
   d8b40:	ec53 2b19 	vmov	r2, r3, d9
   d8b44:	f000 fd76 	bl	d9634 <__aeabi_dmul>
   d8b48:	e9cd 0100 	strd	r0, r1, [sp]
   d8b4c:	e41e      	b.n	d838c <__ieee754_pow+0x9c>
   d8b4e:	f1bb 0f00 	cmp.w	fp, #0
   d8b52:	f6ff ac95 	blt.w	d8480 <__ieee754_pow+0x190>
   d8b56:	ed9f 7b32 	vldr	d7, [pc, #200]	; d8c20 <__ieee754_pow+0x930>
   d8b5a:	ed8d 7b00 	vstr	d7, [sp]
   d8b5e:	e415      	b.n	d838c <__ieee754_pow+0x9c>
   d8b60:	f8df c0e4 	ldr.w	ip, [pc, #228]	; d8c48 <__ieee754_pow+0x958>
   d8b64:	f021 4300 	bic.w	r3, r1, #2147483648	; 0x80000000
   d8b68:	4563      	cmp	r3, ip
   d8b6a:	f340 810b 	ble.w	d8d84 <__ieee754_pow+0xa94>
   d8b6e:	4b35      	ldr	r3, [pc, #212]	; (d8c44 <__ieee754_pow+0x954>)
   d8b70:	440b      	add	r3, r1
   d8b72:	4303      	orrs	r3, r0
   d8b74:	d10a      	bne.n	d8b8c <__ieee754_pow+0x89c>
   d8b76:	4632      	mov	r2, r6
   d8b78:	463b      	mov	r3, r7
   d8b7a:	f000 fba3 	bl	d92c4 <__aeabi_dsub>
   d8b7e:	4652      	mov	r2, sl
   d8b80:	465b      	mov	r3, fp
   d8b82:	f000 ffdd 	bl	d9b40 <__aeabi_dcmpge>
   d8b86:	2800      	cmp	r0, #0
   d8b88:	f43f aef2 	beq.w	d8970 <__ieee754_pow+0x680>
   d8b8c:	a326      	add	r3, pc, #152	; (adr r3, d8c28 <__ieee754_pow+0x938>)
   d8b8e:	e9d3 2300 	ldrd	r2, r3, [r3]
   d8b92:	ec51 0b19 	vmov	r0, r1, d9
   d8b96:	f000 fd4d 	bl	d9634 <__aeabi_dmul>
   d8b9a:	a323      	add	r3, pc, #140	; (adr r3, d8c28 <__ieee754_pow+0x938>)
   d8b9c:	e9d3 2300 	ldrd	r2, r3, [r3]
   d8ba0:	f000 fd48 	bl	d9634 <__aeabi_dmul>
   d8ba4:	e9cd 0100 	strd	r0, r1, [sp]
   d8ba8:	f7ff bbf0 	b.w	d838c <__ieee754_pow+0x9c>
   d8bac:	ed9f 7b20 	vldr	d7, [pc, #128]	; d8c30 <__ieee754_pow+0x940>
   d8bb0:	eeb0 9a47 	vmov.f32	s18, s14
   d8bb4:	eef0 9a67 	vmov.f32	s19, s15
   d8bb8:	e686      	b.n	d88c8 <__ieee754_pow+0x5d8>
   d8bba:	f1bb 0f00 	cmp.w	fp, #0
   d8bbe:	daca      	bge.n	d8b56 <__ieee754_pow+0x866>
   d8bc0:	f107 4300 	add.w	r3, r7, #2147483648	; 0x80000000
   d8bc4:	9600      	str	r6, [sp, #0]
   d8bc6:	9301      	str	r3, [sp, #4]
   d8bc8:	f7ff bbe0 	b.w	d838c <__ieee754_pow+0x9c>
   d8bcc:	f3af 8000 	nop.w
   d8bd0:	00000000 	.word	0x00000000
   d8bd4:	bff00000 	.word	0xbff00000
   d8bd8:	652b82fe 	.word	0x652b82fe
   d8bdc:	3c971547 	.word	0x3c971547
   d8be0:	00000000 	.word	0x00000000
   d8be4:	3fe62e43 	.word	0x3fe62e43
   d8be8:	fefa39ef 	.word	0xfefa39ef
   d8bec:	3fe62e42 	.word	0x3fe62e42
   d8bf0:	0ca86c39 	.word	0x0ca86c39
   d8bf4:	be205c61 	.word	0xbe205c61
   d8bf8:	72bea4d0 	.word	0x72bea4d0
   d8bfc:	3e663769 	.word	0x3e663769
   d8c00:	c5d26bf1 	.word	0xc5d26bf1
   d8c04:	3ebbbd41 	.word	0x3ebbbd41
   d8c08:	af25de2c 	.word	0xaf25de2c
   d8c0c:	3f11566a 	.word	0x3f11566a
   d8c10:	16bebd93 	.word	0x16bebd93
   d8c14:	3f66c16c 	.word	0x3f66c16c
   d8c18:	5555553e 	.word	0x5555553e
   d8c1c:	3fc55555 	.word	0x3fc55555
	...
   d8c28:	c2f8f359 	.word	0xc2f8f359
   d8c2c:	01a56e1f 	.word	0x01a56e1f
   d8c30:	00000000 	.word	0x00000000
   d8c34:	3ff00000 	.word	0x3ff00000
   d8c38:	408fffff 	.word	0x408fffff
   d8c3c:	000fffff 	.word	0x000fffff
   d8c40:	3ff00000 	.word	0x3ff00000
   d8c44:	3f6f3400 	.word	0x3f6f3400
   d8c48:	4090cbff 	.word	0x4090cbff
   d8c4c:	4598      	cmp	r8, r3
   d8c4e:	f6ff af7e 	blt.w	d8b4e <__ieee754_pow+0x85e>
   d8c52:	4b91      	ldr	r3, [pc, #580]	; (d8e98 <__ieee754_pow+0xba8>)
   d8c54:	4598      	cmp	r8, r3
   d8c56:	f73f ac0f 	bgt.w	d8478 <__ieee754_pow+0x188>
   d8c5a:	4b8f      	ldr	r3, [pc, #572]	; (d8e98 <__ieee754_pow+0xba8>)
   d8c5c:	2200      	movs	r2, #0
   d8c5e:	e9dd 0100 	ldrd	r0, r1, [sp]
   d8c62:	f000 fb2f 	bl	d92c4 <__aeabi_dsub>
   d8c66:	a378      	add	r3, pc, #480	; (adr r3, d8e48 <__ieee754_pow+0xb58>)
   d8c68:	e9d3 2300 	ldrd	r2, r3, [r3]
   d8c6c:	4604      	mov	r4, r0
   d8c6e:	460d      	mov	r5, r1
   d8c70:	f000 fce0 	bl	d9634 <__aeabi_dmul>
   d8c74:	a376      	add	r3, pc, #472	; (adr r3, d8e50 <__ieee754_pow+0xb60>)
   d8c76:	e9d3 2300 	ldrd	r2, r3, [r3]
   d8c7a:	4682      	mov	sl, r0
   d8c7c:	468b      	mov	fp, r1
   d8c7e:	4620      	mov	r0, r4
   d8c80:	4629      	mov	r1, r5
   d8c82:	f000 fcd7 	bl	d9634 <__aeabi_dmul>
   d8c86:	4b85      	ldr	r3, [pc, #532]	; (d8e9c <__ieee754_pow+0xbac>)
   d8c88:	4680      	mov	r8, r0
   d8c8a:	4689      	mov	r9, r1
   d8c8c:	2200      	movs	r2, #0
   d8c8e:	4620      	mov	r0, r4
   d8c90:	4629      	mov	r1, r5
   d8c92:	f000 fccf 	bl	d9634 <__aeabi_dmul>
   d8c96:	4602      	mov	r2, r0
   d8c98:	460b      	mov	r3, r1
   d8c9a:	a16f      	add	r1, pc, #444	; (adr r1, d8e58 <__ieee754_pow+0xb68>)
   d8c9c:	e9d1 0100 	ldrd	r0, r1, [r1]
   d8ca0:	f000 fb10 	bl	d92c4 <__aeabi_dsub>
   d8ca4:	4622      	mov	r2, r4
   d8ca6:	462b      	mov	r3, r5
   d8ca8:	f000 fcc4 	bl	d9634 <__aeabi_dmul>
   d8cac:	4602      	mov	r2, r0
   d8cae:	460b      	mov	r3, r1
   d8cb0:	2000      	movs	r0, #0
   d8cb2:	497b      	ldr	r1, [pc, #492]	; (d8ea0 <__ieee754_pow+0xbb0>)
   d8cb4:	f000 fb06 	bl	d92c4 <__aeabi_dsub>
   d8cb8:	4622      	mov	r2, r4
   d8cba:	462b      	mov	r3, r5
   d8cbc:	4604      	mov	r4, r0
   d8cbe:	460d      	mov	r5, r1
   d8cc0:	4610      	mov	r0, r2
   d8cc2:	4619      	mov	r1, r3
   d8cc4:	f000 fcb6 	bl	d9634 <__aeabi_dmul>
   d8cc8:	4602      	mov	r2, r0
   d8cca:	460b      	mov	r3, r1
   d8ccc:	4620      	mov	r0, r4
   d8cce:	4629      	mov	r1, r5
   d8cd0:	f000 fcb0 	bl	d9634 <__aeabi_dmul>
   d8cd4:	a362      	add	r3, pc, #392	; (adr r3, d8e60 <__ieee754_pow+0xb70>)
   d8cd6:	e9d3 2300 	ldrd	r2, r3, [r3]
   d8cda:	f000 fcab 	bl	d9634 <__aeabi_dmul>
   d8cde:	4602      	mov	r2, r0
   d8ce0:	460b      	mov	r3, r1
   d8ce2:	4640      	mov	r0, r8
   d8ce4:	4649      	mov	r1, r9
   d8ce6:	f000 faed 	bl	d92c4 <__aeabi_dsub>
   d8cea:	4680      	mov	r8, r0
   d8cec:	4689      	mov	r9, r1
   d8cee:	4650      	mov	r0, sl
   d8cf0:	4659      	mov	r1, fp
   d8cf2:	4642      	mov	r2, r8
   d8cf4:	464b      	mov	r3, r9
   d8cf6:	f000 fae7 	bl	d92c8 <__adddf3>
   d8cfa:	2400      	movs	r4, #0
   d8cfc:	4652      	mov	r2, sl
   d8cfe:	465b      	mov	r3, fp
   d8d00:	4620      	mov	r0, r4
   d8d02:	460d      	mov	r5, r1
   d8d04:	f000 fade 	bl	d92c4 <__aeabi_dsub>
   d8d08:	4602      	mov	r2, r0
   d8d0a:	460b      	mov	r3, r1
   d8d0c:	4640      	mov	r0, r8
   d8d0e:	4649      	mov	r1, r9
   d8d10:	f000 fad8 	bl	d92c4 <__aeabi_dsub>
   d8d14:	4682      	mov	sl, r0
   d8d16:	468b      	mov	fp, r1
   d8d18:	e5ca      	b.n	d88b0 <__ieee754_pow+0x5c0>
   d8d1a:	ed9f 7b53 	vldr	d7, [pc, #332]	; d8e68 <__ieee754_pow+0xb78>
   d8d1e:	eeb0 ba47 	vmov.f32	s22, s14
   d8d22:	eef0 ba67 	vmov.f32	s23, s15
   d8d26:	eeb0 ca47 	vmov.f32	s24, s14
   d8d2a:	eef0 ca67 	vmov.f32	s25, s15
   d8d2e:	ed9f 7b50 	vldr	d7, [pc, #320]	; d8e70 <__ieee754_pow+0xb80>
   d8d32:	f04f 0900 	mov.w	r9, #0
   d8d36:	ec54 3b17 	vmov	r3, r4, d7
   d8d3a:	e41d      	b.n	d8578 <__ieee754_pow+0x288>
   d8d3c:	2000      	movs	r0, #0
   d8d3e:	f7ff bbf3 	b.w	d8528 <__ieee754_pow+0x238>
   d8d42:	4955      	ldr	r1, [pc, #340]	; (d8e98 <__ieee754_pow+0xba8>)
   d8d44:	4622      	mov	r2, r4
   d8d46:	462b      	mov	r3, r5
   d8d48:	2000      	movs	r0, #0
   d8d4a:	f000 fd9d 	bl	d9888 <__aeabi_ddiv>
   d8d4e:	e9cd 0100 	strd	r0, r1, [sp]
   d8d52:	f7ff bb1b 	b.w	d838c <__ieee754_pow+0x9c>
   d8d56:	4622      	mov	r2, r4
   d8d58:	462b      	mov	r3, r5
   d8d5a:	4620      	mov	r0, r4
   d8d5c:	4629      	mov	r1, r5
   d8d5e:	f000 fc69 	bl	d9634 <__aeabi_dmul>
   d8d62:	e9cd 0100 	strd	r0, r1, [sp]
   d8d66:	f7ff bb11 	b.w	d838c <__ieee754_pow+0x9c>
   d8d6a:	2b00      	cmp	r3, #0
   d8d6c:	d142      	bne.n	d8df4 <__ieee754_pow+0xb04>
   d8d6e:	f1c1 0114 	rsb	r1, r1, #20
   d8d72:	fa4a f001 	asr.w	r0, sl, r1
   d8d76:	fa00 f101 	lsl.w	r1, r0, r1
   d8d7a:	4551      	cmp	r1, sl
   d8d7c:	d05a      	beq.n	d8e34 <__ieee754_pow+0xb44>
   d8d7e:	9303      	str	r3, [sp, #12]
   d8d80:	f7ff bae0 	b.w	d8344 <__ieee754_pow+0x54>
   d8d84:	4a46      	ldr	r2, [pc, #280]	; (d8ea0 <__ieee754_pow+0xbb0>)
   d8d86:	4293      	cmp	r3, r2
   d8d88:	dc5b      	bgt.n	d8e42 <__ieee754_pow+0xb52>
   d8d8a:	e9dd 1200 	ldrd	r1, r2, [sp]
   d8d8e:	9100      	str	r1, [sp, #0]
   d8d90:	9103      	str	r1, [sp, #12]
   d8d92:	e622      	b.n	d89da <__ieee754_pow+0x6ea>
   d8d94:	a338      	add	r3, pc, #224	; (adr r3, d8e78 <__ieee754_pow+0xb88>)
   d8d96:	e9d3 2300 	ldrd	r2, r3, [r3]
   d8d9a:	ec51 0b19 	vmov	r0, r1, d9
   d8d9e:	f000 fc49 	bl	d9634 <__aeabi_dmul>
   d8da2:	a335      	add	r3, pc, #212	; (adr r3, d8e78 <__ieee754_pow+0xb88>)
   d8da4:	e9d3 2300 	ldrd	r2, r3, [r3]
   d8da8:	f000 fc44 	bl	d9634 <__aeabi_dmul>
   d8dac:	e9cd 0100 	strd	r0, r1, [sp]
   d8db0:	f7ff baec 	b.w	d838c <__ieee754_pow+0x9c>
   d8db4:	9b03      	ldr	r3, [sp, #12]
   d8db6:	2b01      	cmp	r3, #1
   d8db8:	f47f aae8 	bne.w	d838c <__ieee754_pow+0x9c>
   d8dbc:	e9dd 2100 	ldrd	r2, r1, [sp]
   d8dc0:	f101 4300 	add.w	r3, r1, #2147483648	; 0x80000000
   d8dc4:	e9cd 2300 	strd	r2, r3, [sp]
   d8dc8:	f7ff bae0 	b.w	d838c <__ieee754_pow+0x9c>
   d8dcc:	ed9f 7b2c 	vldr	d7, [pc, #176]	; d8e80 <__ieee754_pow+0xb90>
   d8dd0:	eeb0 ba47 	vmov.f32	s22, s14
   d8dd4:	eef0 ba67 	vmov.f32	s23, s15
   d8dd8:	ed9f 7b2b 	vldr	d7, [pc, #172]	; d8e88 <__ieee754_pow+0xb98>
   d8ddc:	eeb0 ca47 	vmov.f32	s24, s14
   d8de0:	eef0 ca67 	vmov.f32	s25, s15
   d8de4:	ed9f 7b2a 	vldr	d7, [pc, #168]	; d8e90 <__ieee754_pow+0xba0>
   d8de8:	f44f 2980 	mov.w	r9, #262144	; 0x40000
   d8dec:	ec54 3b17 	vmov	r3, r4, d7
   d8df0:	f7ff bbc2 	b.w	d8578 <__ieee754_pow+0x288>
   d8df4:	ec45 4b10 	vmov	d0, r4, r5
   d8df8:	9203      	str	r2, [sp, #12]
   d8dfa:	f000 f917 	bl	d902c <fabs>
   d8dfe:	9a03      	ldr	r2, [sp, #12]
   d8e00:	ed8d 0b00 	vstr	d0, [sp]
   d8e04:	2a00      	cmp	r2, #0
   d8e06:	f47f ab61 	bne.w	d84cc <__ieee754_pow+0x1dc>
   d8e0a:	9203      	str	r2, [sp, #12]
   d8e0c:	f7ff baf5 	b.w	d83fa <__ieee754_pow+0x10a>
   d8e10:	9803      	ldr	r0, [sp, #12]
   d8e12:	ec43 2b10 	vmov	d0, r2, r3
   d8e16:	f000 f9bf 	bl	d9198 <scalbn>
   d8e1a:	ec51 0b10 	vmov	r0, r1, d0
   d8e1e:	e68f      	b.n	d8b40 <__ieee754_pow+0x850>
   d8e20:	f000 0001 	and.w	r0, r0, #1
   d8e24:	f1c0 0102 	rsb	r1, r0, #2
   d8e28:	9103      	str	r1, [sp, #12]
   d8e2a:	2b00      	cmp	r3, #0
   d8e2c:	f43f aa8a 	beq.w	d8344 <__ieee754_pow+0x54>
   d8e30:	f7ff bada 	b.w	d83e8 <__ieee754_pow+0xf8>
   d8e34:	f000 0001 	and.w	r0, r0, #1
   d8e38:	f1c0 0302 	rsb	r3, r0, #2
   d8e3c:	9303      	str	r3, [sp, #12]
   d8e3e:	f7ff ba81 	b.w	d8344 <__ieee754_pow+0x54>
   d8e42:	151b      	asrs	r3, r3, #20
   d8e44:	e596      	b.n	d8974 <__ieee754_pow+0x684>
   d8e46:	bf00      	nop
   d8e48:	60000000 	.word	0x60000000
   d8e4c:	3ff71547 	.word	0x3ff71547
   d8e50:	f85ddf44 	.word	0xf85ddf44
   d8e54:	3e54ae0b 	.word	0x3e54ae0b
   d8e58:	55555555 	.word	0x55555555
   d8e5c:	3fd55555 	.word	0x3fd55555
   d8e60:	652b82fe 	.word	0x652b82fe
   d8e64:	3ff71547 	.word	0x3ff71547
	...
   d8e74:	3ff00000 	.word	0x3ff00000
   d8e78:	8800759c 	.word	0x8800759c
   d8e7c:	7e37e43c 	.word	0x7e37e43c
   d8e80:	40000000 	.word	0x40000000
   d8e84:	3fe2b803 	.word	0x3fe2b803
   d8e88:	43cfd006 	.word	0x43cfd006
   d8e8c:	3e4cfdeb 	.word	0x3e4cfdeb
   d8e90:	00000000 	.word	0x00000000
   d8e94:	3ff80000 	.word	0x3ff80000
   d8e98:	3ff00000 	.word	0x3ff00000
   d8e9c:	3fd00000 	.word	0x3fd00000
   d8ea0:	3fe00000 	.word	0x3fe00000

000d8ea4 <__ieee754_sqrt>:
   d8ea4:	e92d 41f0 	stmdb	sp!, {r4, r5, r6, r7, r8, lr}
   d8ea8:	4a5f      	ldr	r2, [pc, #380]	; (d9028 <__ieee754_sqrt+0x184>)
   d8eaa:	ec57 6b10 	vmov	r6, r7, d0
   d8eae:	43ba      	bics	r2, r7
   d8eb0:	f000 8098 	beq.w	d8fe4 <__ieee754_sqrt+0x140>
   d8eb4:	2f00      	cmp	r7, #0
   d8eb6:	ee10 4a10 	vmov	r4, s0
   d8eba:	463b      	mov	r3, r7
   d8ebc:	dd4e      	ble.n	d8f5c <__ieee754_sqrt+0xb8>
   d8ebe:	1539      	asrs	r1, r7, #20
   d8ec0:	d05b      	beq.n	d8f7a <__ieee754_sqrt+0xd6>
   d8ec2:	f3c3 0313 	ubfx	r3, r3, #0, #20
   d8ec6:	07ca      	lsls	r2, r1, #31
   d8ec8:	f443 1380 	orr.w	r3, r3, #1048576	; 0x100000
   d8ecc:	f2a1 3eff 	subw	lr, r1, #1023	; 0x3ff
   d8ed0:	d403      	bmi.n	d8eda <__ieee754_sqrt+0x36>
   d8ed2:	005b      	lsls	r3, r3, #1
   d8ed4:	eb03 73d4 	add.w	r3, r3, r4, lsr #31
   d8ed8:	0064      	lsls	r4, r4, #1
   d8eda:	0fe2      	lsrs	r2, r4, #31
   d8edc:	f04f 0c00 	mov.w	ip, #0
   d8ee0:	eb02 0343 	add.w	r3, r2, r3, lsl #1
   d8ee4:	ea4f 0e6e 	mov.w	lr, lr, asr #1
   d8ee8:	0064      	lsls	r4, r4, #1
   d8eea:	4666      	mov	r6, ip
   d8eec:	2516      	movs	r5, #22
   d8eee:	f44f 1200 	mov.w	r2, #2097152	; 0x200000
   d8ef2:	18b1      	adds	r1, r6, r2
   d8ef4:	4299      	cmp	r1, r3
   d8ef6:	dc02      	bgt.n	d8efe <__ieee754_sqrt+0x5a>
   d8ef8:	1a5b      	subs	r3, r3, r1
   d8efa:	188e      	adds	r6, r1, r2
   d8efc:	4494      	add	ip, r2
   d8efe:	005b      	lsls	r3, r3, #1
   d8f00:	3d01      	subs	r5, #1
   d8f02:	eb03 73d4 	add.w	r3, r3, r4, lsr #31
   d8f06:	ea4f 0252 	mov.w	r2, r2, lsr #1
   d8f0a:	ea4f 0444 	mov.w	r4, r4, lsl #1
   d8f0e:	d1f0      	bne.n	d8ef2 <__ieee754_sqrt+0x4e>
   d8f10:	462f      	mov	r7, r5
   d8f12:	2020      	movs	r0, #32
   d8f14:	f04f 4200 	mov.w	r2, #2147483648	; 0x80000000
   d8f18:	e009      	b.n	d8f2e <__ieee754_sqrt+0x8a>
   d8f1a:	d03e      	beq.n	d8f9a <__ieee754_sqrt+0xf6>
   d8f1c:	0fe1      	lsrs	r1, r4, #31
   d8f1e:	3801      	subs	r0, #1
   d8f20:	ea4f 0252 	mov.w	r2, r2, lsr #1
   d8f24:	eb01 0343 	add.w	r3, r1, r3, lsl #1
   d8f28:	ea4f 0444 	mov.w	r4, r4, lsl #1
   d8f2c:	d03e      	beq.n	d8fac <__ieee754_sqrt+0x108>
   d8f2e:	42b3      	cmp	r3, r6
   d8f30:	eb02 0105 	add.w	r1, r2, r5
   d8f34:	ddf1      	ble.n	d8f1a <__ieee754_sqrt+0x76>
   d8f36:	2900      	cmp	r1, #0
   d8f38:	eb01 0502 	add.w	r5, r1, r2
   d8f3c:	db09      	blt.n	d8f52 <__ieee754_sqrt+0xae>
   d8f3e:	46b0      	mov	r8, r6
   d8f40:	1b9b      	subs	r3, r3, r6
   d8f42:	42a1      	cmp	r1, r4
   d8f44:	bf88      	it	hi
   d8f46:	f103 33ff 	addhi.w	r3, r3, #4294967295
   d8f4a:	1a64      	subs	r4, r4, r1
   d8f4c:	4417      	add	r7, r2
   d8f4e:	4646      	mov	r6, r8
   d8f50:	e7e4      	b.n	d8f1c <__ieee754_sqrt+0x78>
   d8f52:	2d00      	cmp	r5, #0
   d8f54:	dbf3      	blt.n	d8f3e <__ieee754_sqrt+0x9a>
   d8f56:	f106 0801 	add.w	r8, r6, #1
   d8f5a:	e7f1      	b.n	d8f40 <__ieee754_sqrt+0x9c>
   d8f5c:	f027 4200 	bic.w	r2, r7, #2147483648	; 0x80000000
   d8f60:	4332      	orrs	r2, r6
   d8f62:	d036      	beq.n	d8fd2 <__ieee754_sqrt+0x12e>
   d8f64:	2f00      	cmp	r7, #0
   d8f66:	d14d      	bne.n	d9004 <__ieee754_sqrt+0x160>
   d8f68:	4639      	mov	r1, r7
   d8f6a:	0ae2      	lsrs	r2, r4, #11
   d8f6c:	3915      	subs	r1, #21
   d8f6e:	0564      	lsls	r4, r4, #21
   d8f70:	4613      	mov	r3, r2
   d8f72:	2a00      	cmp	r2, #0
   d8f74:	d0f9      	beq.n	d8f6a <__ieee754_sqrt+0xc6>
   d8f76:	02d7      	lsls	r7, r2, #11
   d8f78:	d451      	bmi.n	d901e <__ieee754_sqrt+0x17a>
   d8f7a:	2000      	movs	r0, #0
   d8f7c:	005b      	lsls	r3, r3, #1
   d8f7e:	02de      	lsls	r6, r3, #11
   d8f80:	4605      	mov	r5, r0
   d8f82:	f100 0001 	add.w	r0, r0, #1
   d8f86:	d5f9      	bpl.n	d8f7c <__ieee754_sqrt+0xd8>
   d8f88:	461a      	mov	r2, r3
   d8f8a:	4623      	mov	r3, r4
   d8f8c:	4084      	lsls	r4, r0
   d8f8e:	f1c0 0020 	rsb	r0, r0, #32
   d8f92:	40c3      	lsrs	r3, r0
   d8f94:	4313      	orrs	r3, r2
   d8f96:	1b49      	subs	r1, r1, r5
   d8f98:	e793      	b.n	d8ec2 <__ieee754_sqrt+0x1e>
   d8f9a:	42a1      	cmp	r1, r4
   d8f9c:	d8be      	bhi.n	d8f1c <__ieee754_sqrt+0x78>
   d8f9e:	2900      	cmp	r1, #0
   d8fa0:	eb01 0502 	add.w	r5, r1, r2
   d8fa4:	dbd5      	blt.n	d8f52 <__ieee754_sqrt+0xae>
   d8fa6:	4698      	mov	r8, r3
   d8fa8:	2300      	movs	r3, #0
   d8faa:	e7ce      	b.n	d8f4a <__ieee754_sqrt+0xa6>
   d8fac:	4323      	orrs	r3, r4
   d8fae:	d112      	bne.n	d8fd6 <__ieee754_sqrt+0x132>
   d8fb0:	0878      	lsrs	r0, r7, #1
   d8fb2:	ea4f 016c 	mov.w	r1, ip, asr #1
   d8fb6:	f101 517f 	add.w	r1, r1, #1069547520	; 0x3fc00000
   d8fba:	f01c 0f01 	tst.w	ip, #1
   d8fbe:	f501 1100 	add.w	r1, r1, #2097152	; 0x200000
   d8fc2:	bf18      	it	ne
   d8fc4:	f040 4000 	orrne.w	r0, r0, #2147483648	; 0x80000000
   d8fc8:	eb01 530e 	add.w	r3, r1, lr, lsl #20
   d8fcc:	4602      	mov	r2, r0
   d8fce:	ec43 2b10 	vmov	d0, r2, r3
   d8fd2:	e8bd 81f0 	ldmia.w	sp!, {r4, r5, r6, r7, r8, pc}
   d8fd6:	1c7b      	adds	r3, r7, #1
   d8fd8:	bf16      	itet	ne
   d8fda:	1c78      	addne	r0, r7, #1
   d8fdc:	f10c 0c01 	addeq.w	ip, ip, #1
   d8fe0:	0840      	lsrne	r0, r0, #1
   d8fe2:	e7e6      	b.n	d8fb2 <__ieee754_sqrt+0x10e>
   d8fe4:	ee10 2a10 	vmov	r2, s0
   d8fe8:	ee10 0a10 	vmov	r0, s0
   d8fec:	463b      	mov	r3, r7
   d8fee:	4639      	mov	r1, r7
   d8ff0:	f000 fb20 	bl	d9634 <__aeabi_dmul>
   d8ff4:	4632      	mov	r2, r6
   d8ff6:	463b      	mov	r3, r7
   d8ff8:	f000 f966 	bl	d92c8 <__adddf3>
   d8ffc:	ec41 0b10 	vmov	d0, r0, r1
   d9000:	e8bd 81f0 	ldmia.w	sp!, {r4, r5, r6, r7, r8, pc}
   d9004:	ee10 2a10 	vmov	r2, s0
   d9008:	4630      	mov	r0, r6
   d900a:	4639      	mov	r1, r7
   d900c:	f000 f95a 	bl	d92c4 <__aeabi_dsub>
   d9010:	4602      	mov	r2, r0
   d9012:	460b      	mov	r3, r1
   d9014:	f000 fc38 	bl	d9888 <__aeabi_ddiv>
   d9018:	ec41 0b10 	vmov	d0, r0, r1
   d901c:	e7d9      	b.n	d8fd2 <__ieee754_sqrt+0x12e>
   d901e:	4623      	mov	r3, r4
   d9020:	2020      	movs	r0, #32
   d9022:	f04f 35ff 	mov.w	r5, #4294967295
   d9026:	e7b4      	b.n	d8f92 <__ieee754_sqrt+0xee>
   d9028:	7ff00000 	.word	0x7ff00000

000d902c <fabs>:
   d902c:	ec51 0b10 	vmov	r0, r1, d0
   d9030:	ee10 2a10 	vmov	r2, s0
   d9034:	f021 4300 	bic.w	r3, r1, #2147483648	; 0x80000000
   d9038:	ec43 2b10 	vmov	d0, r2, r3
   d903c:	4770      	bx	lr
   d903e:	bf00      	nop

000d9040 <finite>:
   d9040:	b082      	sub	sp, #8
   d9042:	ed8d 0b00 	vstr	d0, [sp]
   d9046:	9801      	ldr	r0, [sp, #4]
   d9048:	f040 4000 	orr.w	r0, r0, #2147483648	; 0x80000000
   d904c:	f500 1080 	add.w	r0, r0, #1048576	; 0x100000
   d9050:	0fc0      	lsrs	r0, r0, #31
   d9052:	b002      	add	sp, #8
   d9054:	4770      	bx	lr
   d9056:	bf00      	nop

000d9058 <matherr>:
   d9058:	2000      	movs	r0, #0
   d905a:	4770      	bx	lr
   d905c:	0000      	movs	r0, r0
	...

000d9060 <nan>:
   d9060:	ed9f 0b01 	vldr	d0, [pc, #4]	; d9068 <nan+0x8>
   d9064:	4770      	bx	lr
   d9066:	bf00      	nop
   d9068:	00000000 	.word	0x00000000
   d906c:	7ff80000 	.word	0x7ff80000

000d9070 <rint>:
   d9070:	b5f0      	push	{r4, r5, r6, r7, lr}
   d9072:	ec53 2b10 	vmov	r2, r3, d0
   d9076:	f3c3 560a 	ubfx	r6, r3, #20, #11
   d907a:	f2a6 30ff 	subw	r0, r6, #1023	; 0x3ff
   d907e:	2813      	cmp	r0, #19
   d9080:	ee10 5a10 	vmov	r5, s0
   d9084:	b083      	sub	sp, #12
   d9086:	4619      	mov	r1, r3
   d9088:	ea4f 74d3 	mov.w	r4, r3, lsr #31
   d908c:	dc31      	bgt.n	d90f2 <rint+0x82>
   d908e:	2800      	cmp	r0, #0
   d9090:	db4c      	blt.n	d912c <rint+0xbc>
   d9092:	4e3e      	ldr	r6, [pc, #248]	; (d918c <rint+0x11c>)
   d9094:	4106      	asrs	r6, r0
   d9096:	ea03 0706 	and.w	r7, r3, r6
   d909a:	4317      	orrs	r7, r2
   d909c:	d02e      	beq.n	d90fc <rint+0x8c>
   d909e:	ea03 0356 	and.w	r3, r3, r6, lsr #1
   d90a2:	431d      	orrs	r5, r3
   d90a4:	ea4f 0656 	mov.w	r6, r6, lsr #1
   d90a8:	d00c      	beq.n	d90c4 <rint+0x54>
   d90aa:	f44f 2380 	mov.w	r3, #262144	; 0x40000
   d90ae:	2813      	cmp	r0, #19
   d90b0:	ea21 0606 	bic.w	r6, r1, r6
   d90b4:	fa43 f100 	asr.w	r1, r3, r0
   d90b8:	ea41 0106 	orr.w	r1, r1, r6
   d90bc:	bf0c      	ite	eq
   d90be:	f04f 4500 	moveq.w	r5, #2147483648	; 0x80000000
   d90c2:	2500      	movne	r5, #0
   d90c4:	4832      	ldr	r0, [pc, #200]	; (d9190 <rint+0x120>)
   d90c6:	eb00 04c4 	add.w	r4, r0, r4, lsl #3
   d90ca:	462a      	mov	r2, r5
   d90cc:	e9d4 4500 	ldrd	r4, r5, [r4]
   d90d0:	460b      	mov	r3, r1
   d90d2:	4620      	mov	r0, r4
   d90d4:	4629      	mov	r1, r5
   d90d6:	f000 f8f7 	bl	d92c8 <__adddf3>
   d90da:	e9cd 0100 	strd	r0, r1, [sp]
   d90de:	e9dd 0100 	ldrd	r0, r1, [sp]
   d90e2:	4622      	mov	r2, r4
   d90e4:	462b      	mov	r3, r5
   d90e6:	f000 f8ed 	bl	d92c4 <__aeabi_dsub>
   d90ea:	ec41 0b10 	vmov	d0, r0, r1
   d90ee:	b003      	add	sp, #12
   d90f0:	bdf0      	pop	{r4, r5, r6, r7, pc}
   d90f2:	2833      	cmp	r0, #51	; 0x33
   d90f4:	dd06      	ble.n	d9104 <rint+0x94>
   d90f6:	f5b0 6f80 	cmp.w	r0, #1024	; 0x400
   d90fa:	d040      	beq.n	d917e <rint+0x10e>
   d90fc:	ec43 2b10 	vmov	d0, r2, r3
   d9100:	b003      	add	sp, #12
   d9102:	bdf0      	pop	{r4, r5, r6, r7, pc}
   d9104:	f2a6 4613 	subw	r6, r6, #1043	; 0x413
   d9108:	f04f 30ff 	mov.w	r0, #4294967295
   d910c:	40f0      	lsrs	r0, r6
   d910e:	4202      	tst	r2, r0
   d9110:	d0f4      	beq.n	d90fc <rint+0x8c>
   d9112:	ea15 0250 	ands.w	r2, r5, r0, lsr #1
   d9116:	ea4f 0350 	mov.w	r3, r0, lsr #1
   d911a:	d0d3      	beq.n	d90c4 <rint+0x54>
   d911c:	f04f 4280 	mov.w	r2, #1073741824	; 0x40000000
   d9120:	ea25 0503 	bic.w	r5, r5, r3
   d9124:	fa42 f606 	asr.w	r6, r2, r6
   d9128:	4335      	orrs	r5, r6
   d912a:	e7cb      	b.n	d90c4 <rint+0x54>
   d912c:	f023 4000 	bic.w	r0, r3, #2147483648	; 0x80000000
   d9130:	4310      	orrs	r0, r2
   d9132:	d0e3      	beq.n	d90fc <rint+0x8c>
   d9134:	f3c3 0013 	ubfx	r0, r3, #0, #20
   d9138:	4310      	orrs	r0, r2
   d913a:	4245      	negs	r5, r0
   d913c:	4305      	orrs	r5, r0
   d913e:	4814      	ldr	r0, [pc, #80]	; (d9190 <rint+0x120>)
   d9140:	eb00 00c4 	add.w	r0, r0, r4, lsl #3
   d9144:	e9d0 6700 	ldrd	r6, r7, [r0]
   d9148:	0c59      	lsrs	r1, r3, #17
   d914a:	0b2d      	lsrs	r5, r5, #12
   d914c:	0449      	lsls	r1, r1, #17
   d914e:	f405 2500 	and.w	r5, r5, #524288	; 0x80000
   d9152:	ea45 0301 	orr.w	r3, r5, r1
   d9156:	4630      	mov	r0, r6
   d9158:	4639      	mov	r1, r7
   d915a:	f000 f8b5 	bl	d92c8 <__adddf3>
   d915e:	e9cd 0100 	strd	r0, r1, [sp]
   d9162:	463b      	mov	r3, r7
   d9164:	e9dd 0100 	ldrd	r0, r1, [sp]
   d9168:	4632      	mov	r2, r6
   d916a:	f000 f8ab 	bl	d92c4 <__aeabi_dsub>
   d916e:	f021 4300 	bic.w	r3, r1, #2147483648	; 0x80000000
   d9172:	ea43 71c4 	orr.w	r1, r3, r4, lsl #31
   d9176:	ec41 0b10 	vmov	d0, r0, r1
   d917a:	b003      	add	sp, #12
   d917c:	bdf0      	pop	{r4, r5, r6, r7, pc}
   d917e:	ee10 0a10 	vmov	r0, s0
   d9182:	f000 f8a1 	bl	d92c8 <__adddf3>
   d9186:	ec41 0b10 	vmov	d0, r0, r1
   d918a:	e7b9      	b.n	d9100 <rint+0x90>
   d918c:	000fffff 	.word	0x000fffff
   d9190:	000db250 	.word	0x000db250
   d9194:	00000000 	.word	0x00000000

000d9198 <scalbn>:
   d9198:	b538      	push	{r3, r4, r5, lr}
   d919a:	ec53 2b10 	vmov	r2, r3, d0
   d919e:	f3c3 510a 	ubfx	r1, r3, #20, #11
   d91a2:	461c      	mov	r4, r3
   d91a4:	4605      	mov	r5, r0
   d91a6:	bb81      	cbnz	r1, d920a <scalbn+0x72>
   d91a8:	ee10 1a10 	vmov	r1, s0
   d91ac:	f023 4400 	bic.w	r4, r3, #2147483648	; 0x80000000
   d91b0:	4321      	orrs	r1, r4
   d91b2:	d029      	beq.n	d9208 <scalbn+0x70>
   d91b4:	4619      	mov	r1, r3
   d91b6:	2200      	movs	r2, #0
   d91b8:	4b3d      	ldr	r3, [pc, #244]	; (d92b0 <scalbn+0x118>)
   d91ba:	4c3e      	ldr	r4, [pc, #248]	; (d92b4 <scalbn+0x11c>)
   d91bc:	ee10 0a10 	vmov	r0, s0
   d91c0:	f000 fa38 	bl	d9634 <__aeabi_dmul>
   d91c4:	42a5      	cmp	r5, r4
   d91c6:	4602      	mov	r2, r0
   d91c8:	460b      	mov	r3, r1
   d91ca:	db16      	blt.n	d91fa <scalbn+0x62>
   d91cc:	460c      	mov	r4, r1
   d91ce:	f3c1 510a 	ubfx	r1, r1, #20, #11
   d91d2:	3936      	subs	r1, #54	; 0x36
   d91d4:	4429      	add	r1, r5
   d91d6:	f240 70fe 	movw	r0, #2046	; 0x7fe
   d91da:	4281      	cmp	r1, r0
   d91dc:	dc21      	bgt.n	d9222 <scalbn+0x8a>
   d91de:	2900      	cmp	r1, #0
   d91e0:	dc47      	bgt.n	d9272 <scalbn+0xda>
   d91e2:	f111 0f35 	cmn.w	r1, #53	; 0x35
   d91e6:	da34      	bge.n	d9252 <scalbn+0xba>
   d91e8:	f24c 3150 	movw	r1, #50000	; 0xc350
   d91ec:	428d      	cmp	r5, r1
   d91ee:	dc18      	bgt.n	d9222 <scalbn+0x8a>
   d91f0:	2b00      	cmp	r3, #0
   d91f2:	a127      	add	r1, pc, #156	; (adr r1, d9290 <scalbn+0xf8>)
   d91f4:	e9d1 0100 	ldrd	r0, r1, [r1]
   d91f8:	db44      	blt.n	d9284 <scalbn+0xec>
   d91fa:	a325      	add	r3, pc, #148	; (adr r3, d9290 <scalbn+0xf8>)
   d91fc:	e9d3 2300 	ldrd	r2, r3, [r3]
   d9200:	f000 fa18 	bl	d9634 <__aeabi_dmul>
   d9204:	ec41 0b10 	vmov	d0, r0, r1
   d9208:	bd38      	pop	{r3, r4, r5, pc}
   d920a:	f240 70ff 	movw	r0, #2047	; 0x7ff
   d920e:	4281      	cmp	r1, r0
   d9210:	d1e0      	bne.n	d91d4 <scalbn+0x3c>
   d9212:	ee10 0a10 	vmov	r0, s0
   d9216:	4619      	mov	r1, r3
   d9218:	f000 f856 	bl	d92c8 <__adddf3>
   d921c:	ec41 0b10 	vmov	d0, r0, r1
   d9220:	bd38      	pop	{r3, r4, r5, pc}
   d9222:	2b00      	cmp	r3, #0
   d9224:	a11c      	add	r1, pc, #112	; (adr r1, d9298 <scalbn+0x100>)
   d9226:	e9d1 0100 	ldrd	r0, r1, [r1]
   d922a:	db07      	blt.n	d923c <scalbn+0xa4>
   d922c:	a31a      	add	r3, pc, #104	; (adr r3, d9298 <scalbn+0x100>)
   d922e:	e9d3 2300 	ldrd	r2, r3, [r3]
   d9232:	f000 f9ff 	bl	d9634 <__aeabi_dmul>
   d9236:	ec41 0b10 	vmov	d0, r0, r1
   d923a:	bd38      	pop	{r3, r4, r5, pc}
   d923c:	a118      	add	r1, pc, #96	; (adr r1, d92a0 <scalbn+0x108>)
   d923e:	e9d1 0100 	ldrd	r0, r1, [r1]
   d9242:	a315      	add	r3, pc, #84	; (adr r3, d9298 <scalbn+0x100>)
   d9244:	e9d3 2300 	ldrd	r2, r3, [r3]
   d9248:	f000 f9f4 	bl	d9634 <__aeabi_dmul>
   d924c:	ec41 0b10 	vmov	d0, r0, r1
   d9250:	e7f3      	b.n	d923a <scalbn+0xa2>
   d9252:	f024 44ff 	bic.w	r4, r4, #2139095040	; 0x7f800000
   d9256:	f424 04e0 	bic.w	r4, r4, #7340032	; 0x700000
   d925a:	3136      	adds	r1, #54	; 0x36
   d925c:	ea44 5301 	orr.w	r3, r4, r1, lsl #20
   d9260:	4610      	mov	r0, r2
   d9262:	4619      	mov	r1, r3
   d9264:	2200      	movs	r2, #0
   d9266:	4b14      	ldr	r3, [pc, #80]	; (d92b8 <scalbn+0x120>)
   d9268:	f000 f9e4 	bl	d9634 <__aeabi_dmul>
   d926c:	ec41 0b10 	vmov	d0, r0, r1
   d9270:	bd38      	pop	{r3, r4, r5, pc}
   d9272:	f024 44ff 	bic.w	r4, r4, #2139095040	; 0x7f800000
   d9276:	f424 04e0 	bic.w	r4, r4, #7340032	; 0x700000
   d927a:	ea44 5301 	orr.w	r3, r4, r1, lsl #20
   d927e:	ec43 2b10 	vmov	d0, r2, r3
   d9282:	bd38      	pop	{r3, r4, r5, pc}
   d9284:	a108      	add	r1, pc, #32	; (adr r1, d92a8 <scalbn+0x110>)
   d9286:	e9d1 0100 	ldrd	r0, r1, [r1]
   d928a:	e7b6      	b.n	d91fa <scalbn+0x62>
   d928c:	f3af 8000 	nop.w
   d9290:	c2f8f359 	.word	0xc2f8f359
   d9294:	01a56e1f 	.word	0x01a56e1f
   d9298:	8800759c 	.word	0x8800759c
   d929c:	7e37e43c 	.word	0x7e37e43c
   d92a0:	8800759c 	.word	0x8800759c
   d92a4:	fe37e43c 	.word	0xfe37e43c
   d92a8:	c2f8f359 	.word	0xc2f8f359
   d92ac:	81a56e1f 	.word	0x81a56e1f
   d92b0:	43500000 	.word	0x43500000
   d92b4:	ffff3cb0 	.word	0xffff3cb0
   d92b8:	3c900000 	.word	0x3c900000

000d92bc <__aeabi_drsub>:
   d92bc:	f081 4100 	eor.w	r1, r1, #2147483648	; 0x80000000
   d92c0:	e002      	b.n	d92c8 <__adddf3>
   d92c2:	bf00      	nop

000d92c4 <__aeabi_dsub>:
   d92c4:	f083 4300 	eor.w	r3, r3, #2147483648	; 0x80000000

000d92c8 <__adddf3>:
   d92c8:	b530      	push	{r4, r5, lr}
   d92ca:	ea4f 0441 	mov.w	r4, r1, lsl #1
   d92ce:	ea4f 0543 	mov.w	r5, r3, lsl #1
   d92d2:	ea94 0f05 	teq	r4, r5
   d92d6:	bf08      	it	eq
   d92d8:	ea90 0f02 	teqeq	r0, r2
   d92dc:	bf1f      	itttt	ne
   d92de:	ea54 0c00 	orrsne.w	ip, r4, r0
   d92e2:	ea55 0c02 	orrsne.w	ip, r5, r2
   d92e6:	ea7f 5c64 	mvnsne.w	ip, r4, asr #21
   d92ea:	ea7f 5c65 	mvnsne.w	ip, r5, asr #21
   d92ee:	f000 80e2 	beq.w	d94b6 <__adddf3+0x1ee>
   d92f2:	ea4f 5454 	mov.w	r4, r4, lsr #21
   d92f6:	ebd4 5555 	rsbs	r5, r4, r5, lsr #21
   d92fa:	bfb8      	it	lt
   d92fc:	426d      	neglt	r5, r5
   d92fe:	dd0c      	ble.n	d931a <__adddf3+0x52>
   d9300:	442c      	add	r4, r5
   d9302:	ea80 0202 	eor.w	r2, r0, r2
   d9306:	ea81 0303 	eor.w	r3, r1, r3
   d930a:	ea82 0000 	eor.w	r0, r2, r0
   d930e:	ea83 0101 	eor.w	r1, r3, r1
   d9312:	ea80 0202 	eor.w	r2, r0, r2
   d9316:	ea81 0303 	eor.w	r3, r1, r3
   d931a:	2d36      	cmp	r5, #54	; 0x36
   d931c:	bf88      	it	hi
   d931e:	bd30      	pophi	{r4, r5, pc}
   d9320:	f011 4f00 	tst.w	r1, #2147483648	; 0x80000000
   d9324:	ea4f 3101 	mov.w	r1, r1, lsl #12
   d9328:	f44f 1c80 	mov.w	ip, #1048576	; 0x100000
   d932c:	ea4c 3111 	orr.w	r1, ip, r1, lsr #12
   d9330:	d002      	beq.n	d9338 <__adddf3+0x70>
   d9332:	4240      	negs	r0, r0
   d9334:	eb61 0141 	sbc.w	r1, r1, r1, lsl #1
   d9338:	f013 4f00 	tst.w	r3, #2147483648	; 0x80000000
   d933c:	ea4f 3303 	mov.w	r3, r3, lsl #12
   d9340:	ea4c 3313 	orr.w	r3, ip, r3, lsr #12
   d9344:	d002      	beq.n	d934c <__adddf3+0x84>
   d9346:	4252      	negs	r2, r2
   d9348:	eb63 0343 	sbc.w	r3, r3, r3, lsl #1
   d934c:	ea94 0f05 	teq	r4, r5
   d9350:	f000 80a7 	beq.w	d94a2 <__adddf3+0x1da>
   d9354:	f1a4 0401 	sub.w	r4, r4, #1
   d9358:	f1d5 0e20 	rsbs	lr, r5, #32
   d935c:	db0d      	blt.n	d937a <__adddf3+0xb2>
   d935e:	fa02 fc0e 	lsl.w	ip, r2, lr
   d9362:	fa22 f205 	lsr.w	r2, r2, r5
   d9366:	1880      	adds	r0, r0, r2
   d9368:	f141 0100 	adc.w	r1, r1, #0
   d936c:	fa03 f20e 	lsl.w	r2, r3, lr
   d9370:	1880      	adds	r0, r0, r2
   d9372:	fa43 f305 	asr.w	r3, r3, r5
   d9376:	4159      	adcs	r1, r3
   d9378:	e00e      	b.n	d9398 <__adddf3+0xd0>
   d937a:	f1a5 0520 	sub.w	r5, r5, #32
   d937e:	f10e 0e20 	add.w	lr, lr, #32
   d9382:	2a01      	cmp	r2, #1
   d9384:	fa03 fc0e 	lsl.w	ip, r3, lr
   d9388:	bf28      	it	cs
   d938a:	f04c 0c02 	orrcs.w	ip, ip, #2
   d938e:	fa43 f305 	asr.w	r3, r3, r5
   d9392:	18c0      	adds	r0, r0, r3
   d9394:	eb51 71e3 	adcs.w	r1, r1, r3, asr #31
   d9398:	f001 4500 	and.w	r5, r1, #2147483648	; 0x80000000
   d939c:	d507      	bpl.n	d93ae <__adddf3+0xe6>
   d939e:	f04f 0e00 	mov.w	lr, #0
   d93a2:	f1dc 0c00 	rsbs	ip, ip, #0
   d93a6:	eb7e 0000 	sbcs.w	r0, lr, r0
   d93aa:	eb6e 0101 	sbc.w	r1, lr, r1
   d93ae:	f5b1 1f80 	cmp.w	r1, #1048576	; 0x100000
   d93b2:	d31b      	bcc.n	d93ec <__adddf3+0x124>
   d93b4:	f5b1 1f00 	cmp.w	r1, #2097152	; 0x200000
   d93b8:	d30c      	bcc.n	d93d4 <__adddf3+0x10c>
   d93ba:	0849      	lsrs	r1, r1, #1
   d93bc:	ea5f 0030 	movs.w	r0, r0, rrx
   d93c0:	ea4f 0c3c 	mov.w	ip, ip, rrx
   d93c4:	f104 0401 	add.w	r4, r4, #1
   d93c8:	ea4f 5244 	mov.w	r2, r4, lsl #21
   d93cc:	f512 0f80 	cmn.w	r2, #4194304	; 0x400000
   d93d0:	f080 809a 	bcs.w	d9508 <__adddf3+0x240>
   d93d4:	f1bc 4f00 	cmp.w	ip, #2147483648	; 0x80000000
   d93d8:	bf08      	it	eq
   d93da:	ea5f 0c50 	movseq.w	ip, r0, lsr #1
   d93de:	f150 0000 	adcs.w	r0, r0, #0
   d93e2:	eb41 5104 	adc.w	r1, r1, r4, lsl #20
   d93e6:	ea41 0105 	orr.w	r1, r1, r5
   d93ea:	bd30      	pop	{r4, r5, pc}
   d93ec:	ea5f 0c4c 	movs.w	ip, ip, lsl #1
   d93f0:	4140      	adcs	r0, r0
   d93f2:	eb41 0101 	adc.w	r1, r1, r1
   d93f6:	3c01      	subs	r4, #1
   d93f8:	bf28      	it	cs
   d93fa:	f5b1 1f80 	cmpcs.w	r1, #1048576	; 0x100000
   d93fe:	d2e9      	bcs.n	d93d4 <__adddf3+0x10c>
   d9400:	f091 0f00 	teq	r1, #0
   d9404:	bf04      	itt	eq
   d9406:	4601      	moveq	r1, r0
   d9408:	2000      	moveq	r0, #0
   d940a:	fab1 f381 	clz	r3, r1
   d940e:	bf08      	it	eq
   d9410:	3320      	addeq	r3, #32
   d9412:	f1a3 030b 	sub.w	r3, r3, #11
   d9416:	f1b3 0220 	subs.w	r2, r3, #32
   d941a:	da0c      	bge.n	d9436 <__adddf3+0x16e>
   d941c:	320c      	adds	r2, #12
   d941e:	dd08      	ble.n	d9432 <__adddf3+0x16a>
   d9420:	f102 0c14 	add.w	ip, r2, #20
   d9424:	f1c2 020c 	rsb	r2, r2, #12
   d9428:	fa01 f00c 	lsl.w	r0, r1, ip
   d942c:	fa21 f102 	lsr.w	r1, r1, r2
   d9430:	e00c      	b.n	d944c <__adddf3+0x184>
   d9432:	f102 0214 	add.w	r2, r2, #20
   d9436:	bfd8      	it	le
   d9438:	f1c2 0c20 	rsble	ip, r2, #32
   d943c:	fa01 f102 	lsl.w	r1, r1, r2
   d9440:	fa20 fc0c 	lsr.w	ip, r0, ip
   d9444:	bfdc      	itt	le
   d9446:	ea41 010c 	orrle.w	r1, r1, ip
   d944a:	4090      	lslle	r0, r2
   d944c:	1ae4      	subs	r4, r4, r3
   d944e:	bfa2      	ittt	ge
   d9450:	eb01 5104 	addge.w	r1, r1, r4, lsl #20
   d9454:	4329      	orrge	r1, r5
   d9456:	bd30      	popge	{r4, r5, pc}
   d9458:	ea6f 0404 	mvn.w	r4, r4
   d945c:	3c1f      	subs	r4, #31
   d945e:	da1c      	bge.n	d949a <__adddf3+0x1d2>
   d9460:	340c      	adds	r4, #12
   d9462:	dc0e      	bgt.n	d9482 <__adddf3+0x1ba>
   d9464:	f104 0414 	add.w	r4, r4, #20
   d9468:	f1c4 0220 	rsb	r2, r4, #32
   d946c:	fa20 f004 	lsr.w	r0, r0, r4
   d9470:	fa01 f302 	lsl.w	r3, r1, r2
   d9474:	ea40 0003 	orr.w	r0, r0, r3
   d9478:	fa21 f304 	lsr.w	r3, r1, r4
   d947c:	ea45 0103 	orr.w	r1, r5, r3
   d9480:	bd30      	pop	{r4, r5, pc}
   d9482:	f1c4 040c 	rsb	r4, r4, #12
   d9486:	f1c4 0220 	rsb	r2, r4, #32
   d948a:	fa20 f002 	lsr.w	r0, r0, r2
   d948e:	fa01 f304 	lsl.w	r3, r1, r4
   d9492:	ea40 0003 	orr.w	r0, r0, r3
   d9496:	4629      	mov	r1, r5
   d9498:	bd30      	pop	{r4, r5, pc}
   d949a:	fa21 f004 	lsr.w	r0, r1, r4
   d949e:	4629      	mov	r1, r5
   d94a0:	bd30      	pop	{r4, r5, pc}
   d94a2:	f094 0f00 	teq	r4, #0
   d94a6:	f483 1380 	eor.w	r3, r3, #1048576	; 0x100000
   d94aa:	bf06      	itte	eq
   d94ac:	f481 1180 	eoreq.w	r1, r1, #1048576	; 0x100000
   d94b0:	3401      	addeq	r4, #1
   d94b2:	3d01      	subne	r5, #1
   d94b4:	e74e      	b.n	d9354 <__adddf3+0x8c>
   d94b6:	ea7f 5c64 	mvns.w	ip, r4, asr #21
   d94ba:	bf18      	it	ne
   d94bc:	ea7f 5c65 	mvnsne.w	ip, r5, asr #21
   d94c0:	d029      	beq.n	d9516 <__adddf3+0x24e>
   d94c2:	ea94 0f05 	teq	r4, r5
   d94c6:	bf08      	it	eq
   d94c8:	ea90 0f02 	teqeq	r0, r2
   d94cc:	d005      	beq.n	d94da <__adddf3+0x212>
   d94ce:	ea54 0c00 	orrs.w	ip, r4, r0
   d94d2:	bf04      	itt	eq
   d94d4:	4619      	moveq	r1, r3
   d94d6:	4610      	moveq	r0, r2
   d94d8:	bd30      	pop	{r4, r5, pc}
   d94da:	ea91 0f03 	teq	r1, r3
   d94de:	bf1e      	ittt	ne
   d94e0:	2100      	movne	r1, #0
   d94e2:	2000      	movne	r0, #0
   d94e4:	bd30      	popne	{r4, r5, pc}
   d94e6:	ea5f 5c54 	movs.w	ip, r4, lsr #21
   d94ea:	d105      	bne.n	d94f8 <__adddf3+0x230>
   d94ec:	0040      	lsls	r0, r0, #1
   d94ee:	4149      	adcs	r1, r1
   d94f0:	bf28      	it	cs
   d94f2:	f041 4100 	orrcs.w	r1, r1, #2147483648	; 0x80000000
   d94f6:	bd30      	pop	{r4, r5, pc}
   d94f8:	f514 0480 	adds.w	r4, r4, #4194304	; 0x400000
   d94fc:	bf3c      	itt	cc
   d94fe:	f501 1180 	addcc.w	r1, r1, #1048576	; 0x100000
   d9502:	bd30      	popcc	{r4, r5, pc}
   d9504:	f001 4500 	and.w	r5, r1, #2147483648	; 0x80000000
   d9508:	f045 41fe 	orr.w	r1, r5, #2130706432	; 0x7f000000
   d950c:	f441 0170 	orr.w	r1, r1, #15728640	; 0xf00000
   d9510:	f04f 0000 	mov.w	r0, #0
   d9514:	bd30      	pop	{r4, r5, pc}
   d9516:	ea7f 5c64 	mvns.w	ip, r4, asr #21
   d951a:	bf1a      	itte	ne
   d951c:	4619      	movne	r1, r3
   d951e:	4610      	movne	r0, r2
   d9520:	ea7f 5c65 	mvnseq.w	ip, r5, asr #21
   d9524:	bf1c      	itt	ne
   d9526:	460b      	movne	r3, r1
   d9528:	4602      	movne	r2, r0
   d952a:	ea50 3401 	orrs.w	r4, r0, r1, lsl #12
   d952e:	bf06      	itte	eq
   d9530:	ea52 3503 	orrseq.w	r5, r2, r3, lsl #12
   d9534:	ea91 0f03 	teqeq	r1, r3
   d9538:	f441 2100 	orrne.w	r1, r1, #524288	; 0x80000
   d953c:	bd30      	pop	{r4, r5, pc}
   d953e:	bf00      	nop

000d9540 <__aeabi_ui2d>:
   d9540:	f090 0f00 	teq	r0, #0
   d9544:	bf04      	itt	eq
   d9546:	2100      	moveq	r1, #0
   d9548:	4770      	bxeq	lr
   d954a:	b530      	push	{r4, r5, lr}
   d954c:	f44f 6480 	mov.w	r4, #1024	; 0x400
   d9550:	f104 0432 	add.w	r4, r4, #50	; 0x32
   d9554:	f04f 0500 	mov.w	r5, #0
   d9558:	f04f 0100 	mov.w	r1, #0
   d955c:	e750      	b.n	d9400 <__adddf3+0x138>
   d955e:	bf00      	nop

000d9560 <__aeabi_i2d>:
   d9560:	f090 0f00 	teq	r0, #0
   d9564:	bf04      	itt	eq
   d9566:	2100      	moveq	r1, #0
   d9568:	4770      	bxeq	lr
   d956a:	b530      	push	{r4, r5, lr}
   d956c:	f44f 6480 	mov.w	r4, #1024	; 0x400
   d9570:	f104 0432 	add.w	r4, r4, #50	; 0x32
   d9574:	f010 4500 	ands.w	r5, r0, #2147483648	; 0x80000000
   d9578:	bf48      	it	mi
   d957a:	4240      	negmi	r0, r0
   d957c:	f04f 0100 	mov.w	r1, #0
   d9580:	e73e      	b.n	d9400 <__adddf3+0x138>
   d9582:	bf00      	nop

000d9584 <__aeabi_f2d>:
   d9584:	0042      	lsls	r2, r0, #1
   d9586:	ea4f 01e2 	mov.w	r1, r2, asr #3
   d958a:	ea4f 0131 	mov.w	r1, r1, rrx
   d958e:	ea4f 7002 	mov.w	r0, r2, lsl #28
   d9592:	bf1f      	itttt	ne
   d9594:	f012 437f 	andsne.w	r3, r2, #4278190080	; 0xff000000
   d9598:	f093 4f7f 	teqne	r3, #4278190080	; 0xff000000
   d959c:	f081 5160 	eorne.w	r1, r1, #939524096	; 0x38000000
   d95a0:	4770      	bxne	lr
   d95a2:	f032 427f 	bics.w	r2, r2, #4278190080	; 0xff000000
   d95a6:	bf08      	it	eq
   d95a8:	4770      	bxeq	lr
   d95aa:	f093 4f7f 	teq	r3, #4278190080	; 0xff000000
   d95ae:	bf04      	itt	eq
   d95b0:	f441 2100 	orreq.w	r1, r1, #524288	; 0x80000
   d95b4:	4770      	bxeq	lr
   d95b6:	b530      	push	{r4, r5, lr}
   d95b8:	f44f 7460 	mov.w	r4, #896	; 0x380
   d95bc:	f001 4500 	and.w	r5, r1, #2147483648	; 0x80000000
   d95c0:	f021 4100 	bic.w	r1, r1, #2147483648	; 0x80000000
   d95c4:	e71c      	b.n	d9400 <__adddf3+0x138>
   d95c6:	bf00      	nop

000d95c8 <__aeabi_ul2d>:
   d95c8:	ea50 0201 	orrs.w	r2, r0, r1
   d95cc:	bf08      	it	eq
   d95ce:	4770      	bxeq	lr
   d95d0:	b530      	push	{r4, r5, lr}
   d95d2:	f04f 0500 	mov.w	r5, #0
   d95d6:	e00a      	b.n	d95ee <__aeabi_l2d+0x16>

000d95d8 <__aeabi_l2d>:
   d95d8:	ea50 0201 	orrs.w	r2, r0, r1
   d95dc:	bf08      	it	eq
   d95de:	4770      	bxeq	lr
   d95e0:	b530      	push	{r4, r5, lr}
   d95e2:	f011 4500 	ands.w	r5, r1, #2147483648	; 0x80000000
   d95e6:	d502      	bpl.n	d95ee <__aeabi_l2d+0x16>
   d95e8:	4240      	negs	r0, r0
   d95ea:	eb61 0141 	sbc.w	r1, r1, r1, lsl #1
   d95ee:	f44f 6480 	mov.w	r4, #1024	; 0x400
   d95f2:	f104 0432 	add.w	r4, r4, #50	; 0x32
   d95f6:	ea5f 5c91 	movs.w	ip, r1, lsr #22
   d95fa:	f43f aed8 	beq.w	d93ae <__adddf3+0xe6>
   d95fe:	f04f 0203 	mov.w	r2, #3
   d9602:	ea5f 0cdc 	movs.w	ip, ip, lsr #3
   d9606:	bf18      	it	ne
   d9608:	3203      	addne	r2, #3
   d960a:	ea5f 0cdc 	movs.w	ip, ip, lsr #3
   d960e:	bf18      	it	ne
   d9610:	3203      	addne	r2, #3
   d9612:	eb02 02dc 	add.w	r2, r2, ip, lsr #3
   d9616:	f1c2 0320 	rsb	r3, r2, #32
   d961a:	fa00 fc03 	lsl.w	ip, r0, r3
   d961e:	fa20 f002 	lsr.w	r0, r0, r2
   d9622:	fa01 fe03 	lsl.w	lr, r1, r3
   d9626:	ea40 000e 	orr.w	r0, r0, lr
   d962a:	fa21 f102 	lsr.w	r1, r1, r2
   d962e:	4414      	add	r4, r2
   d9630:	e6bd      	b.n	d93ae <__adddf3+0xe6>
   d9632:	bf00      	nop

000d9634 <__aeabi_dmul>:
   d9634:	b570      	push	{r4, r5, r6, lr}
   d9636:	f04f 0cff 	mov.w	ip, #255	; 0xff
   d963a:	f44c 6ce0 	orr.w	ip, ip, #1792	; 0x700
   d963e:	ea1c 5411 	ands.w	r4, ip, r1, lsr #20
   d9642:	bf1d      	ittte	ne
   d9644:	ea1c 5513 	andsne.w	r5, ip, r3, lsr #20
   d9648:	ea94 0f0c 	teqne	r4, ip
   d964c:	ea95 0f0c 	teqne	r5, ip
   d9650:	f000 f8de 	bleq	d9810 <__aeabi_dmul+0x1dc>
   d9654:	442c      	add	r4, r5
   d9656:	ea81 0603 	eor.w	r6, r1, r3
   d965a:	ea21 514c 	bic.w	r1, r1, ip, lsl #21
   d965e:	ea23 534c 	bic.w	r3, r3, ip, lsl #21
   d9662:	ea50 3501 	orrs.w	r5, r0, r1, lsl #12
   d9666:	bf18      	it	ne
   d9668:	ea52 3503 	orrsne.w	r5, r2, r3, lsl #12
   d966c:	f441 1180 	orr.w	r1, r1, #1048576	; 0x100000
   d9670:	f443 1380 	orr.w	r3, r3, #1048576	; 0x100000
   d9674:	d038      	beq.n	d96e8 <__aeabi_dmul+0xb4>
   d9676:	fba0 ce02 	umull	ip, lr, r0, r2
   d967a:	f04f 0500 	mov.w	r5, #0
   d967e:	fbe1 e502 	umlal	lr, r5, r1, r2
   d9682:	f006 4200 	and.w	r2, r6, #2147483648	; 0x80000000
   d9686:	fbe0 e503 	umlal	lr, r5, r0, r3
   d968a:	f04f 0600 	mov.w	r6, #0
   d968e:	fbe1 5603 	umlal	r5, r6, r1, r3
   d9692:	f09c 0f00 	teq	ip, #0
   d9696:	bf18      	it	ne
   d9698:	f04e 0e01 	orrne.w	lr, lr, #1
   d969c:	f1a4 04ff 	sub.w	r4, r4, #255	; 0xff
   d96a0:	f5b6 7f00 	cmp.w	r6, #512	; 0x200
   d96a4:	f564 7440 	sbc.w	r4, r4, #768	; 0x300
   d96a8:	d204      	bcs.n	d96b4 <__aeabi_dmul+0x80>
   d96aa:	ea5f 0e4e 	movs.w	lr, lr, lsl #1
   d96ae:	416d      	adcs	r5, r5
   d96b0:	eb46 0606 	adc.w	r6, r6, r6
   d96b4:	ea42 21c6 	orr.w	r1, r2, r6, lsl #11
   d96b8:	ea41 5155 	orr.w	r1, r1, r5, lsr #21
   d96bc:	ea4f 20c5 	mov.w	r0, r5, lsl #11
   d96c0:	ea40 505e 	orr.w	r0, r0, lr, lsr #21
   d96c4:	ea4f 2ece 	mov.w	lr, lr, lsl #11
   d96c8:	f1b4 0cfd 	subs.w	ip, r4, #253	; 0xfd
   d96cc:	bf88      	it	hi
   d96ce:	f5bc 6fe0 	cmphi.w	ip, #1792	; 0x700
   d96d2:	d81e      	bhi.n	d9712 <__aeabi_dmul+0xde>
   d96d4:	f1be 4f00 	cmp.w	lr, #2147483648	; 0x80000000
   d96d8:	bf08      	it	eq
   d96da:	ea5f 0e50 	movseq.w	lr, r0, lsr #1
   d96de:	f150 0000 	adcs.w	r0, r0, #0
   d96e2:	eb41 5104 	adc.w	r1, r1, r4, lsl #20
   d96e6:	bd70      	pop	{r4, r5, r6, pc}
   d96e8:	f006 4600 	and.w	r6, r6, #2147483648	; 0x80000000
   d96ec:	ea46 0101 	orr.w	r1, r6, r1
   d96f0:	ea40 0002 	orr.w	r0, r0, r2
   d96f4:	ea81 0103 	eor.w	r1, r1, r3
   d96f8:	ebb4 045c 	subs.w	r4, r4, ip, lsr #1
   d96fc:	bfc2      	ittt	gt
   d96fe:	ebd4 050c 	rsbsgt	r5, r4, ip
   d9702:	ea41 5104 	orrgt.w	r1, r1, r4, lsl #20
   d9706:	bd70      	popgt	{r4, r5, r6, pc}
   d9708:	f441 1180 	orr.w	r1, r1, #1048576	; 0x100000
   d970c:	f04f 0e00 	mov.w	lr, #0
   d9710:	3c01      	subs	r4, #1
   d9712:	f300 80ab 	bgt.w	d986c <__aeabi_dmul+0x238>
   d9716:	f114 0f36 	cmn.w	r4, #54	; 0x36
   d971a:	bfde      	ittt	le
   d971c:	2000      	movle	r0, #0
   d971e:	f001 4100 	andle.w	r1, r1, #2147483648	; 0x80000000
   d9722:	bd70      	pople	{r4, r5, r6, pc}
   d9724:	f1c4 0400 	rsb	r4, r4, #0
   d9728:	3c20      	subs	r4, #32
   d972a:	da35      	bge.n	d9798 <__aeabi_dmul+0x164>
   d972c:	340c      	adds	r4, #12
   d972e:	dc1b      	bgt.n	d9768 <__aeabi_dmul+0x134>
   d9730:	f104 0414 	add.w	r4, r4, #20
   d9734:	f1c4 0520 	rsb	r5, r4, #32
   d9738:	fa00 f305 	lsl.w	r3, r0, r5
   d973c:	fa20 f004 	lsr.w	r0, r0, r4
   d9740:	fa01 f205 	lsl.w	r2, r1, r5
   d9744:	ea40 0002 	orr.w	r0, r0, r2
   d9748:	f001 4200 	and.w	r2, r1, #2147483648	; 0x80000000
   d974c:	f021 4100 	bic.w	r1, r1, #2147483648	; 0x80000000
   d9750:	eb10 70d3 	adds.w	r0, r0, r3, lsr #31
   d9754:	fa21 f604 	lsr.w	r6, r1, r4
   d9758:	eb42 0106 	adc.w	r1, r2, r6
   d975c:	ea5e 0e43 	orrs.w	lr, lr, r3, lsl #1
   d9760:	bf08      	it	eq
   d9762:	ea20 70d3 	biceq.w	r0, r0, r3, lsr #31
   d9766:	bd70      	pop	{r4, r5, r6, pc}
   d9768:	f1c4 040c 	rsb	r4, r4, #12
   d976c:	f1c4 0520 	rsb	r5, r4, #32
   d9770:	fa00 f304 	lsl.w	r3, r0, r4
   d9774:	fa20 f005 	lsr.w	r0, r0, r5
   d9778:	fa01 f204 	lsl.w	r2, r1, r4
   d977c:	ea40 0002 	orr.w	r0, r0, r2
   d9780:	f001 4100 	and.w	r1, r1, #2147483648	; 0x80000000
   d9784:	eb10 70d3 	adds.w	r0, r0, r3, lsr #31
   d9788:	f141 0100 	adc.w	r1, r1, #0
   d978c:	ea5e 0e43 	orrs.w	lr, lr, r3, lsl #1
   d9790:	bf08      	it	eq
   d9792:	ea20 70d3 	biceq.w	r0, r0, r3, lsr #31
   d9796:	bd70      	pop	{r4, r5, r6, pc}
   d9798:	f1c4 0520 	rsb	r5, r4, #32
   d979c:	fa00 f205 	lsl.w	r2, r0, r5
   d97a0:	ea4e 0e02 	orr.w	lr, lr, r2
   d97a4:	fa20 f304 	lsr.w	r3, r0, r4
   d97a8:	fa01 f205 	lsl.w	r2, r1, r5
   d97ac:	ea43 0302 	orr.w	r3, r3, r2
   d97b0:	fa21 f004 	lsr.w	r0, r1, r4
   d97b4:	f001 4100 	and.w	r1, r1, #2147483648	; 0x80000000
   d97b8:	fa21 f204 	lsr.w	r2, r1, r4
   d97bc:	ea20 0002 	bic.w	r0, r0, r2
   d97c0:	eb00 70d3 	add.w	r0, r0, r3, lsr #31
   d97c4:	ea5e 0e43 	orrs.w	lr, lr, r3, lsl #1
   d97c8:	bf08      	it	eq
   d97ca:	ea20 70d3 	biceq.w	r0, r0, r3, lsr #31
   d97ce:	bd70      	pop	{r4, r5, r6, pc}
   d97d0:	f094 0f00 	teq	r4, #0
   d97d4:	d10f      	bne.n	d97f6 <__aeabi_dmul+0x1c2>
   d97d6:	f001 4600 	and.w	r6, r1, #2147483648	; 0x80000000
   d97da:	0040      	lsls	r0, r0, #1
   d97dc:	eb41 0101 	adc.w	r1, r1, r1
   d97e0:	f411 1f80 	tst.w	r1, #1048576	; 0x100000
   d97e4:	bf08      	it	eq
   d97e6:	3c01      	subeq	r4, #1
   d97e8:	d0f7      	beq.n	d97da <__aeabi_dmul+0x1a6>
   d97ea:	ea41 0106 	orr.w	r1, r1, r6
   d97ee:	f095 0f00 	teq	r5, #0
   d97f2:	bf18      	it	ne
   d97f4:	4770      	bxne	lr
   d97f6:	f003 4600 	and.w	r6, r3, #2147483648	; 0x80000000
   d97fa:	0052      	lsls	r2, r2, #1
   d97fc:	eb43 0303 	adc.w	r3, r3, r3
   d9800:	f413 1f80 	tst.w	r3, #1048576	; 0x100000
   d9804:	bf08      	it	eq
   d9806:	3d01      	subeq	r5, #1
   d9808:	d0f7      	beq.n	d97fa <__aeabi_dmul+0x1c6>
   d980a:	ea43 0306 	orr.w	r3, r3, r6
   d980e:	4770      	bx	lr
   d9810:	ea94 0f0c 	teq	r4, ip
   d9814:	ea0c 5513 	and.w	r5, ip, r3, lsr #20
   d9818:	bf18      	it	ne
   d981a:	ea95 0f0c 	teqne	r5, ip
   d981e:	d00c      	beq.n	d983a <__aeabi_dmul+0x206>
   d9820:	ea50 0641 	orrs.w	r6, r0, r1, lsl #1
   d9824:	bf18      	it	ne
   d9826:	ea52 0643 	orrsne.w	r6, r2, r3, lsl #1
   d982a:	d1d1      	bne.n	d97d0 <__aeabi_dmul+0x19c>
   d982c:	ea81 0103 	eor.w	r1, r1, r3
   d9830:	f001 4100 	and.w	r1, r1, #2147483648	; 0x80000000
   d9834:	f04f 0000 	mov.w	r0, #0
   d9838:	bd70      	pop	{r4, r5, r6, pc}
   d983a:	ea50 0641 	orrs.w	r6, r0, r1, lsl #1
   d983e:	bf06      	itte	eq
   d9840:	4610      	moveq	r0, r2
   d9842:	4619      	moveq	r1, r3
   d9844:	ea52 0643 	orrsne.w	r6, r2, r3, lsl #1
   d9848:	d019      	beq.n	d987e <__aeabi_dmul+0x24a>
   d984a:	ea94 0f0c 	teq	r4, ip
   d984e:	d102      	bne.n	d9856 <__aeabi_dmul+0x222>
   d9850:	ea50 3601 	orrs.w	r6, r0, r1, lsl #12
   d9854:	d113      	bne.n	d987e <__aeabi_dmul+0x24a>
   d9856:	ea95 0f0c 	teq	r5, ip
   d985a:	d105      	bne.n	d9868 <__aeabi_dmul+0x234>
   d985c:	ea52 3603 	orrs.w	r6, r2, r3, lsl #12
   d9860:	bf1c      	itt	ne
   d9862:	4610      	movne	r0, r2
   d9864:	4619      	movne	r1, r3
   d9866:	d10a      	bne.n	d987e <__aeabi_dmul+0x24a>
   d9868:	ea81 0103 	eor.w	r1, r1, r3
   d986c:	f001 4100 	and.w	r1, r1, #2147483648	; 0x80000000
   d9870:	f041 41fe 	orr.w	r1, r1, #2130706432	; 0x7f000000
   d9874:	f441 0170 	orr.w	r1, r1, #15728640	; 0xf00000
   d9878:	f04f 0000 	mov.w	r0, #0
   d987c:	bd70      	pop	{r4, r5, r6, pc}
   d987e:	f041 41fe 	orr.w	r1, r1, #2130706432	; 0x7f000000
   d9882:	f441 0178 	orr.w	r1, r1, #16252928	; 0xf80000
   d9886:	bd70      	pop	{r4, r5, r6, pc}

000d9888 <__aeabi_ddiv>:
   d9888:	b570      	push	{r4, r5, r6, lr}
   d988a:	f04f 0cff 	mov.w	ip, #255	; 0xff
   d988e:	f44c 6ce0 	orr.w	ip, ip, #1792	; 0x700
   d9892:	ea1c 5411 	ands.w	r4, ip, r1, lsr #20
   d9896:	bf1d      	ittte	ne
   d9898:	ea1c 5513 	andsne.w	r5, ip, r3, lsr #20
   d989c:	ea94 0f0c 	teqne	r4, ip
   d98a0:	ea95 0f0c 	teqne	r5, ip
   d98a4:	f000 f8a7 	bleq	d99f6 <__aeabi_ddiv+0x16e>
   d98a8:	eba4 0405 	sub.w	r4, r4, r5
   d98ac:	ea81 0e03 	eor.w	lr, r1, r3
   d98b0:	ea52 3503 	orrs.w	r5, r2, r3, lsl #12
   d98b4:	ea4f 3101 	mov.w	r1, r1, lsl #12
   d98b8:	f000 8088 	beq.w	d99cc <__aeabi_ddiv+0x144>
   d98bc:	ea4f 3303 	mov.w	r3, r3, lsl #12
   d98c0:	f04f 5580 	mov.w	r5, #268435456	; 0x10000000
   d98c4:	ea45 1313 	orr.w	r3, r5, r3, lsr #4
   d98c8:	ea43 6312 	orr.w	r3, r3, r2, lsr #24
   d98cc:	ea4f 2202 	mov.w	r2, r2, lsl #8
   d98d0:	ea45 1511 	orr.w	r5, r5, r1, lsr #4
   d98d4:	ea45 6510 	orr.w	r5, r5, r0, lsr #24
   d98d8:	ea4f 2600 	mov.w	r6, r0, lsl #8
   d98dc:	f00e 4100 	and.w	r1, lr, #2147483648	; 0x80000000
   d98e0:	429d      	cmp	r5, r3
   d98e2:	bf08      	it	eq
   d98e4:	4296      	cmpeq	r6, r2
   d98e6:	f144 04fd 	adc.w	r4, r4, #253	; 0xfd
   d98ea:	f504 7440 	add.w	r4, r4, #768	; 0x300
   d98ee:	d202      	bcs.n	d98f6 <__aeabi_ddiv+0x6e>
   d98f0:	085b      	lsrs	r3, r3, #1
   d98f2:	ea4f 0232 	mov.w	r2, r2, rrx
   d98f6:	1ab6      	subs	r6, r6, r2
   d98f8:	eb65 0503 	sbc.w	r5, r5, r3
   d98fc:	085b      	lsrs	r3, r3, #1
   d98fe:	ea4f 0232 	mov.w	r2, r2, rrx
   d9902:	f44f 1080 	mov.w	r0, #1048576	; 0x100000
   d9906:	f44f 2c00 	mov.w	ip, #524288	; 0x80000
   d990a:	ebb6 0e02 	subs.w	lr, r6, r2
   d990e:	eb75 0e03 	sbcs.w	lr, r5, r3
   d9912:	bf22      	ittt	cs
   d9914:	1ab6      	subcs	r6, r6, r2
   d9916:	4675      	movcs	r5, lr
   d9918:	ea40 000c 	orrcs.w	r0, r0, ip
   d991c:	085b      	lsrs	r3, r3, #1
   d991e:	ea4f 0232 	mov.w	r2, r2, rrx
   d9922:	ebb6 0e02 	subs.w	lr, r6, r2
   d9926:	eb75 0e03 	sbcs.w	lr, r5, r3
   d992a:	bf22      	ittt	cs
   d992c:	1ab6      	subcs	r6, r6, r2
   d992e:	4675      	movcs	r5, lr
   d9930:	ea40 005c 	orrcs.w	r0, r0, ip, lsr #1
   d9934:	085b      	lsrs	r3, r3, #1
   d9936:	ea4f 0232 	mov.w	r2, r2, rrx
   d993a:	ebb6 0e02 	subs.w	lr, r6, r2
   d993e:	eb75 0e03 	sbcs.w	lr, r5, r3
   d9942:	bf22      	ittt	cs
   d9944:	1ab6      	subcs	r6, r6, r2
   d9946:	4675      	movcs	r5, lr
   d9948:	ea40 009c 	orrcs.w	r0, r0, ip, lsr #2
   d994c:	085b      	lsrs	r3, r3, #1
   d994e:	ea4f 0232 	mov.w	r2, r2, rrx
   d9952:	ebb6 0e02 	subs.w	lr, r6, r2
   d9956:	eb75 0e03 	sbcs.w	lr, r5, r3
   d995a:	bf22      	ittt	cs
   d995c:	1ab6      	subcs	r6, r6, r2
   d995e:	4675      	movcs	r5, lr
   d9960:	ea40 00dc 	orrcs.w	r0, r0, ip, lsr #3
   d9964:	ea55 0e06 	orrs.w	lr, r5, r6
   d9968:	d018      	beq.n	d999c <__aeabi_ddiv+0x114>
   d996a:	ea4f 1505 	mov.w	r5, r5, lsl #4
   d996e:	ea45 7516 	orr.w	r5, r5, r6, lsr #28
   d9972:	ea4f 1606 	mov.w	r6, r6, lsl #4
   d9976:	ea4f 03c3 	mov.w	r3, r3, lsl #3
   d997a:	ea43 7352 	orr.w	r3, r3, r2, lsr #29
   d997e:	ea4f 02c2 	mov.w	r2, r2, lsl #3
   d9982:	ea5f 1c1c 	movs.w	ip, ip, lsr #4
   d9986:	d1c0      	bne.n	d990a <__aeabi_ddiv+0x82>
   d9988:	f411 1f80 	tst.w	r1, #1048576	; 0x100000
   d998c:	d10b      	bne.n	d99a6 <__aeabi_ddiv+0x11e>
   d998e:	ea41 0100 	orr.w	r1, r1, r0
   d9992:	f04f 0000 	mov.w	r0, #0
   d9996:	f04f 4c00 	mov.w	ip, #2147483648	; 0x80000000
   d999a:	e7b6      	b.n	d990a <__aeabi_ddiv+0x82>
   d999c:	f411 1f80 	tst.w	r1, #1048576	; 0x100000
   d99a0:	bf04      	itt	eq
   d99a2:	4301      	orreq	r1, r0
   d99a4:	2000      	moveq	r0, #0
   d99a6:	f1b4 0cfd 	subs.w	ip, r4, #253	; 0xfd
   d99aa:	bf88      	it	hi
   d99ac:	f5bc 6fe0 	cmphi.w	ip, #1792	; 0x700
   d99b0:	f63f aeaf 	bhi.w	d9712 <__aeabi_dmul+0xde>
   d99b4:	ebb5 0c03 	subs.w	ip, r5, r3
   d99b8:	bf04      	itt	eq
   d99ba:	ebb6 0c02 	subseq.w	ip, r6, r2
   d99be:	ea5f 0c50 	movseq.w	ip, r0, lsr #1
   d99c2:	f150 0000 	adcs.w	r0, r0, #0
   d99c6:	eb41 5104 	adc.w	r1, r1, r4, lsl #20
   d99ca:	bd70      	pop	{r4, r5, r6, pc}
   d99cc:	f00e 4e00 	and.w	lr, lr, #2147483648	; 0x80000000
   d99d0:	ea4e 3111 	orr.w	r1, lr, r1, lsr #12
   d99d4:	eb14 045c 	adds.w	r4, r4, ip, lsr #1
   d99d8:	bfc2      	ittt	gt
   d99da:	ebd4 050c 	rsbsgt	r5, r4, ip
   d99de:	ea41 5104 	orrgt.w	r1, r1, r4, lsl #20
   d99e2:	bd70      	popgt	{r4, r5, r6, pc}
   d99e4:	f441 1180 	orr.w	r1, r1, #1048576	; 0x100000
   d99e8:	f04f 0e00 	mov.w	lr, #0
   d99ec:	3c01      	subs	r4, #1
   d99ee:	e690      	b.n	d9712 <__aeabi_dmul+0xde>
   d99f0:	ea45 0e06 	orr.w	lr, r5, r6
   d99f4:	e68d      	b.n	d9712 <__aeabi_dmul+0xde>
   d99f6:	ea0c 5513 	and.w	r5, ip, r3, lsr #20
   d99fa:	ea94 0f0c 	teq	r4, ip
   d99fe:	bf08      	it	eq
   d9a00:	ea95 0f0c 	teqeq	r5, ip
   d9a04:	f43f af3b 	beq.w	d987e <__aeabi_dmul+0x24a>
   d9a08:	ea94 0f0c 	teq	r4, ip
   d9a0c:	d10a      	bne.n	d9a24 <__aeabi_ddiv+0x19c>
   d9a0e:	ea50 3401 	orrs.w	r4, r0, r1, lsl #12
   d9a12:	f47f af34 	bne.w	d987e <__aeabi_dmul+0x24a>
   d9a16:	ea95 0f0c 	teq	r5, ip
   d9a1a:	f47f af25 	bne.w	d9868 <__aeabi_dmul+0x234>
   d9a1e:	4610      	mov	r0, r2
   d9a20:	4619      	mov	r1, r3
   d9a22:	e72c      	b.n	d987e <__aeabi_dmul+0x24a>
   d9a24:	ea95 0f0c 	teq	r5, ip
   d9a28:	d106      	bne.n	d9a38 <__aeabi_ddiv+0x1b0>
   d9a2a:	ea52 3503 	orrs.w	r5, r2, r3, lsl #12
   d9a2e:	f43f aefd 	beq.w	d982c <__aeabi_dmul+0x1f8>
   d9a32:	4610      	mov	r0, r2
   d9a34:	4619      	mov	r1, r3
   d9a36:	e722      	b.n	d987e <__aeabi_dmul+0x24a>
   d9a38:	ea50 0641 	orrs.w	r6, r0, r1, lsl #1
   d9a3c:	bf18      	it	ne
   d9a3e:	ea52 0643 	orrsne.w	r6, r2, r3, lsl #1
   d9a42:	f47f aec5 	bne.w	d97d0 <__aeabi_dmul+0x19c>
   d9a46:	ea50 0441 	orrs.w	r4, r0, r1, lsl #1
   d9a4a:	f47f af0d 	bne.w	d9868 <__aeabi_dmul+0x234>
   d9a4e:	ea52 0543 	orrs.w	r5, r2, r3, lsl #1
   d9a52:	f47f aeeb 	bne.w	d982c <__aeabi_dmul+0x1f8>
   d9a56:	e712      	b.n	d987e <__aeabi_dmul+0x24a>

000d9a58 <__gedf2>:
   d9a58:	f04f 3cff 	mov.w	ip, #4294967295
   d9a5c:	e006      	b.n	d9a6c <__cmpdf2+0x4>
   d9a5e:	bf00      	nop

000d9a60 <__ledf2>:
   d9a60:	f04f 0c01 	mov.w	ip, #1
   d9a64:	e002      	b.n	d9a6c <__cmpdf2+0x4>
   d9a66:	bf00      	nop

000d9a68 <__cmpdf2>:
   d9a68:	f04f 0c01 	mov.w	ip, #1
   d9a6c:	f84d cd04 	str.w	ip, [sp, #-4]!
   d9a70:	ea4f 0c41 	mov.w	ip, r1, lsl #1
   d9a74:	ea7f 5c6c 	mvns.w	ip, ip, asr #21
   d9a78:	ea4f 0c43 	mov.w	ip, r3, lsl #1
   d9a7c:	bf18      	it	ne
   d9a7e:	ea7f 5c6c 	mvnsne.w	ip, ip, asr #21
   d9a82:	d01b      	beq.n	d9abc <__cmpdf2+0x54>
   d9a84:	b001      	add	sp, #4
   d9a86:	ea50 0c41 	orrs.w	ip, r0, r1, lsl #1
   d9a8a:	bf0c      	ite	eq
   d9a8c:	ea52 0c43 	orrseq.w	ip, r2, r3, lsl #1
   d9a90:	ea91 0f03 	teqne	r1, r3
   d9a94:	bf02      	ittt	eq
   d9a96:	ea90 0f02 	teqeq	r0, r2
   d9a9a:	2000      	moveq	r0, #0
   d9a9c:	4770      	bxeq	lr
   d9a9e:	f110 0f00 	cmn.w	r0, #0
   d9aa2:	ea91 0f03 	teq	r1, r3
   d9aa6:	bf58      	it	pl
   d9aa8:	4299      	cmppl	r1, r3
   d9aaa:	bf08      	it	eq
   d9aac:	4290      	cmpeq	r0, r2
   d9aae:	bf2c      	ite	cs
   d9ab0:	17d8      	asrcs	r0, r3, #31
   d9ab2:	ea6f 70e3 	mvncc.w	r0, r3, asr #31
   d9ab6:	f040 0001 	orr.w	r0, r0, #1
   d9aba:	4770      	bx	lr
   d9abc:	ea4f 0c41 	mov.w	ip, r1, lsl #1
   d9ac0:	ea7f 5c6c 	mvns.w	ip, ip, asr #21
   d9ac4:	d102      	bne.n	d9acc <__cmpdf2+0x64>
   d9ac6:	ea50 3c01 	orrs.w	ip, r0, r1, lsl #12
   d9aca:	d107      	bne.n	d9adc <__cmpdf2+0x74>
   d9acc:	ea4f 0c43 	mov.w	ip, r3, lsl #1
   d9ad0:	ea7f 5c6c 	mvns.w	ip, ip, asr #21
   d9ad4:	d1d6      	bne.n	d9a84 <__cmpdf2+0x1c>
   d9ad6:	ea52 3c03 	orrs.w	ip, r2, r3, lsl #12
   d9ada:	d0d3      	beq.n	d9a84 <__cmpdf2+0x1c>
   d9adc:	f85d 0b04 	ldr.w	r0, [sp], #4
   d9ae0:	4770      	bx	lr
   d9ae2:	bf00      	nop

000d9ae4 <__aeabi_cdrcmple>:
   d9ae4:	4684      	mov	ip, r0
   d9ae6:	4610      	mov	r0, r2
   d9ae8:	4662      	mov	r2, ip
   d9aea:	468c      	mov	ip, r1
   d9aec:	4619      	mov	r1, r3
   d9aee:	4663      	mov	r3, ip
   d9af0:	e000      	b.n	d9af4 <__aeabi_cdcmpeq>
   d9af2:	bf00      	nop

000d9af4 <__aeabi_cdcmpeq>:
   d9af4:	b501      	push	{r0, lr}
   d9af6:	f7ff ffb7 	bl	d9a68 <__cmpdf2>
   d9afa:	2800      	cmp	r0, #0
   d9afc:	bf48      	it	mi
   d9afe:	f110 0f00 	cmnmi.w	r0, #0
   d9b02:	bd01      	pop	{r0, pc}

000d9b04 <__aeabi_dcmpeq>:
   d9b04:	f84d ed08 	str.w	lr, [sp, #-8]!
   d9b08:	f7ff fff4 	bl	d9af4 <__aeabi_cdcmpeq>
   d9b0c:	bf0c      	ite	eq
   d9b0e:	2001      	moveq	r0, #1
   d9b10:	2000      	movne	r0, #0
   d9b12:	f85d fb08 	ldr.w	pc, [sp], #8
   d9b16:	bf00      	nop

000d9b18 <__aeabi_dcmplt>:
   d9b18:	f84d ed08 	str.w	lr, [sp, #-8]!
   d9b1c:	f7ff ffea 	bl	d9af4 <__aeabi_cdcmpeq>
   d9b20:	bf34      	ite	cc
   d9b22:	2001      	movcc	r0, #1
   d9b24:	2000      	movcs	r0, #0
   d9b26:	f85d fb08 	ldr.w	pc, [sp], #8
   d9b2a:	bf00      	nop

000d9b2c <__aeabi_dcmple>:
   d9b2c:	f84d ed08 	str.w	lr, [sp, #-8]!
   d9b30:	f7ff ffe0 	bl	d9af4 <__aeabi_cdcmpeq>
   d9b34:	bf94      	ite	ls
   d9b36:	2001      	movls	r0, #1
   d9b38:	2000      	movhi	r0, #0
   d9b3a:	f85d fb08 	ldr.w	pc, [sp], #8
   d9b3e:	bf00      	nop

000d9b40 <__aeabi_dcmpge>:
   d9b40:	f84d ed08 	str.w	lr, [sp, #-8]!
   d9b44:	f7ff ffce 	bl	d9ae4 <__aeabi_cdrcmple>
   d9b48:	bf94      	ite	ls
   d9b4a:	2001      	movls	r0, #1
   d9b4c:	2000      	movhi	r0, #0
   d9b4e:	f85d fb08 	ldr.w	pc, [sp], #8
   d9b52:	bf00      	nop

000d9b54 <__aeabi_dcmpgt>:
   d9b54:	f84d ed08 	str.w	lr, [sp, #-8]!
   d9b58:	f7ff ffc4 	bl	d9ae4 <__aeabi_cdrcmple>
   d9b5c:	bf34      	ite	cc
   d9b5e:	2001      	movcc	r0, #1
   d9b60:	2000      	movcs	r0, #0
   d9b62:	f85d fb08 	ldr.w	pc, [sp], #8
   d9b66:	bf00      	nop

000d9b68 <__aeabi_dcmpun>:
   d9b68:	ea4f 0c41 	mov.w	ip, r1, lsl #1
   d9b6c:	ea7f 5c6c 	mvns.w	ip, ip, asr #21
   d9b70:	d102      	bne.n	d9b78 <__aeabi_dcmpun+0x10>
   d9b72:	ea50 3c01 	orrs.w	ip, r0, r1, lsl #12
   d9b76:	d10a      	bne.n	d9b8e <__aeabi_dcmpun+0x26>
   d9b78:	ea4f 0c43 	mov.w	ip, r3, lsl #1
   d9b7c:	ea7f 5c6c 	mvns.w	ip, ip, asr #21
   d9b80:	d102      	bne.n	d9b88 <__aeabi_dcmpun+0x20>
   d9b82:	ea52 3c03 	orrs.w	ip, r2, r3, lsl #12
   d9b86:	d102      	bne.n	d9b8e <__aeabi_dcmpun+0x26>
   d9b88:	f04f 0000 	mov.w	r0, #0
   d9b8c:	4770      	bx	lr
   d9b8e:	f04f 0001 	mov.w	r0, #1
   d9b92:	4770      	bx	lr

000d9b94 <__aeabi_d2iz>:
   d9b94:	ea4f 0241 	mov.w	r2, r1, lsl #1
   d9b98:	f512 1200 	adds.w	r2, r2, #2097152	; 0x200000
   d9b9c:	d215      	bcs.n	d9bca <__aeabi_d2iz+0x36>
   d9b9e:	d511      	bpl.n	d9bc4 <__aeabi_d2iz+0x30>
   d9ba0:	f46f 7378 	mvn.w	r3, #992	; 0x3e0
   d9ba4:	ebb3 5262 	subs.w	r2, r3, r2, asr #21
   d9ba8:	d912      	bls.n	d9bd0 <__aeabi_d2iz+0x3c>
   d9baa:	ea4f 23c1 	mov.w	r3, r1, lsl #11
   d9bae:	f043 4300 	orr.w	r3, r3, #2147483648	; 0x80000000
   d9bb2:	ea43 5350 	orr.w	r3, r3, r0, lsr #21
   d9bb6:	f011 4f00 	tst.w	r1, #2147483648	; 0x80000000
   d9bba:	fa23 f002 	lsr.w	r0, r3, r2
   d9bbe:	bf18      	it	ne
   d9bc0:	4240      	negne	r0, r0
   d9bc2:	4770      	bx	lr
   d9bc4:	f04f 0000 	mov.w	r0, #0
   d9bc8:	4770      	bx	lr
   d9bca:	ea50 3001 	orrs.w	r0, r0, r1, lsl #12
   d9bce:	d105      	bne.n	d9bdc <__aeabi_d2iz+0x48>
   d9bd0:	f011 4000 	ands.w	r0, r1, #2147483648	; 0x80000000
   d9bd4:	bf08      	it	eq
   d9bd6:	f06f 4000 	mvneq.w	r0, #2147483648	; 0x80000000
   d9bda:	4770      	bx	lr
   d9bdc:	f04f 0000 	mov.w	r0, #0
   d9be0:	4770      	bx	lr
   d9be2:	bf00      	nop

000d9be4 <__aeabi_d2uiz>:
   d9be4:	004a      	lsls	r2, r1, #1
   d9be6:	d211      	bcs.n	d9c0c <__aeabi_d2uiz+0x28>
   d9be8:	f512 1200 	adds.w	r2, r2, #2097152	; 0x200000
   d9bec:	d211      	bcs.n	d9c12 <__aeabi_d2uiz+0x2e>
   d9bee:	d50d      	bpl.n	d9c0c <__aeabi_d2uiz+0x28>
   d9bf0:	f46f 7378 	mvn.w	r3, #992	; 0x3e0
   d9bf4:	ebb3 5262 	subs.w	r2, r3, r2, asr #21
   d9bf8:	d40e      	bmi.n	d9c18 <__aeabi_d2uiz+0x34>
   d9bfa:	ea4f 23c1 	mov.w	r3, r1, lsl #11
   d9bfe:	f043 4300 	orr.w	r3, r3, #2147483648	; 0x80000000
   d9c02:	ea43 5350 	orr.w	r3, r3, r0, lsr #21
   d9c06:	fa23 f002 	lsr.w	r0, r3, r2
   d9c0a:	4770      	bx	lr
   d9c0c:	f04f 0000 	mov.w	r0, #0
   d9c10:	4770      	bx	lr
   d9c12:	ea50 3001 	orrs.w	r0, r0, r1, lsl #12
   d9c16:	d102      	bne.n	d9c1e <__aeabi_d2uiz+0x3a>
   d9c18:	f04f 30ff 	mov.w	r0, #4294967295
   d9c1c:	4770      	bx	lr
   d9c1e:	f04f 0000 	mov.w	r0, #0
   d9c22:	4770      	bx	lr

000d9c24 <__aeabi_d2f>:
   d9c24:	ea4f 0241 	mov.w	r2, r1, lsl #1
   d9c28:	f1b2 43e0 	subs.w	r3, r2, #1879048192	; 0x70000000
   d9c2c:	bf24      	itt	cs
   d9c2e:	f5b3 1c00 	subscs.w	ip, r3, #2097152	; 0x200000
   d9c32:	f1dc 5cfe 	rsbscs	ip, ip, #532676608	; 0x1fc00000
   d9c36:	d90d      	bls.n	d9c54 <__aeabi_d2f+0x30>
   d9c38:	f001 4c00 	and.w	ip, r1, #2147483648	; 0x80000000
   d9c3c:	ea4f 02c0 	mov.w	r2, r0, lsl #3
   d9c40:	ea4c 7050 	orr.w	r0, ip, r0, lsr #29
   d9c44:	f1b2 4f00 	cmp.w	r2, #2147483648	; 0x80000000
   d9c48:	eb40 0083 	adc.w	r0, r0, r3, lsl #2
   d9c4c:	bf08      	it	eq
   d9c4e:	f020 0001 	biceq.w	r0, r0, #1
   d9c52:	4770      	bx	lr
   d9c54:	f011 4f80 	tst.w	r1, #1073741824	; 0x40000000
   d9c58:	d121      	bne.n	d9c9e <__aeabi_d2f+0x7a>
   d9c5a:	f113 7238 	adds.w	r2, r3, #48234496	; 0x2e00000
   d9c5e:	bfbc      	itt	lt
   d9c60:	f001 4000 	andlt.w	r0, r1, #2147483648	; 0x80000000
   d9c64:	4770      	bxlt	lr
   d9c66:	f441 1180 	orr.w	r1, r1, #1048576	; 0x100000
   d9c6a:	ea4f 5252 	mov.w	r2, r2, lsr #21
   d9c6e:	f1c2 0218 	rsb	r2, r2, #24
   d9c72:	f1c2 0c20 	rsb	ip, r2, #32
   d9c76:	fa10 f30c 	lsls.w	r3, r0, ip
   d9c7a:	fa20 f002 	lsr.w	r0, r0, r2
   d9c7e:	bf18      	it	ne
   d9c80:	f040 0001 	orrne.w	r0, r0, #1
   d9c84:	ea4f 23c1 	mov.w	r3, r1, lsl #11
   d9c88:	ea4f 23d3 	mov.w	r3, r3, lsr #11
   d9c8c:	fa03 fc0c 	lsl.w	ip, r3, ip
   d9c90:	ea40 000c 	orr.w	r0, r0, ip
   d9c94:	fa23 f302 	lsr.w	r3, r3, r2
   d9c98:	ea4f 0343 	mov.w	r3, r3, lsl #1
   d9c9c:	e7cc      	b.n	d9c38 <__aeabi_d2f+0x14>
   d9c9e:	ea7f 5362 	mvns.w	r3, r2, asr #21
   d9ca2:	d107      	bne.n	d9cb4 <__aeabi_d2f+0x90>
   d9ca4:	ea50 3301 	orrs.w	r3, r0, r1, lsl #12
   d9ca8:	bf1e      	ittt	ne
   d9caa:	f04f 40fe 	movne.w	r0, #2130706432	; 0x7f000000
   d9cae:	f440 0040 	orrne.w	r0, r0, #12582912	; 0xc00000
   d9cb2:	4770      	bxne	lr
   d9cb4:	f001 4000 	and.w	r0, r1, #2147483648	; 0x80000000
   d9cb8:	f040 40fe 	orr.w	r0, r0, #2130706432	; 0x7f000000
   d9cbc:	f440 0000 	orr.w	r0, r0, #8388608	; 0x800000
   d9cc0:	4770      	bx	lr
   d9cc2:	bf00      	nop

000d9cc4 <__aeabi_frsub>:
   d9cc4:	f080 4000 	eor.w	r0, r0, #2147483648	; 0x80000000
   d9cc8:	e002      	b.n	d9cd0 <__addsf3>
   d9cca:	bf00      	nop

000d9ccc <__aeabi_fsub>:
   d9ccc:	f081 4100 	eor.w	r1, r1, #2147483648	; 0x80000000

000d9cd0 <__addsf3>:
   d9cd0:	0042      	lsls	r2, r0, #1
   d9cd2:	bf1f      	itttt	ne
   d9cd4:	ea5f 0341 	movsne.w	r3, r1, lsl #1
   d9cd8:	ea92 0f03 	teqne	r2, r3
   d9cdc:	ea7f 6c22 	mvnsne.w	ip, r2, asr #24
   d9ce0:	ea7f 6c23 	mvnsne.w	ip, r3, asr #24
   d9ce4:	d06a      	beq.n	d9dbc <__addsf3+0xec>
   d9ce6:	ea4f 6212 	mov.w	r2, r2, lsr #24
   d9cea:	ebd2 6313 	rsbs	r3, r2, r3, lsr #24
   d9cee:	bfc1      	itttt	gt
   d9cf0:	18d2      	addgt	r2, r2, r3
   d9cf2:	4041      	eorgt	r1, r0
   d9cf4:	4048      	eorgt	r0, r1
   d9cf6:	4041      	eorgt	r1, r0
   d9cf8:	bfb8      	it	lt
   d9cfa:	425b      	neglt	r3, r3
   d9cfc:	2b19      	cmp	r3, #25
   d9cfe:	bf88      	it	hi
   d9d00:	4770      	bxhi	lr
   d9d02:	f010 4f00 	tst.w	r0, #2147483648	; 0x80000000
   d9d06:	f440 0000 	orr.w	r0, r0, #8388608	; 0x800000
   d9d0a:	f020 407f 	bic.w	r0, r0, #4278190080	; 0xff000000
   d9d0e:	bf18      	it	ne
   d9d10:	4240      	negne	r0, r0
   d9d12:	f011 4f00 	tst.w	r1, #2147483648	; 0x80000000
   d9d16:	f441 0100 	orr.w	r1, r1, #8388608	; 0x800000
   d9d1a:	f021 417f 	bic.w	r1, r1, #4278190080	; 0xff000000
   d9d1e:	bf18      	it	ne
   d9d20:	4249      	negne	r1, r1
   d9d22:	ea92 0f03 	teq	r2, r3
   d9d26:	d03f      	beq.n	d9da8 <__addsf3+0xd8>
   d9d28:	f1a2 0201 	sub.w	r2, r2, #1
   d9d2c:	fa41 fc03 	asr.w	ip, r1, r3
   d9d30:	eb10 000c 	adds.w	r0, r0, ip
   d9d34:	f1c3 0320 	rsb	r3, r3, #32
   d9d38:	fa01 f103 	lsl.w	r1, r1, r3
   d9d3c:	f000 4300 	and.w	r3, r0, #2147483648	; 0x80000000
   d9d40:	d502      	bpl.n	d9d48 <__addsf3+0x78>
   d9d42:	4249      	negs	r1, r1
   d9d44:	eb60 0040 	sbc.w	r0, r0, r0, lsl #1
   d9d48:	f5b0 0f00 	cmp.w	r0, #8388608	; 0x800000
   d9d4c:	d313      	bcc.n	d9d76 <__addsf3+0xa6>
   d9d4e:	f1b0 7f80 	cmp.w	r0, #16777216	; 0x1000000
   d9d52:	d306      	bcc.n	d9d62 <__addsf3+0x92>
   d9d54:	0840      	lsrs	r0, r0, #1
   d9d56:	ea4f 0131 	mov.w	r1, r1, rrx
   d9d5a:	f102 0201 	add.w	r2, r2, #1
   d9d5e:	2afe      	cmp	r2, #254	; 0xfe
   d9d60:	d251      	bcs.n	d9e06 <__addsf3+0x136>
   d9d62:	f1b1 4f00 	cmp.w	r1, #2147483648	; 0x80000000
   d9d66:	eb40 50c2 	adc.w	r0, r0, r2, lsl #23
   d9d6a:	bf08      	it	eq
   d9d6c:	f020 0001 	biceq.w	r0, r0, #1
   d9d70:	ea40 0003 	orr.w	r0, r0, r3
   d9d74:	4770      	bx	lr
   d9d76:	0049      	lsls	r1, r1, #1
   d9d78:	eb40 0000 	adc.w	r0, r0, r0
   d9d7c:	3a01      	subs	r2, #1
   d9d7e:	bf28      	it	cs
   d9d80:	f5b0 0f00 	cmpcs.w	r0, #8388608	; 0x800000
   d9d84:	d2ed      	bcs.n	d9d62 <__addsf3+0x92>
   d9d86:	fab0 fc80 	clz	ip, r0
   d9d8a:	f1ac 0c08 	sub.w	ip, ip, #8
   d9d8e:	ebb2 020c 	subs.w	r2, r2, ip
   d9d92:	fa00 f00c 	lsl.w	r0, r0, ip
   d9d96:	bfaa      	itet	ge
   d9d98:	eb00 50c2 	addge.w	r0, r0, r2, lsl #23
   d9d9c:	4252      	neglt	r2, r2
   d9d9e:	4318      	orrge	r0, r3
   d9da0:	bfbc      	itt	lt
   d9da2:	40d0      	lsrlt	r0, r2
   d9da4:	4318      	orrlt	r0, r3
   d9da6:	4770      	bx	lr
   d9da8:	f092 0f00 	teq	r2, #0
   d9dac:	f481 0100 	eor.w	r1, r1, #8388608	; 0x800000
   d9db0:	bf06      	itte	eq
   d9db2:	f480 0000 	eoreq.w	r0, r0, #8388608	; 0x800000
   d9db6:	3201      	addeq	r2, #1
   d9db8:	3b01      	subne	r3, #1
   d9dba:	e7b5      	b.n	d9d28 <__addsf3+0x58>
   d9dbc:	ea4f 0341 	mov.w	r3, r1, lsl #1
   d9dc0:	ea7f 6c22 	mvns.w	ip, r2, asr #24
   d9dc4:	bf18      	it	ne
   d9dc6:	ea7f 6c23 	mvnsne.w	ip, r3, asr #24
   d9dca:	d021      	beq.n	d9e10 <__addsf3+0x140>
   d9dcc:	ea92 0f03 	teq	r2, r3
   d9dd0:	d004      	beq.n	d9ddc <__addsf3+0x10c>
   d9dd2:	f092 0f00 	teq	r2, #0
   d9dd6:	bf08      	it	eq
   d9dd8:	4608      	moveq	r0, r1
   d9dda:	4770      	bx	lr
   d9ddc:	ea90 0f01 	teq	r0, r1
   d9de0:	bf1c      	itt	ne
   d9de2:	2000      	movne	r0, #0
   d9de4:	4770      	bxne	lr
   d9de6:	f012 4f7f 	tst.w	r2, #4278190080	; 0xff000000
   d9dea:	d104      	bne.n	d9df6 <__addsf3+0x126>
   d9dec:	0040      	lsls	r0, r0, #1
   d9dee:	bf28      	it	cs
   d9df0:	f040 4000 	orrcs.w	r0, r0, #2147483648	; 0x80000000
   d9df4:	4770      	bx	lr
   d9df6:	f112 7200 	adds.w	r2, r2, #33554432	; 0x2000000
   d9dfa:	bf3c      	itt	cc
   d9dfc:	f500 0000 	addcc.w	r0, r0, #8388608	; 0x800000
   d9e00:	4770      	bxcc	lr
   d9e02:	f000 4300 	and.w	r3, r0, #2147483648	; 0x80000000
   d9e06:	f043 40fe 	orr.w	r0, r3, #2130706432	; 0x7f000000
   d9e0a:	f440 0000 	orr.w	r0, r0, #8388608	; 0x800000
   d9e0e:	4770      	bx	lr
   d9e10:	ea7f 6222 	mvns.w	r2, r2, asr #24
   d9e14:	bf16      	itet	ne
   d9e16:	4608      	movne	r0, r1
   d9e18:	ea7f 6323 	mvnseq.w	r3, r3, asr #24
   d9e1c:	4601      	movne	r1, r0
   d9e1e:	0242      	lsls	r2, r0, #9
   d9e20:	bf06      	itte	eq
   d9e22:	ea5f 2341 	movseq.w	r3, r1, lsl #9
   d9e26:	ea90 0f01 	teqeq	r0, r1
   d9e2a:	f440 0080 	orrne.w	r0, r0, #4194304	; 0x400000
   d9e2e:	4770      	bx	lr

000d9e30 <__aeabi_ui2f>:
   d9e30:	f04f 0300 	mov.w	r3, #0
   d9e34:	e004      	b.n	d9e40 <__aeabi_i2f+0x8>
   d9e36:	bf00      	nop

000d9e38 <__aeabi_i2f>:
   d9e38:	f010 4300 	ands.w	r3, r0, #2147483648	; 0x80000000
   d9e3c:	bf48      	it	mi
   d9e3e:	4240      	negmi	r0, r0
   d9e40:	ea5f 0c00 	movs.w	ip, r0
   d9e44:	bf08      	it	eq
   d9e46:	4770      	bxeq	lr
   d9e48:	f043 4396 	orr.w	r3, r3, #1258291200	; 0x4b000000
   d9e4c:	4601      	mov	r1, r0
   d9e4e:	f04f 0000 	mov.w	r0, #0
   d9e52:	e01c      	b.n	d9e8e <__aeabi_l2f+0x2a>

000d9e54 <__aeabi_ul2f>:
   d9e54:	ea50 0201 	orrs.w	r2, r0, r1
   d9e58:	bf08      	it	eq
   d9e5a:	4770      	bxeq	lr
   d9e5c:	f04f 0300 	mov.w	r3, #0
   d9e60:	e00a      	b.n	d9e78 <__aeabi_l2f+0x14>
   d9e62:	bf00      	nop

000d9e64 <__aeabi_l2f>:
   d9e64:	ea50 0201 	orrs.w	r2, r0, r1
   d9e68:	bf08      	it	eq
   d9e6a:	4770      	bxeq	lr
   d9e6c:	f011 4300 	ands.w	r3, r1, #2147483648	; 0x80000000
   d9e70:	d502      	bpl.n	d9e78 <__aeabi_l2f+0x14>
   d9e72:	4240      	negs	r0, r0
   d9e74:	eb61 0141 	sbc.w	r1, r1, r1, lsl #1
   d9e78:	ea5f 0c01 	movs.w	ip, r1
   d9e7c:	bf02      	ittt	eq
   d9e7e:	4684      	moveq	ip, r0
   d9e80:	4601      	moveq	r1, r0
   d9e82:	2000      	moveq	r0, #0
   d9e84:	f043 43b6 	orr.w	r3, r3, #1526726656	; 0x5b000000
   d9e88:	bf08      	it	eq
   d9e8a:	f1a3 5380 	subeq.w	r3, r3, #268435456	; 0x10000000
   d9e8e:	f5a3 0300 	sub.w	r3, r3, #8388608	; 0x800000
   d9e92:	fabc f28c 	clz	r2, ip
   d9e96:	3a08      	subs	r2, #8
   d9e98:	eba3 53c2 	sub.w	r3, r3, r2, lsl #23
   d9e9c:	db10      	blt.n	d9ec0 <__aeabi_l2f+0x5c>
   d9e9e:	fa01 fc02 	lsl.w	ip, r1, r2
   d9ea2:	4463      	add	r3, ip
   d9ea4:	fa00 fc02 	lsl.w	ip, r0, r2
   d9ea8:	f1c2 0220 	rsb	r2, r2, #32
   d9eac:	f1bc 4f00 	cmp.w	ip, #2147483648	; 0x80000000
   d9eb0:	fa20 f202 	lsr.w	r2, r0, r2
   d9eb4:	eb43 0002 	adc.w	r0, r3, r2
   d9eb8:	bf08      	it	eq
   d9eba:	f020 0001 	biceq.w	r0, r0, #1
   d9ebe:	4770      	bx	lr
   d9ec0:	f102 0220 	add.w	r2, r2, #32
   d9ec4:	fa01 fc02 	lsl.w	ip, r1, r2
   d9ec8:	f1c2 0220 	rsb	r2, r2, #32
   d9ecc:	ea50 004c 	orrs.w	r0, r0, ip, lsl #1
   d9ed0:	fa21 f202 	lsr.w	r2, r1, r2
   d9ed4:	eb43 0002 	adc.w	r0, r3, r2
   d9ed8:	bf08      	it	eq
   d9eda:	ea20 70dc 	biceq.w	r0, r0, ip, lsr #31
   d9ede:	4770      	bx	lr

000d9ee0 <__aeabi_ldivmod>:
   d9ee0:	b97b      	cbnz	r3, d9f02 <__aeabi_ldivmod+0x22>
   d9ee2:	b972      	cbnz	r2, d9f02 <__aeabi_ldivmod+0x22>
   d9ee4:	2900      	cmp	r1, #0
   d9ee6:	bfbe      	ittt	lt
   d9ee8:	2000      	movlt	r0, #0
   d9eea:	f04f 4100 	movlt.w	r1, #2147483648	; 0x80000000
   d9eee:	e006      	blt.n	d9efe <__aeabi_ldivmod+0x1e>
   d9ef0:	bf08      	it	eq
   d9ef2:	2800      	cmpeq	r0, #0
   d9ef4:	bf1c      	itt	ne
   d9ef6:	f06f 4100 	mvnne.w	r1, #2147483648	; 0x80000000
   d9efa:	f04f 30ff 	movne.w	r0, #4294967295
   d9efe:	f000 b9a1 	b.w	da244 <__aeabi_idiv0>
   d9f02:	f1ad 0c08 	sub.w	ip, sp, #8
   d9f06:	e96d ce04 	strd	ip, lr, [sp, #-16]!
   d9f0a:	2900      	cmp	r1, #0
   d9f0c:	db09      	blt.n	d9f22 <__aeabi_ldivmod+0x42>
   d9f0e:	2b00      	cmp	r3, #0
   d9f10:	db1a      	blt.n	d9f48 <__aeabi_ldivmod+0x68>
   d9f12:	f000 f835 	bl	d9f80 <__udivmoddi4>
   d9f16:	f8dd e004 	ldr.w	lr, [sp, #4]
   d9f1a:	e9dd 2302 	ldrd	r2, r3, [sp, #8]
   d9f1e:	b004      	add	sp, #16
   d9f20:	4770      	bx	lr
   d9f22:	4240      	negs	r0, r0
   d9f24:	eb61 0141 	sbc.w	r1, r1, r1, lsl #1
   d9f28:	2b00      	cmp	r3, #0
   d9f2a:	db1b      	blt.n	d9f64 <__aeabi_ldivmod+0x84>
   d9f2c:	f000 f828 	bl	d9f80 <__udivmoddi4>
   d9f30:	f8dd e004 	ldr.w	lr, [sp, #4]
   d9f34:	e9dd 2302 	ldrd	r2, r3, [sp, #8]
   d9f38:	b004      	add	sp, #16
   d9f3a:	4240      	negs	r0, r0
   d9f3c:	eb61 0141 	sbc.w	r1, r1, r1, lsl #1
   d9f40:	4252      	negs	r2, r2
   d9f42:	eb63 0343 	sbc.w	r3, r3, r3, lsl #1
   d9f46:	4770      	bx	lr
   d9f48:	4252      	negs	r2, r2
   d9f4a:	eb63 0343 	sbc.w	r3, r3, r3, lsl #1
   d9f4e:	f000 f817 	bl	d9f80 <__udivmoddi4>
   d9f52:	f8dd e004 	ldr.w	lr, [sp, #4]
   d9f56:	e9dd 2302 	ldrd	r2, r3, [sp, #8]
   d9f5a:	b004      	add	sp, #16
   d9f5c:	4240      	negs	r0, r0
   d9f5e:	eb61 0141 	sbc.w	r1, r1, r1, lsl #1
   d9f62:	4770      	bx	lr
   d9f64:	4252      	negs	r2, r2
   d9f66:	eb63 0343 	sbc.w	r3, r3, r3, lsl #1
   d9f6a:	f000 f809 	bl	d9f80 <__udivmoddi4>
   d9f6e:	f8dd e004 	ldr.w	lr, [sp, #4]
   d9f72:	e9dd 2302 	ldrd	r2, r3, [sp, #8]
   d9f76:	b004      	add	sp, #16
   d9f78:	4252      	negs	r2, r2
   d9f7a:	eb63 0343 	sbc.w	r3, r3, r3, lsl #1
   d9f7e:	4770      	bx	lr

000d9f80 <__udivmoddi4>:
   d9f80:	e92d 47f0 	stmdb	sp!, {r4, r5, r6, r7, r8, r9, sl, lr}
   d9f84:	9d08      	ldr	r5, [sp, #32]
   d9f86:	4604      	mov	r4, r0
   d9f88:	468c      	mov	ip, r1
   d9f8a:	2b00      	cmp	r3, #0
   d9f8c:	f040 8083 	bne.w	da096 <__udivmoddi4+0x116>
   d9f90:	428a      	cmp	r2, r1
   d9f92:	4617      	mov	r7, r2
   d9f94:	d947      	bls.n	da026 <__udivmoddi4+0xa6>
   d9f96:	fab2 f282 	clz	r2, r2
   d9f9a:	b142      	cbz	r2, d9fae <__udivmoddi4+0x2e>
   d9f9c:	f1c2 0020 	rsb	r0, r2, #32
   d9fa0:	fa24 f000 	lsr.w	r0, r4, r0
   d9fa4:	4091      	lsls	r1, r2
   d9fa6:	4097      	lsls	r7, r2
   d9fa8:	ea40 0c01 	orr.w	ip, r0, r1
   d9fac:	4094      	lsls	r4, r2
   d9fae:	ea4f 4817 	mov.w	r8, r7, lsr #16
   d9fb2:	0c23      	lsrs	r3, r4, #16
   d9fb4:	fbbc f6f8 	udiv	r6, ip, r8
   d9fb8:	fa1f fe87 	uxth.w	lr, r7
   d9fbc:	fb08 c116 	mls	r1, r8, r6, ip
   d9fc0:	ea43 4301 	orr.w	r3, r3, r1, lsl #16
   d9fc4:	fb06 f10e 	mul.w	r1, r6, lr
   d9fc8:	4299      	cmp	r1, r3
   d9fca:	d909      	bls.n	d9fe0 <__udivmoddi4+0x60>
   d9fcc:	18fb      	adds	r3, r7, r3
   d9fce:	f106 30ff 	add.w	r0, r6, #4294967295
   d9fd2:	f080 8119 	bcs.w	da208 <__udivmoddi4+0x288>
   d9fd6:	4299      	cmp	r1, r3
   d9fd8:	f240 8116 	bls.w	da208 <__udivmoddi4+0x288>
   d9fdc:	3e02      	subs	r6, #2
   d9fde:	443b      	add	r3, r7
   d9fe0:	1a5b      	subs	r3, r3, r1
   d9fe2:	b2a4      	uxth	r4, r4
   d9fe4:	fbb3 f0f8 	udiv	r0, r3, r8
   d9fe8:	fb08 3310 	mls	r3, r8, r0, r3
   d9fec:	ea44 4403 	orr.w	r4, r4, r3, lsl #16
   d9ff0:	fb00 fe0e 	mul.w	lr, r0, lr
   d9ff4:	45a6      	cmp	lr, r4
   d9ff6:	d909      	bls.n	da00c <__udivmoddi4+0x8c>
   d9ff8:	193c      	adds	r4, r7, r4
   d9ffa:	f100 33ff 	add.w	r3, r0, #4294967295
   d9ffe:	f080 8105 	bcs.w	da20c <__udivmoddi4+0x28c>
   da002:	45a6      	cmp	lr, r4
   da004:	f240 8102 	bls.w	da20c <__udivmoddi4+0x28c>
   da008:	3802      	subs	r0, #2
   da00a:	443c      	add	r4, r7
   da00c:	ea40 4006 	orr.w	r0, r0, r6, lsl #16
   da010:	eba4 040e 	sub.w	r4, r4, lr
   da014:	2600      	movs	r6, #0
   da016:	b11d      	cbz	r5, da020 <__udivmoddi4+0xa0>
   da018:	40d4      	lsrs	r4, r2
   da01a:	2300      	movs	r3, #0
   da01c:	e9c5 4300 	strd	r4, r3, [r5]
   da020:	4631      	mov	r1, r6
   da022:	e8bd 87f0 	ldmia.w	sp!, {r4, r5, r6, r7, r8, r9, sl, pc}
   da026:	b902      	cbnz	r2, da02a <__udivmoddi4+0xaa>
   da028:	deff      	udf	#255	; 0xff
   da02a:	fab2 f282 	clz	r2, r2
   da02e:	2a00      	cmp	r2, #0
   da030:	d150      	bne.n	da0d4 <__udivmoddi4+0x154>
   da032:	1bcb      	subs	r3, r1, r7
   da034:	ea4f 4e17 	mov.w	lr, r7, lsr #16
   da038:	fa1f f887 	uxth.w	r8, r7
   da03c:	2601      	movs	r6, #1
   da03e:	fbb3 fcfe 	udiv	ip, r3, lr
   da042:	0c21      	lsrs	r1, r4, #16
   da044:	fb0e 331c 	mls	r3, lr, ip, r3
   da048:	ea41 4103 	orr.w	r1, r1, r3, lsl #16
   da04c:	fb08 f30c 	mul.w	r3, r8, ip
   da050:	428b      	cmp	r3, r1
   da052:	d907      	bls.n	da064 <__udivmoddi4+0xe4>
   da054:	1879      	adds	r1, r7, r1
   da056:	f10c 30ff 	add.w	r0, ip, #4294967295
   da05a:	d202      	bcs.n	da062 <__udivmoddi4+0xe2>
   da05c:	428b      	cmp	r3, r1
   da05e:	f200 80e9 	bhi.w	da234 <__udivmoddi4+0x2b4>
   da062:	4684      	mov	ip, r0
   da064:	1ac9      	subs	r1, r1, r3
   da066:	b2a3      	uxth	r3, r4
   da068:	fbb1 f0fe 	udiv	r0, r1, lr
   da06c:	fb0e 1110 	mls	r1, lr, r0, r1
   da070:	ea43 4401 	orr.w	r4, r3, r1, lsl #16
   da074:	fb08 f800 	mul.w	r8, r8, r0
   da078:	45a0      	cmp	r8, r4
   da07a:	d907      	bls.n	da08c <__udivmoddi4+0x10c>
   da07c:	193c      	adds	r4, r7, r4
   da07e:	f100 33ff 	add.w	r3, r0, #4294967295
   da082:	d202      	bcs.n	da08a <__udivmoddi4+0x10a>
   da084:	45a0      	cmp	r8, r4
   da086:	f200 80d9 	bhi.w	da23c <__udivmoddi4+0x2bc>
   da08a:	4618      	mov	r0, r3
   da08c:	eba4 0408 	sub.w	r4, r4, r8
   da090:	ea40 400c 	orr.w	r0, r0, ip, lsl #16
   da094:	e7bf      	b.n	da016 <__udivmoddi4+0x96>
   da096:	428b      	cmp	r3, r1
   da098:	d909      	bls.n	da0ae <__udivmoddi4+0x12e>
   da09a:	2d00      	cmp	r5, #0
   da09c:	f000 80b1 	beq.w	da202 <__udivmoddi4+0x282>
   da0a0:	2600      	movs	r6, #0
   da0a2:	e9c5 0100 	strd	r0, r1, [r5]
   da0a6:	4630      	mov	r0, r6
   da0a8:	4631      	mov	r1, r6
   da0aa:	e8bd 87f0 	ldmia.w	sp!, {r4, r5, r6, r7, r8, r9, sl, pc}
   da0ae:	fab3 f683 	clz	r6, r3
   da0b2:	2e00      	cmp	r6, #0
   da0b4:	d14a      	bne.n	da14c <__udivmoddi4+0x1cc>
   da0b6:	428b      	cmp	r3, r1
   da0b8:	d302      	bcc.n	da0c0 <__udivmoddi4+0x140>
   da0ba:	4282      	cmp	r2, r0
   da0bc:	f200 80b8 	bhi.w	da230 <__udivmoddi4+0x2b0>
   da0c0:	1a84      	subs	r4, r0, r2
   da0c2:	eb61 0103 	sbc.w	r1, r1, r3
   da0c6:	2001      	movs	r0, #1
   da0c8:	468c      	mov	ip, r1
   da0ca:	2d00      	cmp	r5, #0
   da0cc:	d0a8      	beq.n	da020 <__udivmoddi4+0xa0>
   da0ce:	e9c5 4c00 	strd	r4, ip, [r5]
   da0d2:	e7a5      	b.n	da020 <__udivmoddi4+0xa0>
   da0d4:	f1c2 0320 	rsb	r3, r2, #32
   da0d8:	fa20 f603 	lsr.w	r6, r0, r3
   da0dc:	4097      	lsls	r7, r2
   da0de:	fa01 f002 	lsl.w	r0, r1, r2
   da0e2:	ea4f 4e17 	mov.w	lr, r7, lsr #16
   da0e6:	40d9      	lsrs	r1, r3
   da0e8:	4330      	orrs	r0, r6
   da0ea:	0c03      	lsrs	r3, r0, #16
   da0ec:	fbb1 f6fe 	udiv	r6, r1, lr
   da0f0:	fa1f f887 	uxth.w	r8, r7
   da0f4:	fb0e 1116 	mls	r1, lr, r6, r1
   da0f8:	ea43 4301 	orr.w	r3, r3, r1, lsl #16
   da0fc:	fb06 f108 	mul.w	r1, r6, r8
   da100:	4299      	cmp	r1, r3
   da102:	fa04 f402 	lsl.w	r4, r4, r2
   da106:	d909      	bls.n	da11c <__udivmoddi4+0x19c>
   da108:	18fb      	adds	r3, r7, r3
   da10a:	f106 3cff 	add.w	ip, r6, #4294967295
   da10e:	f080 808d 	bcs.w	da22c <__udivmoddi4+0x2ac>
   da112:	4299      	cmp	r1, r3
   da114:	f240 808a 	bls.w	da22c <__udivmoddi4+0x2ac>
   da118:	3e02      	subs	r6, #2
   da11a:	443b      	add	r3, r7
   da11c:	1a5b      	subs	r3, r3, r1
   da11e:	b281      	uxth	r1, r0
   da120:	fbb3 f0fe 	udiv	r0, r3, lr
   da124:	fb0e 3310 	mls	r3, lr, r0, r3
   da128:	ea41 4103 	orr.w	r1, r1, r3, lsl #16
   da12c:	fb00 f308 	mul.w	r3, r0, r8
   da130:	428b      	cmp	r3, r1
   da132:	d907      	bls.n	da144 <__udivmoddi4+0x1c4>
   da134:	1879      	adds	r1, r7, r1
   da136:	f100 3cff 	add.w	ip, r0, #4294967295
   da13a:	d273      	bcs.n	da224 <__udivmoddi4+0x2a4>
   da13c:	428b      	cmp	r3, r1
   da13e:	d971      	bls.n	da224 <__udivmoddi4+0x2a4>
   da140:	3802      	subs	r0, #2
   da142:	4439      	add	r1, r7
   da144:	1acb      	subs	r3, r1, r3
   da146:	ea40 4606 	orr.w	r6, r0, r6, lsl #16
   da14a:	e778      	b.n	da03e <__udivmoddi4+0xbe>
   da14c:	f1c6 0c20 	rsb	ip, r6, #32
   da150:	fa03 f406 	lsl.w	r4, r3, r6
   da154:	fa22 f30c 	lsr.w	r3, r2, ip
   da158:	431c      	orrs	r4, r3
   da15a:	fa20 f70c 	lsr.w	r7, r0, ip
   da15e:	fa01 f306 	lsl.w	r3, r1, r6
   da162:	ea4f 4e14 	mov.w	lr, r4, lsr #16
   da166:	fa21 f10c 	lsr.w	r1, r1, ip
   da16a:	431f      	orrs	r7, r3
   da16c:	0c3b      	lsrs	r3, r7, #16
   da16e:	fbb1 f9fe 	udiv	r9, r1, lr
   da172:	fa1f f884 	uxth.w	r8, r4
   da176:	fb0e 1119 	mls	r1, lr, r9, r1
   da17a:	ea43 4101 	orr.w	r1, r3, r1, lsl #16
   da17e:	fb09 fa08 	mul.w	sl, r9, r8
   da182:	458a      	cmp	sl, r1
   da184:	fa02 f206 	lsl.w	r2, r2, r6
   da188:	fa00 f306 	lsl.w	r3, r0, r6
   da18c:	d908      	bls.n	da1a0 <__udivmoddi4+0x220>
   da18e:	1861      	adds	r1, r4, r1
   da190:	f109 30ff 	add.w	r0, r9, #4294967295
   da194:	d248      	bcs.n	da228 <__udivmoddi4+0x2a8>
   da196:	458a      	cmp	sl, r1
   da198:	d946      	bls.n	da228 <__udivmoddi4+0x2a8>
   da19a:	f1a9 0902 	sub.w	r9, r9, #2
   da19e:	4421      	add	r1, r4
   da1a0:	eba1 010a 	sub.w	r1, r1, sl
   da1a4:	b2bf      	uxth	r7, r7
   da1a6:	fbb1 f0fe 	udiv	r0, r1, lr
   da1aa:	fb0e 1110 	mls	r1, lr, r0, r1
   da1ae:	ea47 4701 	orr.w	r7, r7, r1, lsl #16
   da1b2:	fb00 f808 	mul.w	r8, r0, r8
   da1b6:	45b8      	cmp	r8, r7
   da1b8:	d907      	bls.n	da1ca <__udivmoddi4+0x24a>
   da1ba:	19e7      	adds	r7, r4, r7
   da1bc:	f100 31ff 	add.w	r1, r0, #4294967295
   da1c0:	d22e      	bcs.n	da220 <__udivmoddi4+0x2a0>
   da1c2:	45b8      	cmp	r8, r7
   da1c4:	d92c      	bls.n	da220 <__udivmoddi4+0x2a0>
   da1c6:	3802      	subs	r0, #2
   da1c8:	4427      	add	r7, r4
   da1ca:	ea40 4009 	orr.w	r0, r0, r9, lsl #16
   da1ce:	eba7 0708 	sub.w	r7, r7, r8
   da1d2:	fba0 8902 	umull	r8, r9, r0, r2
   da1d6:	454f      	cmp	r7, r9
   da1d8:	46c6      	mov	lr, r8
   da1da:	4649      	mov	r1, r9
   da1dc:	d31a      	bcc.n	da214 <__udivmoddi4+0x294>
   da1de:	d017      	beq.n	da210 <__udivmoddi4+0x290>
   da1e0:	b15d      	cbz	r5, da1fa <__udivmoddi4+0x27a>
   da1e2:	ebb3 020e 	subs.w	r2, r3, lr
   da1e6:	eb67 0701 	sbc.w	r7, r7, r1
   da1ea:	fa07 fc0c 	lsl.w	ip, r7, ip
   da1ee:	40f2      	lsrs	r2, r6
   da1f0:	ea4c 0202 	orr.w	r2, ip, r2
   da1f4:	40f7      	lsrs	r7, r6
   da1f6:	e9c5 2700 	strd	r2, r7, [r5]
   da1fa:	2600      	movs	r6, #0
   da1fc:	4631      	mov	r1, r6
   da1fe:	e8bd 87f0 	ldmia.w	sp!, {r4, r5, r6, r7, r8, r9, sl, pc}
   da202:	462e      	mov	r6, r5
   da204:	4628      	mov	r0, r5
   da206:	e70b      	b.n	da020 <__udivmoddi4+0xa0>
   da208:	4606      	mov	r6, r0
   da20a:	e6e9      	b.n	d9fe0 <__udivmoddi4+0x60>
   da20c:	4618      	mov	r0, r3
   da20e:	e6fd      	b.n	da00c <__udivmoddi4+0x8c>
   da210:	4543      	cmp	r3, r8
   da212:	d2e5      	bcs.n	da1e0 <__udivmoddi4+0x260>
   da214:	ebb8 0e02 	subs.w	lr, r8, r2
   da218:	eb69 0104 	sbc.w	r1, r9, r4
   da21c:	3801      	subs	r0, #1
   da21e:	e7df      	b.n	da1e0 <__udivmoddi4+0x260>
   da220:	4608      	mov	r0, r1
   da222:	e7d2      	b.n	da1ca <__udivmoddi4+0x24a>
   da224:	4660      	mov	r0, ip
   da226:	e78d      	b.n	da144 <__udivmoddi4+0x1c4>
   da228:	4681      	mov	r9, r0
   da22a:	e7b9      	b.n	da1a0 <__udivmoddi4+0x220>
   da22c:	4666      	mov	r6, ip
   da22e:	e775      	b.n	da11c <__udivmoddi4+0x19c>
   da230:	4630      	mov	r0, r6
   da232:	e74a      	b.n	da0ca <__udivmoddi4+0x14a>
   da234:	f1ac 0c02 	sub.w	ip, ip, #2
   da238:	4439      	add	r1, r7
   da23a:	e713      	b.n	da064 <__udivmoddi4+0xe4>
   da23c:	3802      	subs	r0, #2
   da23e:	443c      	add	r4, r7
   da240:	e724      	b.n	da08c <__udivmoddi4+0x10c>
   da242:	bf00      	nop

000da244 <__aeabi_idiv0>:
   da244:	4770      	bx	lr
   da246:	bf00      	nop

000da248 <atexit>:
   da248:	2300      	movs	r3, #0
   da24a:	4601      	mov	r1, r0
   da24c:	461a      	mov	r2, r3
   da24e:	4618      	mov	r0, r3
   da250:	f000 b856 	b.w	da300 <__register_exitproc>

000da254 <memcpy>:
   da254:	440a      	add	r2, r1
   da256:	4291      	cmp	r1, r2
   da258:	f100 33ff 	add.w	r3, r0, #4294967295
   da25c:	d100      	bne.n	da260 <memcpy+0xc>
   da25e:	4770      	bx	lr
   da260:	b510      	push	{r4, lr}
   da262:	f811 4b01 	ldrb.w	r4, [r1], #1
   da266:	f803 4f01 	strb.w	r4, [r3, #1]!
   da26a:	4291      	cmp	r1, r2
   da26c:	d1f9      	bne.n	da262 <memcpy+0xe>
   da26e:	bd10      	pop	{r4, pc}

000da270 <memset>:
   da270:	4402      	add	r2, r0
   da272:	4603      	mov	r3, r0
   da274:	4293      	cmp	r3, r2
   da276:	d100      	bne.n	da27a <memset+0xa>
   da278:	4770      	bx	lr
   da27a:	f803 1b01 	strb.w	r1, [r3], #1
   da27e:	e7f9      	b.n	da274 <memset+0x4>

000da280 <srand>:
   da280:	b538      	push	{r3, r4, r5, lr}
   da282:	4b0d      	ldr	r3, [pc, #52]	; (da2b8 <srand+0x38>)
   da284:	681d      	ldr	r5, [r3, #0]
   da286:	6bab      	ldr	r3, [r5, #56]	; 0x38
   da288:	4604      	mov	r4, r0
   da28a:	b97b      	cbnz	r3, da2ac <srand+0x2c>
   da28c:	2018      	movs	r0, #24
   da28e:	f7fc ff5b 	bl	d7148 <malloc>
   da292:	4a0a      	ldr	r2, [pc, #40]	; (da2bc <srand+0x3c>)
   da294:	4b0a      	ldr	r3, [pc, #40]	; (da2c0 <srand+0x40>)
   da296:	63a8      	str	r0, [r5, #56]	; 0x38
   da298:	e9c0 2300 	strd	r2, r3, [r0]
   da29c:	4b09      	ldr	r3, [pc, #36]	; (da2c4 <srand+0x44>)
   da29e:	6083      	str	r3, [r0, #8]
   da2a0:	230b      	movs	r3, #11
   da2a2:	8183      	strh	r3, [r0, #12]
   da2a4:	2201      	movs	r2, #1
   da2a6:	2300      	movs	r3, #0
   da2a8:	e9c0 2304 	strd	r2, r3, [r0, #16]
   da2ac:	6bab      	ldr	r3, [r5, #56]	; 0x38
   da2ae:	2200      	movs	r2, #0
   da2b0:	611c      	str	r4, [r3, #16]
   da2b2:	615a      	str	r2, [r3, #20]
   da2b4:	bd38      	pop	{r3, r4, r5, pc}
   da2b6:	bf00      	nop
   da2b8:	2003e454 	.word	0x2003e454
   da2bc:	abcd330e 	.word	0xabcd330e
   da2c0:	e66d1234 	.word	0xe66d1234
   da2c4:	0005deec 	.word	0x0005deec

000da2c8 <strlen>:
   da2c8:	4603      	mov	r3, r0
   da2ca:	f813 2b01 	ldrb.w	r2, [r3], #1
   da2ce:	2a00      	cmp	r2, #0
   da2d0:	d1fb      	bne.n	da2ca <strlen+0x2>
   da2d2:	1a18      	subs	r0, r3, r0
   da2d4:	3801      	subs	r0, #1
   da2d6:	4770      	bx	lr

000da2d8 <strncpy>:
   da2d8:	b510      	push	{r4, lr}
   da2da:	3901      	subs	r1, #1
   da2dc:	4603      	mov	r3, r0
   da2de:	b132      	cbz	r2, da2ee <strncpy+0x16>
   da2e0:	f811 4f01 	ldrb.w	r4, [r1, #1]!
   da2e4:	f803 4b01 	strb.w	r4, [r3], #1
   da2e8:	3a01      	subs	r2, #1
   da2ea:	2c00      	cmp	r4, #0
   da2ec:	d1f7      	bne.n	da2de <strncpy+0x6>
   da2ee:	441a      	add	r2, r3
   da2f0:	2100      	movs	r1, #0
   da2f2:	4293      	cmp	r3, r2
   da2f4:	d100      	bne.n	da2f8 <strncpy+0x20>
   da2f6:	bd10      	pop	{r4, pc}
   da2f8:	f803 1b01 	strb.w	r1, [r3], #1
   da2fc:	e7f9      	b.n	da2f2 <strncpy+0x1a>
	...

000da300 <__register_exitproc>:
   da300:	e92d 43f8 	stmdb	sp!, {r3, r4, r5, r6, r7, r8, r9, lr}
   da304:	f8df 80b8 	ldr.w	r8, [pc, #184]	; da3c0 <__register_exitproc+0xc0>
   da308:	4606      	mov	r6, r0
   da30a:	f8d8 0000 	ldr.w	r0, [r8]
   da30e:	461f      	mov	r7, r3
   da310:	460d      	mov	r5, r1
   da312:	4691      	mov	r9, r2
   da314:	f000 f856 	bl	da3c4 <__retarget_lock_acquire_recursive>
   da318:	4b25      	ldr	r3, [pc, #148]	; (da3b0 <__register_exitproc+0xb0>)
   da31a:	681c      	ldr	r4, [r3, #0]
   da31c:	b934      	cbnz	r4, da32c <__register_exitproc+0x2c>
   da31e:	4c25      	ldr	r4, [pc, #148]	; (da3b4 <__register_exitproc+0xb4>)
   da320:	601c      	str	r4, [r3, #0]
   da322:	4b25      	ldr	r3, [pc, #148]	; (da3b8 <__register_exitproc+0xb8>)
   da324:	b113      	cbz	r3, da32c <__register_exitproc+0x2c>
   da326:	681b      	ldr	r3, [r3, #0]
   da328:	f8c4 3088 	str.w	r3, [r4, #136]	; 0x88
   da32c:	6863      	ldr	r3, [r4, #4]
   da32e:	2b1f      	cmp	r3, #31
   da330:	dd07      	ble.n	da342 <__register_exitproc+0x42>
   da332:	f8d8 0000 	ldr.w	r0, [r8]
   da336:	f000 f847 	bl	da3c8 <__retarget_lock_release_recursive>
   da33a:	f04f 30ff 	mov.w	r0, #4294967295
   da33e:	e8bd 83f8 	ldmia.w	sp!, {r3, r4, r5, r6, r7, r8, r9, pc}
   da342:	b34e      	cbz	r6, da398 <__register_exitproc+0x98>
   da344:	f8d4 0088 	ldr.w	r0, [r4, #136]	; 0x88
   da348:	b988      	cbnz	r0, da36e <__register_exitproc+0x6e>
   da34a:	4b1c      	ldr	r3, [pc, #112]	; (da3bc <__register_exitproc+0xbc>)
   da34c:	b923      	cbnz	r3, da358 <__register_exitproc+0x58>
   da34e:	f8d8 0000 	ldr.w	r0, [r8]
   da352:	f000 f838 	bl	da3c6 <__retarget_lock_release>
   da356:	e7f0      	b.n	da33a <__register_exitproc+0x3a>
   da358:	f44f 7084 	mov.w	r0, #264	; 0x108
   da35c:	f7fc fef4 	bl	d7148 <malloc>
   da360:	2800      	cmp	r0, #0
   da362:	d0f4      	beq.n	da34e <__register_exitproc+0x4e>
   da364:	2300      	movs	r3, #0
   da366:	e9c0 3340 	strd	r3, r3, [r0, #256]	; 0x100
   da36a:	f8c4 0088 	str.w	r0, [r4, #136]	; 0x88
   da36e:	6863      	ldr	r3, [r4, #4]
   da370:	f840 9023 	str.w	r9, [r0, r3, lsl #2]
   da374:	2201      	movs	r2, #1
   da376:	409a      	lsls	r2, r3
   da378:	eb00 0183 	add.w	r1, r0, r3, lsl #2
   da37c:	f8d0 3100 	ldr.w	r3, [r0, #256]	; 0x100
   da380:	4313      	orrs	r3, r2
   da382:	2e02      	cmp	r6, #2
   da384:	f8c0 3100 	str.w	r3, [r0, #256]	; 0x100
   da388:	f8c1 7080 	str.w	r7, [r1, #128]	; 0x80
   da38c:	bf02      	ittt	eq
   da38e:	f8d0 3104 	ldreq.w	r3, [r0, #260]	; 0x104
   da392:	431a      	orreq	r2, r3
   da394:	f8c0 2104 	streq.w	r2, [r0, #260]	; 0x104
   da398:	6863      	ldr	r3, [r4, #4]
   da39a:	f8d8 0000 	ldr.w	r0, [r8]
   da39e:	1c5a      	adds	r2, r3, #1
   da3a0:	3302      	adds	r3, #2
   da3a2:	6062      	str	r2, [r4, #4]
   da3a4:	f844 5023 	str.w	r5, [r4, r3, lsl #2]
   da3a8:	f000 f80e 	bl	da3c8 <__retarget_lock_release_recursive>
   da3ac:	2000      	movs	r0, #0
   da3ae:	e7c6      	b.n	da33e <__register_exitproc+0x3e>
   da3b0:	2003e7e0 	.word	0x2003e7e0
   da3b4:	2003e754 	.word	0x2003e754
   da3b8:	00000000 	.word	0x00000000
   da3bc:	000d7149 	.word	0x000d7149
   da3c0:	2003e4b8 	.word	0x2003e4b8

000da3c4 <__retarget_lock_acquire_recursive>:
   da3c4:	4770      	bx	lr

000da3c6 <__retarget_lock_release>:
   da3c6:	4770      	bx	lr

000da3c8 <__retarget_lock_release_recursive>:
   da3c8:	4770      	bx	lr

000da3ca <link_code_end>:
	...

000da3cc <dynalib_user>:
   da3cc:	4021 000d 405d 000d 4085 000d 4089 000d     !@..]@...@...@..
   da3dc:	0000 0000 6341 6563 656c 6f72 656d 6574     ....Acceleromete
   da3ec:	3a72 0020 470a 7279 3a6f 0020 4d0a 6761     r: ..Gyro: ..Mag
   da3fc:	203a 0a00 6341 6563 206c 6152 6964 7375     : ..Accel Radius
   da40c:	203a 0a00 614d 2067 6152 6964 7375 203a     : ..Mag Radius: 
   da41c:	5400 6d65 6570 6172 7574 6572 3d20 0020     .Temperature = .
   da42c:	4620 5000 6572 7373 7275 2065 203d 2000      F.Pressure = . 
   da43c:	6d6d 6748 4100 7070 6f72 2e78 4120 746c     mmHg.Approx. Alt
   da44c:	7469 6475 2065 203d 2000 006d 7548 696d     itude = . m.Humi
   da45c:	6964 7974 3d20 0020 2520 2d00 2d2d 2d2d     dity = . %.-----
   da46c:	2d2d 2d2d 2d2d 2d2d 2d2d 2d2d 2d2d 2d2d     ----------------
   da47c:	2d2d 2d2d 2d2d 2d2d 2d2d 2d2d 2d2d 002d     ---------------.
   da48c:	6553 736e 726f 203a 2020 2020 2020 4400     Sensor:       .D
   da49c:	6972 6576 2072 6556 3a72 2020 0020 6e55     river Ver:   .Un
   da4ac:	7169 6575 4920 3a44 2020 2020 4d00 7861     ique ID:    .Max
   da4bc:	5620 6c61 6575 203a 2020 0020 7820 7878      Value:    . xxx
   da4cc:	4d00 6e69 5620 6c61 6575 203a 2020 0020     .Min Value:    .
   da4dc:	6552 6f73 756c 6974 6e6f 203a 2020 5400     Resolution:   .T
   da4ec:	6d65 2e70 3d20 0020 c220 46b0 5000 6572     emp. = . ..F.Pre
   da4fc:	7373 202e 203d 4d00 7261 6972 2065 7369     ss. = .Marrie is
   da50c:	6720 6572 7461 0021 6f43 706d 7361 2073      great!.Compass 
   da51c:	6568 6461 6e69 0067 0041 0043 724f 6569     heading.A.C.Orie
   da52c:	746e 7461 6f69 3a6e 0020 202c 5100 6175     ntation: ., .Qua
   da53c:	6574 6e72 6f69 3a6e 0020 6143 696c 7262     ternion: .Calibr
   da54c:	7461 6f69 3a6e 0020 0a0a 5800 203a 0900     ation: ....X: ..
   da55c:	3a59 0020 5a09 203a 6300 6d6f 6170 7373     Y: ..Z: .compass
   da56c:	6820 6165 6964 676e 203a 0020 4d42 3245      heading:  .BME2
   da57c:	3038 7420 7365 0074 3231 7838 3436 4f20     80 test.128x64 O
   da58c:	454c 2044 6546 7461 6568 5772 6e69 2067     LED FeatherWing 
   da59c:	6574 7473 4f00 454c 2044 6562 7567 006e     test.OLED begun.
   da5ac:	7542 7474 6e6f 7420 7365 0074 6f43 6e6e     Button test.Conn
   da5bc:	6365 6974 676e 7420 206f 5353 4449 270a     ecting to SSID.'
   da5cc:	6461 6661 7572 7469 3a27 6300 6e6f 656e     adafruit':.conne
   da5dc:	7463 6465 0021 5049 203a 3031 302e 312e     cted!.IP: 10.0.1
   da5ec:	322e 0033 6553 646e 6e69 2067 6176 206c     .23.Sending val 
   da5fc:	3023 4300 756f 646c 6e20 746f 6620 6e69     #0.Could not fin
   da60c:	2064 2061 6176 696c 2064 4d42 3245 3038     d a valid BME280
   da61c:	7320 6e65 6f73 2c72 6320 6568 6b63 7720      sensor, check w
   da62c:	7269 6e69 2c67 6120 6464 6572 7373 202c     iring, address, 
   da63c:	6573 736e 726f 4920 2144 5300 6e65 6f73     sensor ID!.Senso
   da64c:	4972 2044 6177 3a73 3020 0078 2020 2020     rID was: 0x.    
   da65c:	2020 2020 4449 6f20 2066 7830 4646 7020         ID of 0xFF p
   da66c:	6f72 6162 6c62 2079 656d 6e61 2073 2061     robably means a 
   da67c:	6162 2064 6461 7264 7365 2c73 6120 4220     bad address, a B
   da68c:	504d 3120 3038 6f20 2072 4d42 2050 3830     MP 180 or BMP 08
   da69c:	0a35 2000 2020 4449 6f20 2066 7830 3635     5..   ID of 0x56
   da6ac:	302d 3578 2038 6572 7270 7365 6e65 7374     -0x58 represents
   da6bc:	6120 4220 504d 3220 3038 0a2c 2000 2020      a BMP 280,..   
   da6cc:	2020 2020 4920 2044 666f 3020 3678 2030          ID of 0x60 
   da6dc:	6572 7270 7365 6e65 7374 6120 4220 454d     represents a BME
   da6ec:	3220 3038 0a2e 2000 2020 2020 2020 4920      280...        I
   da6fc:	2044 666f 3020 3678 2031 6572 7270 7365     D of 0x61 repres
   da70c:	6e65 7374 6120 4220 454d 3620 3038 0a2e     ents a BME 680..
   da71c:	5700 6265 6553 6972 6c61 3320 2044 6946     .WebSerial 3D Fi
   da72c:	6d72 6177 6572 4f00 6f6f 7370 202c 6f6e     rmware.Ooops, no
   da73c:	4220 4f4e 3530 2035 6564 6574 7463 6465      BNO055 detected
   da74c:	2e20 2e2e 4320 6568 6b63 7920 756f 2072      ... Check your 
   da75c:	6977 6972 676e 6f20 2072 3249 2043 4441     wiring or I2C AD
   da76c:	5244 0021 6353 6e61 696e 676e 2e2e 002e     DR!.Scanning....
   da77c:	3249 2043 6564 6976 6563 6620 756f 646e     I2C device found
   da78c:	6120 2074 6461 7264 7365 2073 7830 2000      at address 0x. 
   da79c:	2120 5500 6b6e 6f6e 6e77 6520 7272 726f      !.Unknown error
   da7ac:	6120 2074 6461 7264 7365 2073 7830 4e00      at address 0x.N
   da7bc:	206f 3249 2043 6564 6976 6563 2073 6f66     o I2C devices fo
   da7cc:	6e75 0a64 6400 6e6f 0a65 6400 6665 7561     und..done..defau
   da7dc:	746c 0020 534d 0042 534c 0042 533c 4950     lt .MSB.LSB.<SPI
   da7ec:	6553 7474 6e69 7367 6420 6665 7561 746c     Settings default
   da7fc:	003e 533c 4950 6553 7474 6e69 7367 2520     >.<SPISettings %
   da80c:	2573 2075 7325 4d20 444f 2545 3e75 0000     s%u %s MODE%u>..

000da81c <_ZTVN8particle11SPISettingsE>:
	...
   da824:	4c0d 000d 4be1 000d 4be3 000d 4e42 304f     .L...K...K..BNO0
   da834:	3535 0000                                   55..

000da838 <_ZTV15Adafruit_BNO055>:
	...
   da840:	5951 000d 5995 000d 594f 000d 5ead 000d     QY...Y..OY...^..
   da850:	5955 000d                                   UY..

000da854 <_ZTV17Adafruit_GrayOLED>:
	...
   da864:	6921 000d 73cd 000d 5eff 000d 6329 000d     !i...s...^..)c..
   da874:	632b 000d 635d 000d 6339 000d 634b 000d     +c..]c..9c..Kc..
   da884:	626d 000d 6329 000d 6555 000d 60fb 000d     mb..)c..Ue...`..
   da894:	6375 000d 63b3 000d 63ed 000d 6433 000d     uc...c...c..3d..
   da8a4:	64d1 000d 644f 000d 40a5 000d               .d..Od...@..

000da8b0 <_ZL4font>:
   da8b0:	0000 0000 3e00 4f5b 3e5b 6b3e 6b4f 1c3e     .....>[O[>>kOk>.
   da8c0:	7c3e 1c3e 3c18 3c7e 1c18 7d57 1c57 5e1c     >|>..<~<..W}W..^
   da8d0:	5e7f 001c 3c18 0018 e7ff e7c3 00ff 2418     .^...<.........$
   da8e0:	0018 e7ff e7db 30ff 3a48 0e06 2926 2979     .......0H:..&)y)
   da8f0:	4026 057f 0705 7f40 2505 5a3f e73c 5a3c     &@....@..%?Z<.<Z
   da900:	3e7f 1c1c 0808 1c1c 7f3e 2214 227f 5f14     .>......>.."."._
   da910:	005f 5f5f 0906 017f 007f 8966 6a95 6060     _.__......f..j``
   da920:	6060 9460 ffa2 94a2 0408 047e 1008 7e20     ```.......~... ~
   da930:	1020 0808 1c2a 0808 2a1c 0808 101e 1010      ...*....*......
   da940:	0c10 0c1e 0c1e 3830 383e 0630 3e0e 060e     ......08>80..>..
   da950:	0000 0000 0000 5f00 0000 0700 0700 1400     ......._........
   da960:	147f 147f 2a24 2a7f 2312 0813 6264 4936     ....$*.*.#..db6I
   da970:	2056 0050 0708 0003 1c00 4122 0000 2241     V P......."A..A"
   da980:	001c 1c2a 1c7f 082a 3e08 0808 8000 3070     ..*...*..>....p0
   da990:	0800 0808 0808 0000 6060 2000 0810 0204     ........``. ....
   da9a0:	513e 4549 003e 7f42 0040 4972 4949 2146     >QIE>.B.@.rIIIF!
   da9b0:	4941 334d 1418 7f12 2710 4545 3945 4a3c     AIM3.....'EEE9<J
   da9c0:	4949 4131 1121 0709 4936 4949 4636 4949     II1A!...6III6FII
   da9d0:	1e29 0000 0014 0000 3440 0000 0800 2214     ).......@4....."
   da9e0:	1441 1414 1414 4100 1422 0208 5901 0609     A......A"....Y..
   da9f0:	413e 595d 7c4e 1112 7c12 497f 4949 3e36     >A]YN|...|.III6>
   daa00:	4141 2241 417f 4141 7f3e 4949 4149 097f     AAA".AAA>.IIIA..
   daa10:	0909 3e01 4141 7351 087f 0808 007f 7f41     ...>AAQs......A.
   daa20:	0041 4020 3f41 7f01 1408 4122 407f 4040     A. @A?...."A.@@@
   daa30:	7f40 1c02 7f02 047f 1008 3e7f 4141 3e41     @..........>AAA>
   daa40:	097f 0909 3e06 5141 5e21 097f 2919 2646     .....>AQ!^...)F&
   daa50:	4949 3249 0103 017f 3f03 4040 3f40 201f     III2.....?@@@?. 
   daa60:	2040 3f1f 3840 3f40 1463 1408 0363 7804     @ .?@8@?c...c..x
   daa70:	0304 5961 4d49 0043 417f 4141 0402 1008     ..aYIMC..AAA....
   daa80:	0020 4141 7f41 0204 0201 4004 4040 4040      .AAA......@@@@@
   daa90:	0300 0807 2000 5454 4078 287f 4444 3838     ..... TTx@.(DD88
   daaa0:	4444 2844 4438 2844 387f 5454 1854 0800     DDD(8DD(.8TTT...
   daab0:	097e 1802 a4a4 789c 087f 0404 0078 7d44     ~......x....x.D}
   daac0:	0040 4020 3d40 7f00 2810 0044 4100 407f     @. @@=...(D..A.@
   daad0:	7c00 7804 7804 087c 0404 3878 4444 3844     .|.x.x|...x8DDD8
   daae0:	18fc 2424 1818 2424 fc18 087c 0404 4808     ..$$..$$..|....H
   daaf0:	5454 2454 0404 443f 3c24 4040 7c20 201c     TTT$..?D$<@@ |. 
   dab00:	2040 3c1c 3040 3c40 2844 2810 4c44 9090     @ .<@0@<D(.(DL..
   dab10:	7c90 6444 4c54 0044 3608 0041 0000 0077     .|DdTLD..6A...w.
   dab20:	0000 3641 0008 0102 0402 3c02 2326 3c26     ..A6.......<&#&<
   dab30:	a11e 61a1 3a12 4040 7a20 5438 5554 2159     ...a.:@@ z8TTUY!
   dab40:	5555 4179 5422 7854 2142 5455 4078 5420     UUyA"TTxB!UTx@ T
   dab50:	7955 0c40 521e 1272 5539 5555 3959 5454     Uy@..Rr.9UUUY9TT
   dab60:	5954 5539 5454 0058 4500 417c 0200 7d45     TY9UTTX..E|A..E}
   dab70:	0042 4501 407c 127d 1211 f07d 2528 f028     B..E|@}...}.(%(.
   dab80:	547c 4555 2000 5454 547c 0a7c 7f09 3249     |TUE. TT|T|...I2
   dab90:	4949 3249 443a 4444 323a 484a 3048 413a     III2:DDD:2JHH0:A
   daba0:	2141 3a7a 4042 7820 9d00 a0a0 3d7d 4242     A!z:B@ x....}=BB
   dabb0:	3d42 403d 4040 3c3d ff24 2424 7e48 4349     B==@@@=<$.$$H~IC
   dabc0:	2b66 fc2f 2b2f 09ff f629 c020 7e88 0309     f+/./+..). ..~..
   dabd0:	5420 7954 0041 4400 417d 4830 4a48 3832      TTyA..D}A0HHJ28
   dabe0:	4040 7a22 7a00 0a0a 7d72 190d 7d31 2926     @@"z.z..r}..1}&)
   dabf0:	2f29 2628 2929 2629 4830 404d 3820 0808     )/(&)))&0HM@ 8..
   dac00:	0808 0808 0808 2f38 c810 baac 102f 3428     ......8/..../.(4
   dac10:	00fa 7b00 0000 1408 142a 2222 2a14 0814     ...{....*."".*..
   dac20:	0055 0055 aa55 aa55 aa55 55ff 55ff 00ff     U.U.U.U.U..U.U..
   dac30:	0000 00ff 1010 ff10 1400 1414 00ff 1010     ................
   dac40:	00ff 10ff f010 f010 1414 fc14 1400 f714     ................
   dac50:	ff00 0000 00ff 14ff f414 fc04 1414 1017     ................
   dac60:	101f 1f10 1f10 1414 1f14 1000 1010 00f0     ................
   dac70:	0000 1f00 1010 1010 101f 1010 f010 0010     ................
   dac80:	0000 10ff 1010 1010 1010 1010 10ff 0000     ................
   dac90:	ff00 0014 ff00 ff00 0000 101f 0017 fc00     ................
   daca0:	f404 1414 1017 1417 f414 f404 0000 00ff     ................
   dacb0:	14f7 1414 1414 1414 00f7 14f7 1414 1417     ................
   dacc0:	1010 101f 141f 1414 14f4 1010 10f0 00f0     ................
   dacd0:	1f00 1f10 0000 1f00 0014 0000 14fc 0000     ................
   dace0:	10f0 10f0 ff10 ff10 1414 ff14 1014 1010     ................
   dacf0:	001f 0000 f000 ff10 ffff ffff f0f0 f0f0     ................
   dad00:	fff0 ffff 0000 0000 ff00 0fff 0f0f 0f0f     ................
   dad10:	4438 3844 fc44 4a4a 344a 027e 0602 0206     8DD8D.JJJ4~.....
   dad20:	027e 027e 5563 4149 3863 4444 043c 7e40     ~.~.cUIAc8DD<.@~
   dad30:	1e20 0620 7e02 0202 a599 a5e7 1c99 492a      . ..~........*I
   dad40:	1c2a 724c 7201 304c 4d4a 304d 4830 4878     *.Lr.rL0JMM00HxH
   dad50:	bc30 5a62 3d46 493e 4949 7e00 0101 7e01     0.bZF=>III.~...~
   dad60:	2a2a 2a2a 442a 5f44 4444 5140 444a 4040     *****DD_DD@QJD@@
   dad70:	4a44 4051 0000 01ff e003 ff80 0000 0808     DJQ@............
   dad80:	6b6b 3608 3612 3624 0f06 0f09 0006 1800     kk.6.6$6........
   dad90:	0018 0000 1010 3000 ff40 0101 1f00 0101     .......0@.......
   dada0:	001e 1d19 1217 3c00 3c3c 003c 0000 0000     .......<<<<.....

000dadb0 <_ZTV12Adafruit_GFX>:
	...
   dadc0:	6921 000d 73cd 000d 40a5 000d 6329 000d     !i...s...@..)c..
   dadd0:	632b 000d 635d 000d 6339 000d 634b 000d     +c..]c..9c..Kc..
   dade0:	626d 000d 6329 000d 6555 000d 64cf 000d     mb..)c..Ue...d..
   dadf0:	6375 000d 63b3 000d 63ed 000d 6433 000d     uc...c...c..3d..
   dae00:	64d1 000d 644f 000d                         .d..Od..

000dae08 <_ZTV15Adafruit_SH110X>:
	...
   dae10:	40a5 000d 40a5 000d 6921 000d 73cd 000d     .@...@..!i...s..
   dae20:	5eff 000d 6329 000d 632b 000d 635d 000d     .^..)c..+c..]c..
   dae30:	6339 000d 634b 000d 626d 000d 6329 000d     9c..Kc..mb..)c..
   dae40:	6555 000d 60fb 000d 6375 000d 63b3 000d     Ue...`..uc...c..
   dae50:	63ed 000d 6433 000d 64d1 000d 644f 000d     .c..3d...d..Od..
   dae60:	6a2f 000d                                   /j..

000dae64 <_ZL12splash2_data>:
   dae64:	0000 0060 0000 0000 0000 0000 0000 0000     ..`.............
   dae74:	e000 0000 0000 0000 0000 0000 0000 0100     ................
   dae84:	00e0 0000 0000 0000 0000 0000 0000 f001     ................
	...
   daea0:	0300 00f0 0000 0000 0000 0000 0000 0000     ................
   daeb0:	f007 0000 0000 0000 0000 0000 0000 0700     ................
   daec0:	00f8 0000 0000 0000 0000 0000 0000 f80f     ................
   daed0:	0000 0300 00c0 007e 0100 00e0 0f7f 00f8     ......~.........
   daee0:	0000 c003 fe00 0000 e001 ff00 f8ef 0000     ................
   daef0:	0300 00c0 00fe 0100 00e0 ffff 00f8 0000     ................
   daf00:	c003 f000 0000 0f00 7f00 7ffe 00c0 0300     ................
   daf10:	00c0 00f0 0000 000f fe3f f87f f13f cffb     ........?...?...
   daf20:	fefc bcf3 ef3d 1fe0 7ffe 7fff fffb fedf     ....=...........
   daf30:	fffe 3dbc e0ef c61f ffff fb7f dfff fefe     ...=............
   daf40:	bcff ef3d 0fe0 c7e3 78fe c37b 1ede fff0     ..=......x{.....
   daf50:	3dbc 00ef ff07 fc87 7b78 dec3 f01e 3cf8     .=......x{.....<
   daf60:	ef3d 0100 ffff 00f0 c37b 1ec0 f0f0 3d3c     =.......{.....<=
   daf70:	00ef f301 e07f fb3f cfc3 f0fe 3cf0 ef3d     ......?......<=.
   daf80:	0300 3fe3 7f80 c3fb fedf f0f0 3d3c 00ef     ...?........<=..
   daf90:	e707 003c 7b78 dec3 f01e 3cf0 ef3d 0700     ..<.x{.....<=...
   dafa0:	beff 7800 c37b 1ede f0f0 3d3c 00ef ff07     ...x{.....<=....
   dafb0:	00fe 7b78 dec3 f01e 3cf0 ef3d 0f00 feff     ..x{.....<=.....
   dafc0:	7f00 fffb fedf f0f0 fd3f e0ef ff0f 00ff     ........?.......
   dafd0:	fb7f dfff f0fe 3ff0 effd 0fe0 fff9 3e00     .......?.......>
   dafe0:	f979 9ecf f0f0 3d1f e0e7 f11f 00ff 0000     y......=........
	...
   daff8:	1f00 ff80 7f00 ffff ffff ffff ffff e0ff     ................
   db008:	001c 007f ff7f ffff b4fe 886d 188d 00e0     ..........m.....
   db018:	1f00 7f00 ffff feff ad95 b57d e077 0000     ..........}.w...
   db028:	000f ff7f ffff a5fe 9dad 198d 00e0 0600     ................
   db038:	7f00 ffff feff adb5 b5ed e07e               ..........~.

000db044 <_ZTV15Adafruit_SH1107>:
	...
   db04c:	6bcd 000d 6be1 000d 6921 000d 73cd 000d     .k...k..!i...s..
   db05c:	5eff 000d 6329 000d 632b 000d 635d 000d     .^..)c..+c..]c..
   db06c:	6339 000d 634b 000d 626d 000d 6329 000d     9c..Kc..mb..)c..
   db07c:	6555 000d 60fb 000d 6375 000d 63b3 000d     Ue...`..uc...c..
   db08c:	63ed 000d 6433 000d 64d1 000d 644f 000d     .c..3d...d..Od..
   db09c:	6a2f 000d                                   /j..

000db0a0 <_ZZN15Adafruit_SH11075beginEhbE12init_128x128>:
   db0a0:	00d3 7fa8                                   ....

000db0a4 <_ZZN15Adafruit_SH11075beginEhbE4init>:
   db0a4:	d5ae 2051 4f81 8aad c0a0 00dc 60d3 22d9     ..Q .O.......`."
   db0b4:	35db 3fa8 a6a4 0000                         .5.?....

000db0bc <_ZTVN5spark13EthernetClassE>:
	...
   db0c4:	71f7 000d 71ed 000d 71e3 000d 71d9 000d     .q...q...q...q..
   db0d4:	71cd 000d 71c1 000d 7ceb 000d 7cf3 000d     .q...q...|...|..
   db0e4:	71b5 000d 71ad 000d 71a3 000d 7199 000d     .q...q...q...q..
   db0f4:	7d23 000d                                   #}..

000db0f8 <_ZN12_GLOBAL__N_1L14clock_divisorsE>:
   db0f8:	0800 1810 2820 3830 616e 006e 6e69 0066     .... (08nan.inf.
   db108:	766f 0066 7061 0070 5925 252d 2d6d 6425     ovf.app.%Y-%m-%d
   db118:	2554 3a48 4d25 253a 2553 007a 7361 7463     T%H:%M:%S%z.asct
   db128:	6d69 0065                                   ime.

000db12c <_ZTV9IPAddress>:
	...
   db134:	7839 000d 7829 000d 782b 000d               9x..)x..+x..

000db140 <_ZTV9USBSerial>:
	...
   db148:	7911 000d 7979 000d 794f 000d 73cd 000d     .y..yy..Oy...s..
   db158:	7941 000d 7913 000d 7923 000d 7973 000d     Ay...y..#y..sy..
   db168:	7933 000d 790b 000d                         3y...y..

000db170 <_ZTVN5spark13CellularClassE>:
	...
   db178:	7a7f 000d 7a75 000d 7a6b 000d 7a21 000d     .z..uz..kz..!z..
   db188:	7a5f 000d 7a53 000d 7ceb 000d 7cf3 000d     _z..Sz...|...|..
   db198:	7a47 000d 7a3f 000d 7a35 000d 7a2b 000d     Gz..?z..5z..+z..
   db1a8:	7d23 000d                                   #}..

000db1ac <_ZTV11USARTSerial>:
	...
   db1b4:	7ab9 000d 7b27 000d 7aff 000d 73cd 000d     .z..'{...z...s..
   db1c4:	7acf 000d 7aeb 000d 7add 000d 7af9 000d     .z...z...z...z..
   db1d4:	7abb 000d 7ac1 000d                         .z...z..

000db1dc <_ZTV7TwoWire>:
	...
   db1e4:	7bad 000d 7bf7 000d 7bcf 000d 7baf 000d     .{...{...{...{..
   db1f4:	7bd7 000d 7bdf 000d 7be7 000d 7bef 000d     .{...{...{...{..

000db204 <_ZTVN5spark12NetworkClassE>:
	...
   db20c:	7cab 000d 7cb5 000d 7cbf 000d 7cc9 000d     .|...|...|...|..
   db21c:	7cd3 000d 7cdf 000d 7ceb 000d 7cf3 000d     .|...|...|...|..
   db22c:	7cfb 000d 7d07 000d 7d0f 000d 7d19 000d     .|...}...}...}..
   db23c:	7d23 000d                                   #}..

000db240 <_ZSt7nothrow>:
   db240:	0000 0000 6f70 0077 0000 0000 0000 0000     ....pow.........

000db250 <TWO52>:
   db250:	0000 0000 0000 4330 0000 0000 0000 c330     ......0C......0.

000db260 <link_const_variable_data_end>:
   db260:	000d448d 	.word	0x000d448d
   db264:	000d7201 	.word	0x000d7201
   db268:	000d7399 	.word	0x000d7399
   db26c:	000d73bd 	.word	0x000d73bd
   db270:	000d76b9 	.word	0x000d76b9
   db274:	000d76c9 	.word	0x000d76c9
   db278:	000d76e5 	.word	0x000d76e5
   db27c:	000d7a89 	.word	0x000d7a89
   db280:	000d7df5 	.word	0x000d7df5

000db284 <link_constructors_end>:
	...
